
.\dist\FreeRTOS\production\tcpip_iperf_10base_t1s_freertos.X.production.elf:     file format elf32-littlearm


Disassembly of section .config_00804000:

00804000 <__config_00804000>:
  804000:	39 12 00 3c                                         9..<

Disassembly of section .config_00804008:

00804008 <__config_00804008>:
  804008:	ff ff ff ff                                         ....

Disassembly of section .config_00804004:

00804004 <__config_00804004>:
  804004:	80 00 a8 2a                                         ...*

Disassembly of section .vectors:

00000000 <exception_table>:
   0:	f0 ff 03 20 9d 89 01 00 c7 67 01 00 17 6c 01 00     ... .....g...l..
  10:	87 77 01 00 13 7a 01 00 e7 80 01 00 00 00 00 00     .w...z..........
	...
  2c:	d1 05 02 00 ef 72 01 00 00 00 00 00 21 b3 01 00     .....r......!...
  3c:	81 fa 01 00 8b 58 01 00 8b 58 01 00 8b 58 01 00     .....X...X...X..
  4c:	8b 58 01 00 8b 58 01 00 8b 58 01 00 8b 58 01 00     .X...X...X...X..
  5c:	8b 58 01 00 8b 58 01 00 8b 58 01 00 8b 58 01 00     .X...X...X...X..
  6c:	8b 58 01 00 8b 58 01 00 8b 58 01 00 8b 58 01 00     .X...X...X...X..
  7c:	8b 58 01 00 8b 58 01 00 8b 58 01 00 8b 58 01 00     .X...X...X...X..
  8c:	8b 58 01 00 8b 58 01 00 8b 58 01 00 8b 58 01 00     .X...X...X...X..
  9c:	8b 58 01 00 8b 58 01 00 8b 58 01 00 8b 58 01 00     .X...X...X...X..
  ac:	8b 58 01 00 8b 58 01 00 8b 58 01 00 8b 58 01 00     .X...X...X...X..
  bc:	8b 58 01 00 8b 58 01 00 8b 58 01 00 8b 58 01 00     .X...X...X...X..
  cc:	8b 58 01 00 8b 58 01 00 8b 58 01 00 8b 58 01 00     .X...X...X...X..
  dc:	8b 58 01 00 8b 58 01 00 8b 58 01 00 00 00 00 00     .X...X...X......
	...
  f4:	8b 58 01 00 b1 10 01 00 b1 10 01 00 b1 10 01 00     .X..............
 104:	b1 10 01 00 15 01 01 00 15 01 01 00 15 01 01 00     ................
 114:	15 01 01 00 8b 58 01 00 8b 58 01 00 8b 58 01 00     .....X...X...X..
 124:	8b 58 01 00 8b 58 01 00 8b 58 01 00 8b 58 01 00     .X...X...X...X..
 134:	8b 58 01 00 8b 58 01 00 8b 58 01 00 8b 58 01 00     .X...X...X...X..
 144:	8b 58 01 00 8b 58 01 00 8b 58 01 00 8b 58 01 00     .X...X...X...X..
 154:	8b 58 01 00 8b 58 01 00 8b 58 01 00 8b 58 01 00     .X...X...X...X..
 164:	8b 58 01 00 8b 58 01 00 8b 58 01 00 8b 58 01 00     .X...X...X...X..
 174:	8b 58 01 00 8b 58 01 00 8b 58 01 00 8b 58 01 00     .X...X...X...X..
 184:	8b 58 01 00 8b 58 01 00 8b 58 01 00 b9 f0 01 00     .X...X...X......
 194:	8b 58 01 00 8b 58 01 00 8b 58 01 00 8b 58 01 00     .X...X...X...X..
 1a4:	8b 58 01 00 8b 58 01 00 8b 58 01 00 8b 58 01 00     .X...X...X...X..
 1b4:	8b 58 01 00 8b 58 01 00 8b 58 01 00 8b 58 01 00     .X...X...X...X..
 1c4:	8b 58 01 00 8b 58 01 00 8b 58 01 00 8b 58 01 00     .X...X...X...X..
 1d4:	8b 58 01 00 8b 58 01 00 8b 58 01 00 8b 58 01 00     .X...X...X...X..
 1e4:	8b 58 01 00 8b 58 01 00 d1 f9 01 00 8b 58 01 00     .X...X.......X..
 1f4:	8b 58 01 00 8b 58 01 00 8b 58 01 00 8b 58 01 00     .X...X...X...X..
 204:	8b 58 01 00 8b 58 01 00 8b 58 01 00 8b 58 01 00     .X...X...X...X..
 214:	8b 58 01 00 8b 58 01 00 8b 58 01 00 8b 58 01 00     .X...X...X...X..
 224:	8b 58 01 00 8b 58 01 00 8b 58 01 00 8b 58 01 00     .X...X...X...X..
 234:	8b 58 01 00 8b 58 01 00 8b 58 01 00 8b 58 01 00     .X...X...X...X..
 244:	8b 58 01 00 8b 58 01 00 8b 58 01 00 8b 58 01 00     .X...X...X...X..
 254:	8b 58 01 00 8b 58 01 00 8b 58 01 00 8b 58 01 00     .X...X...X...X..

Disassembly of section .text:

00000264 <_init>:
 264:	b5f8      	push	{r3, r4, r5, r6, r7, lr}
 266:	bf00      	nop
 268:	bcf8      	pop	{r3, r4, r5, r6, r7}
 26a:	bc08      	pop	{r3}
 26c:	469e      	mov	lr, r3
 26e:	4770      	bx	lr

00000270 <__init_array_start>:
 270:	0001d919 	.word	0x0001d919

00000274 <_fini>:
 274:	b5f8      	push	{r3, r4, r5, r6, r7, lr}
 276:	bf00      	nop
 278:	bcf8      	pop	{r3, r4, r5, r6, r7}
 27a:	bc08      	pop	{r3}
 27c:	469e      	mov	lr, r3
 27e:	4770      	bx	lr

00000280 <__fini_array_start>:
 280:	0001d8f5 	.word	0x0001d8f5

Disassembly of section .text.TCPIP_TCP_Task%181:

00001980 <TCPIP_TCP_Task>:
    return hTCP;		

}

void  TCPIP_TCP_Task(void)
{
    1980:	e92d 4ff0 	stmdb	sp!, {r4, r5, r6, r7, r8, r9, sl, fp, lr}
    1984:	b091      	sub	sp, #68	; 0x44
    if((sigPend & (TCPIP_MODULE_SIGNAL_INTERFACE_CHANGE)) != 0)
    { // interface address change occurred
        _TCPAbortSockets(ifMask, TCPIP_TCP_SIGNAL_IF_CHANGE); 
    }
#else
    sigPend = _TCPIPStackModuleSignalGet(TCPIP_THIS_MODULE_ID, TCPIP_MODULE_SIGNAL_MASK_ALL);
    1986:	210f      	movs	r1, #15
    1988:	200a      	movs	r0, #10
    198a:	f01c fc1f 	bl	1e1cc <_TCPIPStackModuleSignalGet>
    198e:	9003      	str	r0, [sp, #12]
#endif  // (_TCPIP_STACK_INTERFACE_CHANGE_SIGNALING != 0)

    if((sigPend & TCPIP_MODULE_SIGNAL_RX_PENDING) != 0)
    1990:	f010 0f01 	tst.w	r0, #1
    1994:	f040 852b 	bne.w	23ee <__ext_attr_.config_00804000+0x3ea>
    { //  RX signal occurred
        TCPIP_TCP_Process();
    }

    if((sigPend & TCPIP_MODULE_SIGNAL_TMO) != 0)
    1998:	9b03      	ldr	r3, [sp, #12]
    199a:	f013 0f02 	tst.w	r3, #2
    199e:	f040 854a 	bne.w	2436 <__ext_attr_.config_00804000+0x432>
    { // regular TMO occurred
        TCPIP_TCP_Tick();
    }
}
    19a2:	b011      	add	sp, #68	; 0x44
    19a4:	e8bd 8ff0 	ldmia.w	sp!, {r4, r5, r6, r7, r8, r9, sl, fp, pc}
 */
static __inline__ const IPV4_ADDR* TCPIP_IPV4_PacketGetSourceAddress(TCPIP_MAC_PACKET* pPkt);

static __inline__ const IPV4_ADDR* __attribute__((always_inline)) TCPIP_IPV4_PacketGetSourceAddress(TCPIP_MAC_PACKET* pPkt)
{
    return &((IPV4_HEADER*)pPkt->pNetLayer)->SourceAddress;
    19a8:	f8d9 7018 	ldr.w	r7, [r9, #24]
    return &((IPV4_HEADER*)pPkt->pNetLayer)->DestAddress;
    19ac:	f107 0310 	add.w	r3, r7, #16
    19b0:	9307      	str	r3, [sp, #28]

    pPktSrcAdd = TCPIP_IPV4_PacketGetSourceAddress(pRxPkt);
    pPktDstAdd = TCPIP_IPV4_PacketGetDestAddress(pRxPkt);

    // Calculate IP pseudoheader checksum.
    pseudoHdr.SourceAddress.Val = pPktSrcAdd->Val;
    19b2:	68fb      	ldr	r3, [r7, #12]
    19b4:	930d      	str	r3, [sp, #52]	; 0x34
    pseudoHdr.DestAddress.Val = pPktDstAdd->Val;
    19b6:	693b      	ldr	r3, [r7, #16]
    19b8:	930e      	str	r3, [sp, #56]	; 0x38
    pseudoHdr.Zero	= 0;
    19ba:	2200      	movs	r2, #0
    19bc:	f88d 203c 	strb.w	r2, [sp, #60]	; 0x3c
    pseudoHdr.Protocol = IP_PROT_TCP;
    19c0:	2306      	movs	r3, #6
    19c2:	f88d 303d 	strb.w	r3, [sp, #61]	; 0x3d
    return (((hLong & 0x000000ff) << 24) | ((hLong & 0x0000ff00) << 8) | ((hLong & 0x00ff0000) >> 8) | ((hLong & 0xff000000) >> 24));
}

static inline uint16_t __attribute__((always_inline)) TCPIP_Helper_htons(uint16_t hShort)
{
       return (((hShort) << 8) | ((hShort) >> 8));
    19c6:	0a2b      	lsrs	r3, r5, #8
    19c8:	ea43 2305 	orr.w	r3, r3, r5, lsl #8
    pseudoHdr.Length = TCPIP_Helper_ntohs(tcpTotLength);
    19cc:	f8ad 303e 	strh.w	r3, [sp, #62]	; 0x3e

    calcChkSum = ~TCPIP_Helper_CalcIPChecksum((uint8_t*)&pseudoHdr, sizeof(pseudoHdr), 0);
    19d0:	210c      	movs	r1, #12
    19d2:	a80d      	add	r0, sp, #52	; 0x34
    19d4:	f018 fe0a 	bl	1a5ec <TCPIP_Helper_CalcIPChecksum>
    19d8:	43c3      	mvns	r3, r0
    19da:	b29b      	uxth	r3, r3
    // Note: pseudoHdr length is multiple of 4!
    if((pRxPkt->pktFlags & TCPIP_MAC_PKT_FLAG_SPLIT) != 0)
    19dc:	f8b9 2022 	ldrh.w	r2, [r9, #34]	; 0x22
    19e0:	f012 0f04 	tst.w	r2, #4
    19e4:	d033      	beq.n	1a4e <TCPIP_TCP_Task+0xce>
    {
        calcChkSum = TCPIP_Helper_PacketChecksum(pRxPkt, (uint8_t*)pTCPHdr, tcpTotLength, calcChkSum);
    19e6:	462a      	mov	r2, r5
    19e8:	4641      	mov	r1, r8
    19ea:	4648      	mov	r0, r9
    19ec:	f017 fc16 	bl	1921c <TCPIP_Helper_PacketChecksum>
    19f0:	9004      	str	r0, [sp, #16]
    else
    {
        calcChkSum = TCPIP_Helper_CalcIPChecksum((uint8_t*)pTCPHdr, tcpTotLength, calcChkSum);
    }

    if(calcChkSum != 0)
    19f2:	9b04      	ldr	r3, [sp, #16]
    19f4:	2b00      	cmp	r3, #0
    19f6:	f040 8663 	bne.w	26c0 <__ext_attr_.config_00804000+0x6bc>
    {   // discard packet
        return TCPIP_MAC_PKT_ACK_CHKSUM_ERR;
    }


	_TcpSwapHeader(pTCPHdr);
    19fa:	4640      	mov	r0, r8
    19fc:	f019 f95a 	bl	1acb4 <_TcpSwapHeader>
    TCPIP_TCP_CheckRxPkt(pTCPHdr);

	// Skip over options to retrieve data bytes
	optionsSize = (pTCPHdr->DataOffset.Val << 2) - sizeof(*pTCPHdr);
    1a00:	f898 b00c 	ldrb.w	fp, [r8, #12]
    1a04:	ea4f 1b1b 	mov.w	fp, fp, lsr #4
    1a08:	ea4f 038b 	mov.w	r3, fp, lsl #2
    1a0c:	9306      	str	r3, [sp, #24]
	TCP_SOCKET hTCP;
	uint16_t hash;
    TCB_STUB* pSkt, *partialSkt;
    TCPIP_NET_IF* pPktIf;

    TCP_HEADER* h = (TCP_HEADER*)pRxPkt->pTransportLayer;
    1a0e:	f8d9 b01c 	ldr.w	fp, [r9, #28]
    pPktIf = (TCPIP_NET_IF*)pRxPkt->pktIf;

	// Prevent connections on invalid port 0
	if(h->DestPort == 0)
    1a12:	f8bb 2002 	ldrh.w	r2, [fp, #2]
    1a16:	2a00      	cmp	r2, #0
    1a18:	f000 8655 	beq.w	26c6 <__ext_attr_.config_00804000+0x6c2>
            break;  // OK
#endif  // defined (TCPIP_STACK_USE_IPV6)

#if defined (TCPIP_STACK_USE_IPV4)
        case IP_ADDRESS_TYPE_IPV4:
            hash = (((IPV4_ADDR *)remoteIP)->w[1] + ((IPV4_ADDR *)remoteIP)->w[0] + h->SourcePort) ^ h->DestPort;
    1a1c:	89fe      	ldrh	r6, [r7, #14]
    1a1e:	89bb      	ldrh	r3, [r7, #12]
    1a20:	441e      	add	r6, r3
    1a22:	f8bb 3000 	ldrh.w	r3, [fp]
    1a26:	441e      	add	r6, r3
    1a28:	4056      	eors	r6, r2
    1a2a:	b2b6      	uxth	r6, r6
            return 0;  // shouldn't happen
    }

	// Loop through all sockets looking for a socket that is expecting this 
	// packet or can handle it.
	for(hTCP = 0; hTCP < TcpSockets; hTCP++)
    1a2c:	4bcc      	ldr	r3, [pc, #816]	; (1d60 <TCPIP_TCP_Task+0x3e0>)
    1a2e:	f8d3 c000 	ldr.w	ip, [r3]
    1a32:	f1bc 0f00 	cmp.w	ip, #0
    1a36:	f000 8649 	beq.w	26cc <__ext_attr_.config_00804000+0x6c8>
    pPktIf = (TCPIP_NET_IF*)pRxPkt->pktIf;
    1a3a:	f8d9 e028 	ldr.w	lr, [r9, #40]	; 0x28
    {
        pSkt = TCBStubs[hTCP];
    1a3e:	4bc9      	ldr	r3, [pc, #804]	; (1d64 <TCPIP_TCP_Task+0x3e4>)
    1a40:	681b      	ldr	r3, [r3, #0]
    1a42:	9305      	str	r3, [sp, #20]
	for(hTCP = 0; hTCP < TcpSockets; hTCP++)
    1a44:	2300      	movs	r3, #0
	partialSkt = 0;
    1a46:	469a      	mov	sl, r3
	for(hTCP = 0; hTCP < TcpSockets; hTCP++)
    1a48:	4619      	mov	r1, r3
    1a4a:	4610      	mov	r0, r2
    1a4c:	e00f      	b.n	1a6e <TCPIP_TCP_Task+0xee>
        calcChkSum = TCPIP_Helper_CalcIPChecksum((uint8_t*)pTCPHdr, tcpTotLength, calcChkSum);
    1a4e:	461a      	mov	r2, r3
    1a50:	4629      	mov	r1, r5
    1a52:	4640      	mov	r0, r8
    1a54:	f018 fdca 	bl	1a5ec <TCPIP_Helper_CalcIPChecksum>
    1a58:	9004      	str	r0, [sp, #16]
    1a5a:	e7ca      	b.n	19f2 <TCPIP_TCP_Task+0x72>
            bool found = false;

            if(pSkt->smState == TCPIP_TCP_STATE_LISTEN)
            {
                // For listening ports, check if this is the correct port
                if(pSkt->remoteHash == h->DestPort && partialSkt == 0)
    1a5c:	f8b4 206a 	ldrh.w	r2, [r4, #106]	; 0x6a
    1a60:	4282      	cmp	r2, r0
    1a62:	d02f      	beq.n	1ac4 <TCPIP_TCP_Task+0x144>
    1a64:	3301      	adds	r3, #1
    1a66:	b21b      	sxth	r3, r3
	for(hTCP = 0; hTCP < TcpSockets; hTCP++)
    1a68:	4619      	mov	r1, r3
    1a6a:	4563      	cmp	r3, ip
    1a6c:	d22f      	bcs.n	1ace <TCPIP_TCP_Task+0x14e>
        pSkt = TCBStubs[hTCP];
    1a6e:	9a05      	ldr	r2, [sp, #20]
    1a70:	f852 4021 	ldr.w	r4, [r2, r1, lsl #2]
        if(pSkt == 0 || pSkt->smState == TCPIP_TCP_STATE_CLIENT_WAIT_CONNECT)
    1a74:	2c00      	cmp	r4, #0
    1a76:	d0f5      	beq.n	1a64 <TCPIP_TCP_Task+0xe4>
    1a78:	f894 206e 	ldrb.w	r2, [r4, #110]	; 0x6e
    1a7c:	2a0b      	cmp	r2, #11
    1a7e:	d0f1      	beq.n	1a64 <TCPIP_TCP_Task+0xe4>
        if( (pSkt->addType == IP_ADDRESS_TYPE_ANY || pSkt->addType == addressType) &&
    1a80:	f894 106f 	ldrb.w	r1, [r4, #111]	; 0x6f
    1a84:	2901      	cmp	r1, #1
    1a86:	d8ed      	bhi.n	1a64 <TCPIP_TCP_Task+0xe4>
                (pSkt->pSktNet == 0 || pSkt->pSktNet == pPktIf) )
    1a88:	6c21      	ldr	r1, [r4, #64]	; 0x40
        if( (pSkt->addType == IP_ADDRESS_TYPE_ANY || pSkt->addType == addressType) &&
    1a8a:	b109      	cbz	r1, 1a90 <TCPIP_TCP_Task+0x110>
                (pSkt->pSktNet == 0 || pSkt->pSktNet == pPktIf) )
    1a8c:	458e      	cmp	lr, r1
    1a8e:	d1e9      	bne.n	1a64 <TCPIP_TCP_Task+0xe4>
            if(pSkt->smState == TCPIP_TCP_STATE_LISTEN)
    1a90:	2a00      	cmp	r2, #0
    1a92:	d0e3      	beq.n	1a5c <TCPIP_TCP_Task+0xdc>
                {
                    partialSkt = pSkt;
                }
                continue;
            }
            else if(pSkt->remoteHash != hash)
    1a94:	f8b4 206a 	ldrh.w	r2, [r4, #106]	; 0x6a
    1a98:	42b2      	cmp	r2, r6
    1a9a:	d1e3      	bne.n	1a64 <TCPIP_TCP_Task+0xe4>
            {// Ignore if the hash doesn't match
                continue;
            }

            while(	h->DestPort == pSkt->localPort && h->SourcePort == pSkt->remotePort )  
    1a9c:	f8db 1000 	ldr.w	r1, [fp]
    1aa0:	6da2      	ldr	r2, [r4, #88]	; 0x58
    1aa2:	4291      	cmp	r1, r2
    1aa4:	d1de      	bne.n	1a64 <TCPIP_TCP_Task+0xe4>
#endif  // defined (TCPIP_STACK_USE_IPV6)

#if defined (TCPIP_STACK_USE_IPV4)
                if (addressType == IP_ADDRESS_TYPE_IPV4)
                {
                    if (pSkt->destAddress.Val == ((IPV4_ADDR *)remoteIP)->Val)
    1aa6:	6ba1      	ldr	r1, [r4, #56]	; 0x38
    1aa8:	68fa      	ldr	r2, [r7, #12]
    1aaa:	4291      	cmp	r1, r2
    1aac:	d1da      	bne.n	1a64 <TCPIP_TCP_Task+0xe4>
                break;
            }

            if(found)
            { 
                pSkt->addType = addressType;
    1aae:	2101      	movs	r1, #1
    1ab0:	f884 106f 	strb.w	r1, [r4, #111]	; 0x6f
    pSkt->pSktNet = pNet;
    1ab4:	f8c4 e040 	str.w	lr, [r4, #64]	; 0x40
    _TCPSetSourceAddress(pSkt, pSkt->addType, srcAddress);
    1ab8:	9a07      	ldr	r2, [sp, #28]
    1aba:	4620      	mov	r0, r4
    1abc:	f01c ff5d 	bl	1e97a <_TCPSetSourceAddress>
        pSkt = TCBStubs[hTCP];
    1ac0:	46a2      	mov	sl, r4
    1ac2:	e021      	b.n	1b08 <TCPIP_TCP_Task+0x188>
    1ac4:	f1ba 0f00 	cmp.w	sl, #0
    1ac8:	bf08      	it	eq
    1aca:	46a2      	moveq	sl, r4
    1acc:	e7ca      	b.n	1a64 <TCPIP_TCP_Task+0xe4>

	// If there is a partial match, then a listening socket is currently 
	// available.  Set up the extended TCB with the info needed 
	// to establish a connection and return this socket to the 
	// caller.
	while(partialSkt != 0)
    1ace:	f1ba 0f00 	cmp.w	sl, #0
    1ad2:	d07f      	beq.n	1bd4 <TCPIP_TCP_Task+0x254>
#endif  // defined (TCPIP_STACK_USE_IPV6)

#if defined (TCPIP_STACK_USE_IPV4)
            case IP_ADDRESS_TYPE_IPV4:
                // IPv4 lazy allocation
                pSkt->destAddress.Val = ((IPV4_ADDR *)remoteIP)->Val;
    1ad4:	68fb      	ldr	r3, [r7, #12]
    1ad6:	f8ca 3038 	str.w	r3, [sl, #56]	; 0x38
            default:    // shouldn't happen
                break;
        }

        // success; bind it
        pSkt->addType = addressType;
    1ada:	2101      	movs	r1, #1
    1adc:	f88a 106f 	strb.w	r1, [sl, #111]	; 0x6f
    pSkt->pSktNet = pNet;
    1ae0:	f8ca e040 	str.w	lr, [sl, #64]	; 0x40
    _TCPSetSourceAddress(pSkt, pSkt->addType, srcAddress);
    1ae4:	9a07      	ldr	r2, [sp, #28]
    1ae6:	4650      	mov	r0, sl
    1ae8:	f01c ff47 	bl	1e97a <_TCPSetSourceAddress>
        _TcpSocketBind(pSkt, pPktIf, (IP_MULTI_ADDRESS*)localIP);
        pSkt->remoteHash = hash;
    1aec:	f8aa 606a 	strh.w	r6, [sl, #106]	; 0x6a
        pSkt->remotePort = h->SourcePort;
    1af0:	f8bb 3000 	ldrh.w	r3, [fp]
    1af4:	f8aa 3058 	strh.w	r3, [sl, #88]	; 0x58
        pSkt->localPort = h->DestPort;
    1af8:	f8bb 3002 	ldrh.w	r3, [fp, #2]
    1afc:	f8aa 305a 	strh.w	r3, [sl, #90]	; 0x5a
        pSkt->txUnackedTail	= pSkt->txStart;
    1b00:	f8da 3000 	ldr.w	r3, [sl]
    1b04:	f8ca 3010 	str.w	r3, [sl, #16]
        pRxPkt->pDSeg->segLen -=  optionsSize + sizeof(*pTCPHdr);    
    1b08:	f8d9 2010 	ldr.w	r2, [r9, #16]
    1b0c:	8993      	ldrh	r3, [r2, #12]
    1b0e:	9906      	ldr	r1, [sp, #24]
    1b10:	1a5b      	subs	r3, r3, r1
    1b12:	8193      	strh	r3, [r2, #12]
    uint16_t nCopiedBytes;
    uint8_t* newRxHead;


     
    localHeaderFlags = h->Flags.byte;
    1b14:	f898 400d 	ldrb.w	r4, [r8, #13]
    localAckNumber = h->AckNumber;
    1b18:	f8d8 7008 	ldr.w	r7, [r8, #8]
    localSeqNumber = h->SeqNumber;
    1b1c:	f8d8 6004 	ldr.w	r6, [r8, #4]

    // We received a packet, reset the keep alive timer and count
    if(pSkt->Flags.keepAlive)
    1b20:	f89a 3037 	ldrb.w	r3, [sl, #55]	; 0x37
    1b24:	f013 0f40 	tst.w	r3, #64	; 0x40
    1b28:	d158      	bne.n	1bdc <TCPIP_TCP_Task+0x25c>
        {
            pSkt->eventTime = SYS_TMR_TickCountGet() + (pSkt->keepAliveTmo * SYS_TMR_TickCounterFrequencyGet())/1000;
        }
    }

    pSkt->flags.ackSent = 0;   // clear the ACK already sent
    1b2a:	f89a 306d 	ldrb.w	r3, [sl, #109]	; 0x6d
    1b2e:	f36f 0300 	bfc	r3, #0, #1
    1b32:	f88a 306d 	strb.w	r3, [sl, #109]	; 0x6d

    // Handle TCPIP_TCP_STATE_LISTEN and TCPIP_TCP_STATE_SYN_SENT states
    // Both of these states will return, so code following this 
    // state machine need not check explicitly for these two 
    // states.
    switch(pSkt->smState)
    1b36:	f89a 306e 	ldrb.w	r3, [sl, #110]	; 0x6e
    1b3a:	2b00      	cmp	r3, #0
    1b3c:	d069      	beq.n	1c12 <TCPIP_TCP_Task+0x292>
    1b3e:	2b01      	cmp	r3, #1
    1b40:	f000 80b6 	beq.w	1cb0 <TCPIP_TCP_Task+0x330>
        _TcpHandleSeg(pSkt, pTCPHdr, tcpTotLength - optionsSize - sizeof(*pTCPHdr), pRxPkt, &sktEvent);
    1b44:	3514      	adds	r5, #20
    1b46:	9a06      	ldr	r2, [sp, #24]
    1b48:	eba5 0b02 	sub.w	fp, r5, r2
    1b4c:	fa1f fb8b 	uxth.w	fp, fp
    1b50:	f1ab 0214 	sub.w	r2, fp, #20
    1b54:	b292      	uxth	r2, r2
    1b56:	9206      	str	r2, [sp, #24]

    //
    // First: check the sequence number
    //
    wSegmentLength = len = tcpLen;
    if(localHeaderFlags & FIN)
    1b58:	f014 0201 	ands.w	r2, r4, #1
    1b5c:	9207      	str	r2, [sp, #28]
    {
        wSegmentLength++;
    1b5e:	bf1a      	itte	ne
    1b60:	f1ab 0b13 	subne.w	fp, fp, #19
    1b64:	fa1f f28b 	uxthne.w	r2, fp
    wSegmentLength = len = tcpLen;
    1b68:	9a06      	ldreq	r2, [sp, #24]
    1b6a:	9205      	str	r2, [sp, #20]
    }
    if(localHeaderFlags & SYN)
    1b6c:	f014 0f02 	tst.w	r4, #2
    1b70:	d003      	beq.n	1b7a <TCPIP_TCP_Task+0x1fa>
    {
        wSegmentLength++;
    1b72:	9a05      	ldr	r2, [sp, #20]
    1b74:	3201      	adds	r2, #1
    1b76:	b292      	uxth	r2, r2
    1b78:	9205      	str	r2, [sp, #20]
    }

    // Calculate the RX FIFO space
    if(pSkt->rxHead >= pSkt->rxTail)
    1b7a:	f8da 501c 	ldr.w	r5, [sl, #28]
    1b7e:	f8da 2020 	ldr.w	r2, [sl, #32]
    1b82:	4295      	cmp	r5, r2
    1b84:	f0c0 80e5 	bcc.w	1d52 <TCPIP_TCP_Task+0x3d2>
    {
        wFreeSpace = (pSkt->rxEnd - pSkt->rxStart) - (pSkt->rxHead - pSkt->rxTail);
    1b88:	f8da 1018 	ldr.w	r1, [sl, #24]
    1b8c:	f8da 0014 	ldr.w	r0, [sl, #20]
    1b90:	1a09      	subs	r1, r1, r0
    1b92:	eba5 0b02 	sub.w	fp, r5, r2
    1b96:	eba1 0b0b 	sub.w	fp, r1, fp
    1b9a:	fa1f fb8b 	uxth.w	fp, fp
    {
        wFreeSpace = pSkt->rxTail - pSkt->rxHead - 1;
    }

    // Calculate the number of bytes ahead of our head pointer this segment skips
    lMissingBytes = localSeqNumber - pSkt->RemoteSEQ;
    1b9e:	f8da 2050 	ldr.w	r2, [sl, #80]	; 0x50
    1ba2:	1ab5      	subs	r5, r6, r2
    wMissingBytes = lMissingBytes; 

    // Run TCP acceptability tests to verify that this packet has a valid sequence number
    bSegmentAcceptable = false;
    if(wSegmentLength)
    1ba4:	9a05      	ldr	r2, [sp, #20]
    1ba6:	2a00      	cmp	r2, #0
    1ba8:	f000 80f0 	beq.w	1d8c <TCPIP_TCP_Task+0x40c>
    {
        // Check to see if we have free space, and if so, if any of the data falls within the freespace
        if(wFreeSpace)
    1bac:	f1bb 0f00 	cmp.w	fp, #0
    1bb0:	f000 80e2 	beq.w	1d78 <TCPIP_TCP_Task+0x3f8>
        {
            // RCV.NXT =< SEG.SEQ < RCV.NXT+RCV.WND
            if((lMissingBytes >= 0) && (wFreeSpace > (uint32_t)lMissingBytes))
    1bb4:	2d00      	cmp	r5, #0
    1bb6:	f2c0 80d9 	blt.w	1d6c <TCPIP_TCP_Task+0x3ec>
    1bba:	455d      	cmp	r5, fp
    1bbc:	f0c0 80eb 	bcc.w	1d96 <TCPIP_TCP_Task+0x416>
                bSegmentAcceptable = true;
            }
            else
            {
                // RCV.NXT =< SEG.SEQ+SEG.LEN-1 < RCV.NXT+RCV.WND
                if((lMissingBytes + (int32_t)wSegmentLength > 0) && (lMissingBytes <= (int32_t)(wFreeSpace - wSegmentLength)))
    1bc0:	9a05      	ldr	r2, [sp, #20]
    1bc2:	ebab 0202 	sub.w	r2, fp, r2
                {
                    bSegmentAcceptable = true;
                }
            }

            if((lMissingBytes < (int32_t)wFreeSpace) && (wMissingBytes + (int32_t)wSegmentLength > 0))
    1bc6:	45ab      	cmp	fp, r5
    1bc8:	f300 80e5 	bgt.w	1d96 <TCPIP_TCP_Task+0x416>
                bSegmentAcceptable = true;
            }
        }
    }

    if(!bSegmentAcceptable)
    1bcc:	4295      	cmp	r5, r2
    1bce:	f340 80e2 	ble.w	1d96 <TCPIP_TCP_Task+0x416>
    1bd2:	e0d1      	b.n	1d78 <TCPIP_TCP_Task+0x3f8>
            ackRes = TCPIP_MAC_PKT_ACK_PROTO_DEST_ERR;
    1bd4:	f06f 010e 	mvn.w	r1, #14
    1bd8:	f000 bc05 	b.w	23e6 <__ext_attr_.config_00804000+0x3e2>
        pSkt->keepAliveCount = 0;
    1bdc:	2300      	movs	r3, #0
    1bde:	f88a 3071 	strb.w	r3, [sl, #113]	; 0x71
        if(!pSkt->Flags.bTimerEnabled)
    1be2:	f89a 3036 	ldrb.w	r3, [sl, #54]	; 0x36
    1be6:	f013 0f02 	tst.w	r3, #2
    1bea:	d19e      	bne.n	1b2a <TCPIP_TCP_Task+0x1aa>
            pSkt->eventTime = SYS_TMR_TickCountGet() + (pSkt->keepAliveTmo * SYS_TMR_TickCounterFrequencyGet())/1000;
    1bec:	f01e fa7e 	bl	200ec <SYS_TMR_TickCountGet>
    1bf0:	4683      	mov	fp, r0
    1bf2:	f8ba 3068 	ldrh.w	r3, [sl, #104]	; 0x68
    1bf6:	9305      	str	r3, [sp, #20]
    1bf8:	f01e faa0 	bl	2013c <SYS_TMR_TickCounterFrequencyGet>
    1bfc:	9b05      	ldr	r3, [sp, #20]
    1bfe:	fb00 f003 	mul.w	r0, r0, r3
    1c02:	4b59      	ldr	r3, [pc, #356]	; (1d68 <TCPIP_TCP_Task+0x3e8>)
    1c04:	fba3 3000 	umull	r3, r0, r3, r0
    1c08:	eb0b 1090 	add.w	r0, fp, r0, lsr #6
    1c0c:	f8ca 0024 	str.w	r0, [sl, #36]	; 0x24
    1c10:	e78b      	b.n	1b2a <TCPIP_TCP_Task+0x1aa>
            if(localHeaderFlags & RST)
    1c12:	f014 0f04 	tst.w	r4, #4
    1c16:	d135      	bne.n	1c84 <TCPIP_TCP_Task+0x304>
            if(localHeaderFlags & ACK)
    1c18:	f014 0f10 	tst.w	r4, #16
    1c1c:	d137      	bne.n	1c8e <TCPIP_TCP_Task+0x30e>
            if(localHeaderFlags & SYN)
    1c1e:	f014 0f02 	tst.w	r4, #2
    1c22:	d040      	beq.n	1ca6 <TCPIP_TCP_Task+0x326>
                pSkt->RemoteSEQ = localSeqNumber + 1;
    1c24:	3601      	adds	r6, #1
    1c26:	f8ca 6050 	str.w	r6, [sl, #80]	; 0x50
                pSkt->wRemoteMSS = _GetMaxSegSizeOption(h);
    1c2a:	4640      	mov	r0, r8
    1c2c:	f014 fd6e 	bl	1670c <_GetMaxSegSizeOption>
    1c30:	f8aa 0062 	strh.w	r0, [sl, #98]	; 0x62
                _TCPSetHalfFlushFlag(pSkt);
    1c34:	4650      	mov	r0, sl
    1c36:	f01c f93d 	bl	1deb4 <_TCPSetHalfFlushFlag>
                _TcpSend(pSkt, SYN | ACK, SENDTCP_RESET_TIMERS);
    1c3a:	2201      	movs	r2, #1
    1c3c:	2112      	movs	r1, #18
    1c3e:	4650      	mov	r0, sl
    1c40:	f005 fff0 	bl	7c24 <_TcpSend>
    pSkt->smState = newState;
    1c44:	2302      	movs	r3, #2
    1c46:	f88a 306e 	strb.w	r3, [sl, #110]	; 0x6e
    OSAL_CRITSECT_DATA_TYPE critSect =  OSAL_CRIT_Enter(OSAL_CRIT_TYPE_LOW);
    1c4a:	2000      	movs	r0, #0
    1c4c:	f01f fcb6 	bl	215bc <OSAL_CRIT_Enter>
    *pSigHandler = pSkt->sigHandler;
    1c50:	f8da 5074 	ldr.w	r5, [sl, #116]	; 0x74
    *pSigParam = pSkt->sigParam;
    1c54:	f8da 6078 	ldr.w	r6, [sl, #120]	; 0x78
    uint16_t sigMask = pSkt->sigMask;
    1c58:	f8ba 4072 	ldrh.w	r4, [sl, #114]	; 0x72
    OSAL_CRIT_Leave(OSAL_CRIT_TYPE_LOW, critSect);
    1c5c:	4601      	mov	r1, r0
    1c5e:	2000      	movs	r0, #0
    1c60:	f01f fddb 	bl	2181a <OSAL_CRIT_Leave>
        if((sktEvent &= sigMask) != 0)
    1c64:	9b04      	ldr	r3, [sp, #16]
    1c66:	ea14 0203 	ands.w	r2, r4, r3
    1c6a:	f000 8532 	beq.w	26d2 <__ext_attr_.config_00804000+0x6ce>
            if(sigHandler != 0)
    1c6e:	2d00      	cmp	r5, #0
    1c70:	f000 8531 	beq.w	26d6 <__ext_attr_.config_00804000+0x6d2>
                (*sigHandler)(pSkt->sktIx, pRxPkt->pktIf, sktEvent, sigParam);
    1c74:	4633      	mov	r3, r6
    1c76:	f8d9 1028 	ldr.w	r1, [r9, #40]	; 0x28
    1c7a:	f9ba 0034 	ldrsh.w	r0, [sl, #52]	; 0x34
    1c7e:	47a8      	blx	r5
        ackRes = TCPIP_MAC_PKT_ACK_RX_OK;
    1c80:	2102      	movs	r1, #2
    1c82:	e3b0      	b.n	23e6 <__ext_attr_.config_00804000+0x3e2>
                _TcpCloseSocket(pSkt, 0);	// Unbind remote IP address/port info
    1c84:	2100      	movs	r1, #0
    1c86:	4650      	mov	r0, sl
    1c88:	f00f f8a0 	bl	10dcc <_TcpCloseSocket>
                return;
    1c8c:	e7dd      	b.n	1c4a <TCPIP_TCP_Task+0x2ca>
                pSkt->MySEQ = localAckNumber;
    1c8e:	f8ca 704c 	str.w	r7, [sl, #76]	; 0x4c
                _TcpSend(pSkt, RST, 0);
    1c92:	2200      	movs	r2, #0
    1c94:	2104      	movs	r1, #4
    1c96:	4650      	mov	r0, sl
    1c98:	f005 ffc4 	bl	7c24 <_TcpSend>
                _TcpCloseSocket(pSkt, 0);	// Unbind remote IP address/port info
    1c9c:	2100      	movs	r1, #0
    1c9e:	4650      	mov	r0, sl
    1ca0:	f00f f894 	bl	10dcc <_TcpCloseSocket>
                return;
    1ca4:	e7d1      	b.n	1c4a <TCPIP_TCP_Task+0x2ca>
                _TcpCloseSocket(pSkt, 0);	// Unbind remote IP address/port info
    1ca6:	2100      	movs	r1, #0
    1ca8:	4650      	mov	r0, sl
    1caa:	f00f f88f 	bl	10dcc <_TcpCloseSocket>
    1cae:	e7cc      	b.n	1c4a <TCPIP_TCP_Task+0x2ca>
            if(localHeaderFlags & RST)
    1cb0:	f014 0f04 	tst.w	r4, #4
    1cb4:	d1c9      	bne.n	1c4a <TCPIP_TCP_Task+0x2ca>
            if(localHeaderFlags & ACK)
    1cb6:	f014 0f10 	tst.w	r4, #16
    1cba:	f000 850e 	beq.w	26da <__ext_attr_.config_00804000+0x6d6>
                if(localAckNumber != pSkt->MySEQ)
    1cbe:	f8da 504c 	ldr.w	r5, [sl, #76]	; 0x4c
    1cc2:	42af      	cmp	r7, r5
    1cc4:	d12a      	bne.n	1d1c <TCPIP_TCP_Task+0x39c>
            if(localHeaderFlags & SYN)
    1cc6:	f014 0f02 	tst.w	r4, #2
    1cca:	d0be      	beq.n	1c4a <TCPIP_TCP_Task+0x2ca>
                pSkt->RemoteSEQ = localSeqNumber + 1;
    1ccc:	3601      	adds	r6, #1
    1cce:	f8ca 6050 	str.w	r6, [sl, #80]	; 0x50
                pSkt->remoteWindow = pSkt->maxRemoteWindow = h->Window;
    1cd2:	f8b8 300e 	ldrh.w	r3, [r8, #14]
    1cd6:	f8aa 3066 	strh.w	r3, [sl, #102]	; 0x66
    1cda:	f8aa 305c 	strh.w	r3, [sl, #92]	; 0x5c
                pSkt->wRemoteMSS = _GetMaxSegSizeOption(h);
    1cde:	4640      	mov	r0, r8
    1ce0:	f014 fd14 	bl	1670c <_GetMaxSegSizeOption>
    1ce4:	f8aa 0062 	strh.w	r0, [sl, #98]	; 0x62
                _TCPSetHalfFlushFlag(pSkt);
    1ce8:	4650      	mov	r0, sl
    1cea:	f01c f8e3 	bl	1deb4 <_TCPSetHalfFlushFlag>
                    _TcpSend(pSkt, ACK, SENDTCP_RESET_TIMERS);
    1cee:	2201      	movs	r2, #1
    1cf0:	2110      	movs	r1, #16
    1cf2:	4650      	mov	r0, sl
    1cf4:	f005 ff96 	bl	7c24 <_TcpSend>
    pSkt->smState = newState;
    1cf8:	2303      	movs	r3, #3
    1cfa:	f88a 306e 	strb.w	r3, [sl, #110]	; 0x6e
                    if(pSkt->Flags.keepAlive)
    1cfe:	f89a 3037 	ldrb.w	r3, [sl, #55]	; 0x37
    1d02:	f013 0f40 	tst.w	r3, #64	; 0x40
    1d06:	d113      	bne.n	1d30 <TCPIP_TCP_Task+0x3b0>
                    pSkt->Flags.bTimerEnabled = 0;
    1d08:	f89a 3036 	ldrb.w	r3, [sl, #54]	; 0x36
    1d0c:	f36f 0341 	bfc	r3, #1, #1
    1d10:	f88a 3036 	strb.w	r3, [sl, #54]	; 0x36
                    *pSktEvent |= TCPIP_TCP_SIGNAL_ESTABLISHED;
    1d14:	f44f 7380 	mov.w	r3, #256	; 0x100
    1d18:	9304      	str	r3, [sp, #16]
    1d1a:	e796      	b.n	1c4a <TCPIP_TCP_Task+0x2ca>
                    pSkt->MySEQ = localAckNumber;	// Set SEQ = SEG.ACK
    1d1c:	f8ca 704c 	str.w	r7, [sl, #76]	; 0x4c
                    _TcpSend(pSkt, RST, SENDTCP_RESET_TIMERS);		// Send the RST
    1d20:	2201      	movs	r2, #1
    1d22:	2104      	movs	r1, #4
    1d24:	4650      	mov	r0, sl
    1d26:	f005 ff7d 	bl	7c24 <_TcpSend>
                    pSkt->MySEQ = localSeqNumber;	// Restore original SEQ number
    1d2a:	f8ca 504c 	str.w	r5, [sl, #76]	; 0x4c
                    return;
    1d2e:	e78c      	b.n	1c4a <TCPIP_TCP_Task+0x2ca>
                        pSkt->eventTime = SYS_TMR_TickCountGet() + (pSkt->keepAliveTmo * SYS_TMR_TickCounterFrequencyGet())/1000;
    1d30:	f01e f9dc 	bl	200ec <SYS_TMR_TickCountGet>
    1d34:	4605      	mov	r5, r0
    1d36:	f8ba 4068 	ldrh.w	r4, [sl, #104]	; 0x68
    1d3a:	f01e f9ff 	bl	2013c <SYS_TMR_TickCounterFrequencyGet>
    1d3e:	fb00 f304 	mul.w	r3, r0, r4
    1d42:	4a09      	ldr	r2, [pc, #36]	; (1d68 <TCPIP_TCP_Task+0x3e8>)
    1d44:	fba2 2303 	umull	r2, r3, r2, r3
    1d48:	eb05 1393 	add.w	r3, r5, r3, lsr #6
    1d4c:	f8ca 3024 	str.w	r3, [sl, #36]	; 0x24
    1d50:	e7da      	b.n	1d08 <TCPIP_TCP_Task+0x388>
        wFreeSpace = pSkt->rxTail - pSkt->rxHead - 1;
    1d52:	eba2 0b05 	sub.w	fp, r2, r5
    1d56:	f10b 3bff 	add.w	fp, fp, #4294967295
    1d5a:	fa1f fb8b 	uxth.w	fp, fp
    1d5e:	e71e      	b.n	1b9e <TCPIP_TCP_Task+0x21e>
    1d60:	2000e390 	.word	0x2000e390
    1d64:	2000e38c 	.word	0x2000e38c
    1d68:	10624dd3 	.word	0x10624dd3
                if((lMissingBytes + (int32_t)wSegmentLength > 0) && (lMissingBytes <= (int32_t)(wFreeSpace - wSegmentLength)))
    1d6c:	9905      	ldr	r1, [sp, #20]
    1d6e:	460a      	mov	r2, r1
    1d70:	1869      	adds	r1, r5, r1
    1d72:	2900      	cmp	r1, #0
    1d74:	f73f af25 	bgt.w	1bc2 <TCPIP_TCP_Task+0x242>
    {
        // Unacceptable segment, drop it and respond appropriately
        if(!(localHeaderFlags & RST)) 
    1d78:	f014 0f04 	tst.w	r4, #4
    1d7c:	f47f af65 	bne.w	1c4a <TCPIP_TCP_Task+0x2ca>
        {
            _TcpSend(pSkt, ACK, SENDTCP_RESET_TIMERS);
    1d80:	2201      	movs	r2, #1
    1d82:	2110      	movs	r1, #16
    1d84:	4650      	mov	r0, sl
    1d86:	f005 ff4d 	bl	7c24 <_TcpSend>
    1d8a:	e75e      	b.n	1c4a <TCPIP_TCP_Task+0x2ca>
        if(lMissingBytes == 0)
    1d8c:	b11d      	cbz	r5, 1d96 <TCPIP_TCP_Task+0x416>
            if((lMissingBytes >= 0) && ((int32_t)wFreeSpace > lMissingBytes))
    1d8e:	2d00      	cmp	r5, #0
    1d90:	dbf2      	blt.n	1d78 <TCPIP_TCP_Task+0x3f8>
    1d92:	455d      	cmp	r5, fp
    1d94:	daf0      	bge.n	1d78 <TCPIP_TCP_Task+0x3f8>
    //
    // Fourth: check the SYN bit
    //
    // Note, that since the third step is not implemented, we can 
    // combine this second and fourth step into a single operation.
    if(localHeaderFlags & (RST | SYN))
    1d96:	f014 0f06 	tst.w	r4, #6
    1d9a:	d111      	bne.n	1dc0 <TCPIP_TCP_Task+0x440>
    // Feature not supported.  Let's process this segment.

    //
    // Fifth: check the ACK bit
    //
    if(!(localHeaderFlags & ACK))
    1d9c:	f014 0f10 	tst.w	r4, #16
    1da0:	f43f af53 	beq.w	1c4a <TCPIP_TCP_Task+0x2ca>
    {
        TCPIP_NDP_NborReachConfirm (pSkt->pSktNet, TCPIP_IPV6_DestAddressGet(pSkt->pV6Pkt));
    }
#endif  // defined (TCPIP_STACK_USE_IPV6)

    switch(pSkt->smState)
    1da4:	3b02      	subs	r3, #2
    1da6:	2b07      	cmp	r3, #7
    1da8:	f200 80fe 	bhi.w	1fa8 <TCPIP_TCP_Task+0x628>
    1dac:	e8df f013 	tbh	[pc, r3, lsl #1]
    1db0:	00240019 	.word	0x00240019
    1db4:	00240024 	.word	0x00240024
    1db8:	00fc0024 	.word	0x00fc0024
    1dbc:	01f90024 	.word	0x01f90024
        if(localHeaderFlags & RST)
    1dc0:	f014 0f04 	tst.w	r4, #4
    1dc4:	d008      	beq.n	1dd8 <TCPIP_TCP_Task+0x458>
            pSkt->Flags.bSocketReset = 1;
    1dc6:	f89a 3037 	ldrb.w	r3, [sl, #55]	; 0x37
    1dca:	f043 0302 	orr.w	r3, r3, #2
    1dce:	f88a 3037 	strb.w	r3, [sl, #55]	; 0x37
            *pSktEvent |= TCPIP_TCP_SIGNAL_RX_RST;
    1dd2:	f44f 6300 	mov.w	r3, #2048	; 0x800
    1dd6:	9304      	str	r3, [sp, #16]
        _TcpCloseSocket(pSkt, 0);
    1dd8:	2100      	movs	r1, #0
    1dda:	4650      	mov	r0, sl
    1ddc:	f00e fff6 	bl	10dcc <_TcpCloseSocket>
        return;
    1de0:	e733      	b.n	1c4a <TCPIP_TCP_Task+0x2ca>
    {
        case TCPIP_TCP_STATE_SYN_RECEIVED:
            if(localAckNumber != pSkt->MySEQ)
    1de2:	f8da 304c 	ldr.w	r3, [sl, #76]	; 0x4c
    1de6:	9308      	str	r3, [sp, #32]
    1de8:	429f      	cmp	r7, r3
    1dea:	d120      	bne.n	1e2e <TCPIP_TCP_Task+0x4ae>
    pSkt->smState = newState;
    1dec:	2303      	movs	r3, #3
    1dee:	f88a 306e 	strb.w	r3, [sl, #110]	; 0x6e
                _TcpSend(pSkt, RST, SENDTCP_RESET_TIMERS);		// Send the RST
                pSkt->MySEQ = localSeqNumber;	// Restore original SEQ number
                return;
            }
            _TcpSocketSetState(pSkt, TCPIP_TCP_STATE_ESTABLISHED);
            *pSktEvent |= TCPIP_TCP_SIGNAL_ESTABLISHED;
    1df2:	f44f 7380 	mov.w	r3, #256	; 0x100
    1df6:	9304      	str	r3, [sp, #16]
        case TCPIP_TCP_STATE_FIN_WAIT_1:
        case TCPIP_TCP_STATE_FIN_WAIT_2:
        case TCPIP_TCP_STATE_CLOSE_WAIT:
        case TCPIP_TCP_STATE_CLOSING:
            // Calculate what the highest possible SEQ number in our TX FIFO is
            wTemp = pSkt->txHead - pSkt->txUnackedTail;
    1df8:	f8da c008 	ldr.w	ip, [sl, #8]
    1dfc:	f8da 3010 	ldr.w	r3, [sl, #16]
            if((int32_t)wTemp < 0)
    1e00:	ebbc 0003 	subs.w	r0, ip, r3
    1e04:	d41e      	bmi.n	1e44 <TCPIP_TCP_Task+0x4c4>
            {
                wTemp += pSkt->txEnd - pSkt->txStart;
            }
            dwTemp = pSkt->MySEQ + wTemp;
    1e06:	f8da 104c 	ldr.w	r1, [sl, #76]	; 0x4c

            // Drop the packet if it ACKs something we haven't sent
            dwTemp = localAckNumber - dwTemp;
    1e0a:	1a7a      	subs	r2, r7, r1
    1e0c:	1a12      	subs	r2, r2, r0
            if((int32_t)dwTemp > 0)
    1e0e:	2a00      	cmp	r2, #0
    1e10:	dd28      	ble.n	1e64 <TCPIP_TCP_Task+0x4e4>
            {   // acknowledged more than we've sent??
                if(!pSkt->flags.bFINSent || pSkt->flags.seqInc || dwTemp != 1)
    1e12:	f8ba 006c 	ldrh.w	r0, [sl, #108]	; 0x6c
    1e16:	f400 7001 	and.w	r0, r0, #516	; 0x204
    1e1a:	2804      	cmp	r0, #4
    1e1c:	d101      	bne.n	1e22 <TCPIP_TCP_Task+0x4a2>
    1e1e:	2a01      	cmp	r2, #1
    1e20:	d017      	beq.n	1e52 <TCPIP_TCP_Task+0x4d2>
                {
                    _TcpSend(pSkt, ACK, 0);
    1e22:	2200      	movs	r2, #0
    1e24:	2110      	movs	r1, #16
    1e26:	4650      	mov	r0, sl
    1e28:	f005 fefc 	bl	7c24 <_TcpSend>
                    return;
    1e2c:	e70d      	b.n	1c4a <TCPIP_TCP_Task+0x2ca>
                pSkt->MySEQ = localAckNumber;	// Set SEQ = SEG.ACK
    1e2e:	f8ca 704c 	str.w	r7, [sl, #76]	; 0x4c
                _TcpSend(pSkt, RST, SENDTCP_RESET_TIMERS);		// Send the RST
    1e32:	2201      	movs	r2, #1
    1e34:	2104      	movs	r1, #4
    1e36:	4650      	mov	r0, sl
    1e38:	f005 fef4 	bl	7c24 <_TcpSend>
                pSkt->MySEQ = localSeqNumber;	// Restore original SEQ number
    1e3c:	9b08      	ldr	r3, [sp, #32]
    1e3e:	f8ca 304c 	str.w	r3, [sl, #76]	; 0x4c
                return;
    1e42:	e702      	b.n	1c4a <TCPIP_TCP_Task+0x2ca>
                wTemp += pSkt->txEnd - pSkt->txStart;
    1e44:	f8da 1004 	ldr.w	r1, [sl, #4]
    1e48:	f8da 2000 	ldr.w	r2, [sl]
    1e4c:	1a89      	subs	r1, r1, r2
    1e4e:	4408      	add	r0, r1
    1e50:	e7d9      	b.n	1e06 <TCPIP_TCP_Task+0x486>
                }
                else
                {
                    pSkt->MySEQ++;      // since we didn't count the FIN
    1e52:	3101      	adds	r1, #1
    1e54:	f8ca 104c 	str.w	r1, [sl, #76]	; 0x4c
                    pSkt->flags.seqInc = 1;
    1e58:	f89a 206d 	ldrb.w	r2, [sl, #109]	; 0x6d
    1e5c:	f042 0202 	orr.w	r2, r2, #2
    1e60:	f88a 206d 	strb.w	r2, [sl, #109]	; 0x6d
                }
            }

            // Throw away all ACKnowledged TX data:
            // Calculate what the last acknowledged sequence number was (ignoring any FINs we sent)
            dwTemp = pSkt->MySEQ - (uint32_t)(pSkt->txUnackedTail - pSkt->txTail);
    1e64:	f8da 204c 	ldr.w	r2, [sl, #76]	; 0x4c
    1e68:	9209      	str	r2, [sp, #36]	; 0x24
    1e6a:	f8da 100c 	ldr.w	r1, [sl, #12]
    1e6e:	9108      	str	r1, [sp, #32]
    1e70:	eba3 0e01 	sub.w	lr, r3, r1
            if(pSkt->txUnackedTail < pSkt->txTail)
    1e74:	428b      	cmp	r3, r1
    1e76:	d22f      	bcs.n	1ed8 <TCPIP_TCP_Task+0x558>
            {
                dwTemp -= pSkt->txEnd - pSkt->txStart;
    1e78:	f8da 0004 	ldr.w	r0, [sl, #4]
    1e7c:	f8da 1000 	ldr.w	r1, [sl]
    1e80:	1a41      	subs	r1, r0, r1
            }

            // Calcluate how many bytes were ACKed with this packet
            dwTemp = localAckNumber - dwTemp;
    1e82:	1ab8      	subs	r0, r7, r2
    1e84:	4470      	add	r0, lr
    1e86:	4408      	add	r0, r1
            if(((int32_t)(dwTemp) > 0) && (dwTemp <= pSkt->txEnd - pSkt->txStart))
    1e88:	2800      	cmp	r0, #0
    1e8a:	dd38      	ble.n	1efe <TCPIP_TCP_Task+0x57e>
    1e8c:	f8da 2004 	ldr.w	r2, [sl, #4]
    1e90:	920a      	str	r2, [sp, #40]	; 0x28
    1e92:	f8da 1000 	ldr.w	r1, [sl]
    1e96:	1a52      	subs	r2, r2, r1
    1e98:	920b      	str	r2, [sp, #44]	; 0x2c
    1e9a:	4290      	cmp	r0, r2
    1e9c:	d82c      	bhi.n	1ef8 <TCPIP_TCP_Task+0x578>
            {
                pSkt->flags.bRXNoneACKed1 = 0;
    1e9e:	f89a 106c 	ldrb.w	r1, [sl, #108]	; 0x6c
                pSkt->flags.bRXNoneACKed2 = 0;
    1ea2:	f001 01ef 	and.w	r1, r1, #239	; 0xef
    1ea6:	f36f 1145 	bfc	r1, #5, #1
    1eaa:	f88a 106c 	strb.w	r1, [sl, #108]	; 0x6c
                pSkt->Flags.bHalfFullFlush = false;
    1eae:	f89a 1036 	ldrb.w	r1, [sl, #54]	; 0x36
    1eb2:	f36f 1145 	bfc	r1, #5, #1
    1eb6:	f88a 1036 	strb.w	r1, [sl, #54]	; 0x36

                // Bytes ACKed, free up the TX FIFO space
                ptrTemp = pSkt->txTail;
                pSkt->txTail += dwTemp;
    1eba:	9a08      	ldr	r2, [sp, #32]
    1ebc:	4402      	add	r2, r0
    1ebe:	f8ca 200c 	str.w	r2, [sl, #12]
                        pSkt->txUnackedTail = pSkt->txTail;
                    }
                }
                else
                {
                    ptrTemp = pSkt->txUnackedTail + (pSkt->txEnd - pSkt->txStart);
    1ec2:	990b      	ldr	r1, [sp, #44]	; 0x2c
    1ec4:	440b      	add	r3, r1
                    if(ptrTemp < pSkt->txTail)
    1ec6:	4293      	cmp	r3, r2
    1ec8:	f0c0 80ff 	bcc.w	20ca <__ext_attr_.config_00804000+0xc6>
                    {
                        pSkt->MySEQ += pSkt->txTail - ptrTemp;
                        pSkt->txUnackedTail = pSkt->txTail;
                    }
                }
                if(pSkt->txTail >= pSkt->txEnd)
    1ecc:	9b0a      	ldr	r3, [sp, #40]	; 0x28
    1ece:	429a      	cmp	r2, r3
    1ed0:	f0c0 8455 	bcc.w	277e <__ext_attr_.config_00804000+0x77a>
    1ed4:	f000 bc4f 	b.w	2776 <__ext_attr_.config_00804000+0x772>
            dwTemp = localAckNumber - dwTemp;
    1ed8:	9909      	ldr	r1, [sp, #36]	; 0x24
    1eda:	1a78      	subs	r0, r7, r1
    1edc:	4470      	add	r0, lr
            if(((int32_t)(dwTemp) > 0) && (dwTemp <= pSkt->txEnd - pSkt->txStart))
    1ede:	2800      	cmp	r0, #0
    1ee0:	dd0a      	ble.n	1ef8 <TCPIP_TCP_Task+0x578>
    1ee2:	f8da 1004 	ldr.w	r1, [sl, #4]
    1ee6:	460a      	mov	r2, r1
    1ee8:	910a      	str	r1, [sp, #40]	; 0x28
    1eea:	f8da 1000 	ldr.w	r1, [sl]
    1eee:	1a52      	subs	r2, r2, r1
    1ef0:	920b      	str	r2, [sp, #44]	; 0x2c
    1ef2:	4290      	cmp	r0, r2
    1ef4:	f240 8420 	bls.w	2738 <__ext_attr_.config_00804000+0x734>
                }
            }
            else
            {   // no acknowledge
                // See if we have outstanding TX data that is waiting for an ACK
                if(pSkt->txTail != pSkt->txUnackedTail)
    1ef8:	9a08      	ldr	r2, [sp, #32]
    1efa:	4293      	cmp	r3, r2
    1efc:	d02c      	beq.n	1f58 <TCPIP_TCP_Task+0x5d8>
                {
                    if(pSkt->flags.bRXNoneACKed1)
    1efe:	f89a 106c 	ldrb.w	r1, [sl, #108]	; 0x6c
    1f02:	f011 0f10 	tst.w	r1, #16
    1f06:	d021      	beq.n	1f4c <TCPIP_TCP_Task+0x5cc>
                    {
                        if(pSkt->flags.bRXNoneACKed2)
    1f08:	f011 0f20 	tst.w	r1, #32
    1f0c:	d018      	beq.n	1f40 <TCPIP_TCP_Task+0x5c0>
            dwTemp = pSkt->MySEQ - (uint32_t)(pSkt->txUnackedTail - pSkt->txTail);
    1f0e:	9a09      	ldr	r2, [sp, #36]	; 0x24
    1f10:	eba2 010e 	sub.w	r1, r2, lr
                        {
                            // Set up to perform a fast retransmission
                            // Roll back unacknowledged TX tail pointer to cause retransmit to occur
                            pSkt->MySEQ -= (pSkt->txUnackedTail - pSkt->txTail);
    1f14:	f8ca 104c 	str.w	r1, [sl, #76]	; 0x4c
                            if(pSkt->txUnackedTail < pSkt->txTail)
    1f18:	9a08      	ldr	r2, [sp, #32]
    1f1a:	4293      	cmp	r3, r2
    1f1c:	d207      	bcs.n	1f2e <TCPIP_TCP_Task+0x5ae>
                            {
                                pSkt->MySEQ -= (pSkt->txEnd - pSkt->txStart);
    1f1e:	f8da 3004 	ldr.w	r3, [sl, #4]
    1f22:	f8da 0000 	ldr.w	r0, [sl]
    1f26:	1a1b      	subs	r3, r3, r0
    1f28:	1acb      	subs	r3, r1, r3
    1f2a:	f8ca 304c 	str.w	r3, [sl, #76]	; 0x4c
                            }
                            pSkt->txUnackedTail = pSkt->txTail;
    1f2e:	9b08      	ldr	r3, [sp, #32]
    1f30:	f8ca 3010 	str.w	r3, [sl, #16]
                            pSkt->Flags.bTXASAPWithoutTimerReset = 1;
    1f34:	f89a 3036 	ldrb.w	r3, [sl, #54]	; 0x36
    1f38:	f043 0380 	orr.w	r3, r3, #128	; 0x80
    1f3c:	f88a 3036 	strb.w	r3, [sl, #54]	; 0x36
                        }
                        pSkt->flags.bRXNoneACKed2 = 1;
    1f40:	f89a 306c 	ldrb.w	r3, [sl, #108]	; 0x6c
    1f44:	f043 0320 	orr.w	r3, r3, #32
    1f48:	f88a 306c 	strb.w	r3, [sl, #108]	; 0x6c
                    }
                    pSkt->flags.bRXNoneACKed1 = 1;
    1f4c:	f89a 306c 	ldrb.w	r3, [sl, #108]	; 0x6c
    1f50:	f043 0310 	orr.w	r3, r3, #16
    1f54:	f88a 306c 	strb.w	r3, [sl, #108]	; 0x6c
                }
            }

            // No need to keep our retransmit timer going if we have nothing that needs ACKing anymore
            if(pSkt->txTail == pSkt->txHead)
    1f58:	f8da 300c 	ldr.w	r3, [sl, #12]
    1f5c:	459c      	cmp	ip, r3
    1f5e:	f000 80bc 	beq.w	20da <__ext_attr_.config_00804000+0xd6>
                    }
                }
            }

            // update the max window
            if(h->Window > pSkt->maxRemoteWindow)
    1f62:	f8b8 300e 	ldrh.w	r3, [r8, #14]
    1f66:	f8ba 2066 	ldrh.w	r2, [sl, #102]	; 0x66
    1f6a:	429a      	cmp	r2, r3
            {
                pSkt->maxRemoteWindow = h->Window;
    1f6c:	bf38      	it	cc
    1f6e:	f8aa 3066 	strhcc.w	r3, [sl, #102]	; 0x66
            }
            // The window size advertised in this packet is adjusted to account 
            // for any bytes that we have transmitted but haven't been ACKed yet 
            // by this segment.
            wNewWindow = h->Window - ((uint16_t)(pSkt->MySEQ - localAckNumber));
    1f72:	f8da 204c 	ldr.w	r2, [sl, #76]	; 0x4c
    1f76:	f8b8 300e 	ldrh.w	r3, [r8, #14]
    1f7a:	443b      	add	r3, r7
    1f7c:	1a9b      	subs	r3, r3, r2
    1f7e:	b29b      	uxth	r3, r3

            // Update the local stored copy of the RemoteWindow.
            // If previously we had a zero window, and now we don't, then 
            // immediately send whatever was pending.
            if((pSkt->remoteWindow == 0u) && wNewWindow)
    1f80:	f8ba 105c 	ldrh.w	r1, [sl, #92]	; 0x5c
    1f84:	b931      	cbnz	r1, 1f94 <TCPIP_TCP_Task+0x614>
    1f86:	b12b      	cbz	r3, 1f94 <TCPIP_TCP_Task+0x614>
            {
                pSkt->Flags.bTXASAP = 1;
    1f88:	f89a 1036 	ldrb.w	r1, [sl, #54]	; 0x36
    1f8c:	f041 0140 	orr.w	r1, r1, #64	; 0x40
    1f90:	f88a 1036 	strb.w	r1, [sl, #54]	; 0x36
            }
            pSkt->remoteWindow = wNewWindow;
    1f94:	f8aa 305c 	strh.w	r3, [sl, #92]	; 0x5c

            // A couple of states must do all of the TCPIP_TCP_STATE_ESTABLISHED stuff, but also a little more
            if(pSkt->smState == TCPIP_TCP_STATE_FIN_WAIT_1)
    1f98:	f89a 306e 	ldrb.w	r3, [sl, #110]	; 0x6e
    1f9c:	2b04      	cmp	r3, #4
    1f9e:	f000 80d7 	beq.w	2150 <__ext_attr_.config_00804000+0x14c>
                    // doesn't send us a FIN in a timely manner.
                    pSkt->closeWaitTime = SYS_TMR_TickCountGet() + (TCPIP_TCP_FIN_WAIT_2_TIMEOUT * SYS_TMR_TickCounterFrequencyGet())/1000;
                    _TcpSocketSetState(pSkt, TCPIP_TCP_STATE_FIN_WAIT_2);
                }
            }
            else if(pSkt->smState == TCPIP_TCP_STATE_CLOSING)
    1fa2:	2b06      	cmp	r3, #6
    1fa4:	f000 80f5 	beq.w	2192 <__ext_attr_.config_00804000+0x18e>
    //
    // Sixth: Check the URG bit
    //
    // Urgent packets are not supported in this stack, so we
    // will throw them away instead
    if(localHeaderFlags & URG)
    1fa8:	f014 0f20 	tst.w	r4, #32
    1fac:	f47f ae4d 	bne.w	1c4a <TCPIP_TCP_Task+0x2ca>

    //
    // Seventh: Process the segment text
    //
    // Throw data away if in a state that doesn't accept data
    if(pSkt->smState == TCPIP_TCP_STATE_CLOSE_WAIT || pSkt->smState == TCPIP_TCP_STATE_CLOSING || pSkt->smState == TCPIP_TCP_STATE_LAST_ACK)
    1fb0:	f89a 206e 	ldrb.w	r2, [sl, #110]	; 0x6e
    1fb4:	f1a2 0308 	sub.w	r3, r2, #8
    1fb8:	b2db      	uxtb	r3, r3
    1fba:	2b01      	cmp	r3, #1
    1fbc:	f67f ae45 	bls.w	1c4a <TCPIP_TCP_Task+0x2ca>
    1fc0:	2a06      	cmp	r2, #6
    1fc2:	f43f ae42 	beq.w	1c4a <TCPIP_TCP_Task+0x2ca>
    {
        return;
    }

    // Copy any valid segment data into our RX FIFO, if any
    if(len)
    1fc6:	9a06      	ldr	r2, [sp, #24]
    1fc8:	2a00      	cmp	r2, #0
    1fca:	d03d      	beq.n	2048 <__ext_attr_.config_00804000+0x44>
    {
        // See if there are bytes we must skip
        // wMissingBytes == 0: this new data is in sync with what we expect
        // wMissingBytes  < 0: this packet contains old data that needs to be skipped
        if(wMissingBytes <= 0)
    1fcc:	2d00      	cmp	r5, #0
    1fce:	f340 80f3 	ble.w	21b8 <__ext_attr_.config_00804000+0x1b4>
        } 
        else if(wMissingBytes > 0)
        {   // wMissingBytes  > 0: this packet contains ahead data
            // This packet is out of order or we lost a packet, see if we can generate a hole to accomodate it
            // Truncate packets that would overflow our TCP RX FIFO
            if(len + wMissingBytes > wFreeSpace)
    1fd2:	9b06      	ldr	r3, [sp, #24]
    1fd4:	442b      	add	r3, r5
    1fd6:	455b      	cmp	r3, fp
    1fd8:	dd04      	ble.n	1fe4 <TCPIP_TCP_Task+0x664>
            {
                len = wFreeSpace - wMissingBytes;
    1fda:	ebab 0b05 	sub.w	fp, fp, r5
    1fde:	fa1f f38b 	uxth.w	r3, fp
    1fe2:	9306      	str	r3, [sp, #24]
            }

            // Position packet read pointer to start of useful data area.
            pSegSrc = (uint8_t*)h + (h->DataOffset.Val << 2);
    1fe4:	f898 300c 	ldrb.w	r3, [r8, #12]
    1fe8:	091b      	lsrs	r3, r3, #4
    1fea:	eb08 0383 	add.w	r3, r8, r3, lsl #2
    1fee:	930c      	str	r3, [sp, #48]	; 0x30

            // See if we need a two part copy (spans rxEnd->rxStart)
            if(pSkt->rxHead + wMissingBytes + len > pSkt->rxEnd)
    1ff0:	f8da 101c 	ldr.w	r1, [sl, #28]
    1ff4:	f8da 3018 	ldr.w	r3, [sl, #24]
    1ff8:	9a06      	ldr	r2, [sp, #24]
    1ffa:	442a      	add	r2, r5
    1ffc:	440a      	add	r2, r1
    1ffe:	4293      	cmp	r3, r2
    2000:	f080 8169 	bcs.w	22d6 <__ext_attr_.config_00804000+0x2d2>
            {
                // Calculate number of data bytes to copy before wraparound
                wTemp = pSkt->rxEnd - pSkt->rxHead + 1 - wMissingBytes;
    2004:	1a5a      	subs	r2, r3, r1
    2006:	3201      	adds	r2, #1
                if((int32_t)wTemp >= 0)
    2008:	1b52      	subs	r2, r2, r5
    200a:	f100 8156 	bmi.w	22ba <__ext_attr_.config_00804000+0x2b6>
                {
                    nCopiedBytes = TCPIP_Helper_PacketCopy(pRxPkt, pSkt->rxHead + wMissingBytes, &pSegSrc, wTemp, true);
    200e:	fa1f f882 	uxth.w	r8, r2
    2012:	2401      	movs	r4, #1
    2014:	9400      	str	r4, [sp, #0]
    2016:	4643      	mov	r3, r8
    2018:	a80c      	add	r0, sp, #48	; 0x30
    201a:	4602      	mov	r2, r0
    201c:	4429      	add	r1, r5
    201e:	4648      	mov	r0, r9
    2020:	f017 fe5e 	bl	19ce0 <TCPIP_Helper_PacketCopy>
    2024:	4683      	mov	fp, r0
                    nCopiedBytes += TCPIP_Helper_PacketCopy(pRxPkt, pSkt->rxStart, &pSegSrc, len - wTemp, true);
    2026:	9a06      	ldr	r2, [sp, #24]
    2028:	eba2 0308 	sub.w	r3, r2, r8
    202c:	9400      	str	r4, [sp, #0]
    202e:	b29b      	uxth	r3, r3
    2030:	aa0c      	add	r2, sp, #48	; 0x30
    2032:	f8da 1014 	ldr.w	r1, [sl, #20]
    2036:	4648      	mov	r0, r9
    2038:	f017 fe52 	bl	19ce0 <TCPIP_Helper_PacketCopy>
    203c:	4458      	add	r0, fp
    203e:	b280      	uxth	r0, r0
            else
            {
                nCopiedBytes = TCPIP_Helper_PacketCopy(pRxPkt, pSkt->rxHead + wMissingBytes, &pSegSrc, len, true);
            }

            if(nCopiedBytes == len)
    2040:	9b06      	ldr	r3, [sp, #24]
    2042:	4283      	cmp	r3, r0
    2044:	f000 8150 	beq.w	22e8 <__ext_attr_.config_00804000+0x2e4>
    // Send back an ACK of the data (+SYN | FIN) we just received, 
    // if any.  To minimize bandwidth waste, we are implementing 
    // the delayed acknowledgement algorithm here, only sending 
    // back an immediate ACK if this is the second segment received.  
    // Otherwise, a 200ms timer will cause the ACK to be transmitted.
    if(wSegmentLength)
    2048:	9b05      	ldr	r3, [sp, #20]
    204a:	b1cb      	cbz	r3, 2080 <__ext_attr_.config_00804000+0x7c>
        // For non-established sockets, delete all data in 
        // the RX buffer immediately after receiving it.
        // That'll ensure that the RX window is nonzero and 
        // the remote node will be able to send a FIN response, 
        // which needs an RX window of at least 1.
        if(pSkt->smState != TCPIP_TCP_STATE_ESTABLISHED && pSkt->smState != TCPIP_TCP_STATE_FIN_WAIT_1 && pSkt->smState != TCPIP_TCP_STATE_FIN_WAIT_2)
    204c:	f89a 306e 	ldrb.w	r3, [sl, #110]	; 0x6e
    2050:	3b03      	subs	r3, #3
    2052:	b2db      	uxtb	r3, r3
    2054:	2b02      	cmp	r3, #2
        {
            pSkt->rxTail = pSkt->rxHead;
    2056:	bf84      	itt	hi
    2058:	f8da 301c 	ldrhi.w	r3, [sl, #28]
    205c:	f8ca 3020 	strhi.w	r3, [sl, #32]
        }

        if(pSkt->Flags.bOneSegmentReceived)
    2060:	f89a 3036 	ldrb.w	r3, [sl, #54]	; 0x36
    2064:	f013 0f10 	tst.w	r3, #16
    2068:	f040 816d 	bne.w	2346 <__ext_attr_.config_00804000+0x342>
            _TcpSend(pSkt, ACK, SENDTCP_RESET_TIMERS);
            // bOneSegmentReceived is cleared in _TcpSend(pSkt, ), so no need here
        }
        else
        {
            pSkt->Flags.bOneSegmentReceived = true;	
    206c:	f89a 3036 	ldrb.w	r3, [sl, #54]	; 0x36
    2070:	f043 0310 	orr.w	r3, r3, #16
    2074:	f88a 3036 	strb.w	r3, [sl, #54]	; 0x36

            // Do not send an ACK immediately back.  Instead, we will 
            // perform delayed acknowledgements.  To do this, we will 
            // just start a timer
            if(!pSkt->Flags.bDelayedACKTimerEnabled)
    2078:	f013 0f08 	tst.w	r3, #8
    207c:	f000 8169 	beq.w	2352 <__ext_attr_.config_00804000+0x34e>
    }

    //
    // Eighth: check the FIN bit
    //
    if(localHeaderFlags & FIN)
    2080:	9b07      	ldr	r3, [sp, #28]
    2082:	2b00      	cmp	r3, #0
    2084:	f43f ade1 	beq.w	1c4a <TCPIP_TCP_Task+0x2ca>
    {
        // Note: Since we don't have a good means of storing "FIN bytes" 
        // in our TCP RX FIFO, we must ensure that FINs are processed 
        // in-order.
        if(pSkt->RemoteSEQ + 1 == localSeqNumber + (uint32_t)wSegmentLength)
    2088:	f8da 3050 	ldr.w	r3, [sl, #80]	; 0x50
    208c:	3301      	adds	r3, #1
    208e:	9a05      	ldr	r2, [sp, #20]
    2090:	4432      	add	r2, r6
    2092:	4293      	cmp	r3, r2
    2094:	f47f add9 	bne.w	1c4a <TCPIP_TCP_Task+0x2ca>
        {
            // FINs are treated as one byte of data for ACK sequencing
            pSkt->RemoteSEQ++;
    2098:	f8ca 3050 	str.w	r3, [sl, #80]	; 0x50

            *pSktEvent |= TCPIP_TCP_SIGNAL_RX_FIN;
    209c:	9b04      	ldr	r3, [sp, #16]
    209e:	f443 6280 	orr.w	r2, r3, #1024	; 0x400
    20a2:	b293      	uxth	r3, r2
    20a4:	9304      	str	r3, [sp, #16]
            pSkt->Flags.bRxFin = 1;
    20a6:	f89a 3037 	ldrb.w	r3, [sl, #55]	; 0x37
    20aa:	f043 0304 	orr.w	r3, r3, #4
    20ae:	f88a 3037 	strb.w	r3, [sl, #55]	; 0x37
            switch(pSkt->smState)
    20b2:	f89a 306e 	ldrb.w	r3, [sl, #110]	; 0x6e
    20b6:	3b02      	subs	r3, #2
    20b8:	2b03      	cmp	r3, #3
    20ba:	f200 8178 	bhi.w	23ae <__ext_attr_.config_00804000+0x3aa>
    20be:	e8df f013 	tbh	[pc, r3, lsl #1]
    20c2:	015d      	.short	0x015d
    20c4:	016f0166 	.word	0x016f0166
    20c8:	0186      	.short	0x0186
                        pSkt->MySEQ += pSkt->txTail - ptrTemp;
    20ca:	1ad3      	subs	r3, r2, r3
    20cc:	9909      	ldr	r1, [sp, #36]	; 0x24
    20ce:	440b      	add	r3, r1
    20d0:	f8ca 304c 	str.w	r3, [sl, #76]	; 0x4c
                        pSkt->txUnackedTail = pSkt->txTail;
    20d4:	f8ca 2010 	str.w	r2, [sl, #16]
    20d8:	e34a      	b.n	2770 <__ext_attr_.config_00804000+0x76c>
                if(pSkt->Flags.bTXFIN == 0u)
    20da:	f89a 3037 	ldrb.w	r3, [sl, #55]	; 0x37
    20de:	f013 0f01 	tst.w	r3, #1
    20e2:	d11d      	bne.n	2120 <__ext_attr_.config_00804000+0x11c>
                    if(pSkt->Flags.keepAlive)
    20e4:	f013 0f40 	tst.w	r3, #64	; 0x40
    20e8:	d106      	bne.n	20f8 <__ext_attr_.config_00804000+0xf4>
                    pSkt->Flags.bTimerEnabled = 0;
    20ea:	f89a 3036 	ldrb.w	r3, [sl, #54]	; 0x36
    20ee:	f36f 0341 	bfc	r3, #1, #1
    20f2:	f88a 3036 	strb.w	r3, [sl, #54]	; 0x36
    20f6:	e734      	b.n	1f62 <TCPIP_TCP_Task+0x5e2>
                        pSkt->eventTime = SYS_TMR_TickCountGet() + (pSkt->keepAliveTmo * SYS_TMR_TickCounterFrequencyGet())/1000;
    20f8:	f01d fff8 	bl	200ec <SYS_TMR_TickCountGet>
    20fc:	9008      	str	r0, [sp, #32]
    20fe:	f8ba 3068 	ldrh.w	r3, [sl, #104]	; 0x68
    2102:	9309      	str	r3, [sp, #36]	; 0x24
    2104:	f01e f81a 	bl	2013c <SYS_TMR_TickCounterFrequencyGet>
    2108:	9b09      	ldr	r3, [sp, #36]	; 0x24
    210a:	fb00 f303 	mul.w	r3, r0, r3
    210e:	f44f 727a 	mov.w	r2, #1000	; 0x3e8
    2112:	fbb3 f3f2 	udiv	r3, r3, r2
    2116:	9a08      	ldr	r2, [sp, #32]
    2118:	4413      	add	r3, r2
    211a:	f8ca 3024 	str.w	r3, [sl, #36]	; 0x24
    211e:	e7e4      	b.n	20ea <__ext_attr_.config_00804000+0xe6>
                    if((pSkt->MySEQ == localAckNumber) && pSkt->flags.bFINSent)
    2120:	f8da 304c 	ldr.w	r3, [sl, #76]	; 0x4c
    2124:	429f      	cmp	r7, r3
    2126:	f47f af1c 	bne.w	1f62 <TCPIP_TCP_Task+0x5e2>
    212a:	f89a 306c 	ldrb.w	r3, [sl, #108]	; 0x6c
    212e:	f013 0f04 	tst.w	r3, #4
    2132:	f43f af16 	beq.w	1f62 <TCPIP_TCP_Task+0x5e2>
                        pSkt->Flags.bTimerEnabled = 0;
    2136:	f89a 3036 	ldrb.w	r3, [sl, #54]	; 0x36
    213a:	f36f 0341 	bfc	r3, #1, #1
    213e:	f88a 3036 	strb.w	r3, [sl, #54]	; 0x36
                        pSkt->Flags.bTXFIN = 0;
    2142:	f89a 3037 	ldrb.w	r3, [sl, #55]	; 0x37
    2146:	f36f 0300 	bfc	r3, #0, #1
    214a:	f88a 3037 	strb.w	r3, [sl, #55]	; 0x37
    214e:	e708      	b.n	1f62 <TCPIP_TCP_Task+0x5e2>
                if((pSkt->MySEQ == localAckNumber) && pSkt->flags.bFINSent)
    2150:	4297      	cmp	r7, r2
    2152:	d004      	beq.n	215e <__ext_attr_.config_00804000+0x15a>
    if(localHeaderFlags & URG)
    2154:	f014 0f20 	tst.w	r4, #32
    2158:	f43f af35 	beq.w	1fc6 <TCPIP_TCP_Task+0x646>
    215c:	e575      	b.n	1c4a <TCPIP_TCP_Task+0x2ca>
                if((pSkt->MySEQ == localAckNumber) && pSkt->flags.bFINSent)
    215e:	f89a 306c 	ldrb.w	r3, [sl, #108]	; 0x6c
    2162:	f013 0f04 	tst.w	r3, #4
    2166:	d0f5      	beq.n	2154 <__ext_attr_.config_00804000+0x150>
                    pSkt->closeWaitTime = SYS_TMR_TickCountGet() + (TCPIP_TCP_FIN_WAIT_2_TIMEOUT * SYS_TMR_TickCounterFrequencyGet())/1000;
    2168:	f01d ffc0 	bl	200ec <SYS_TMR_TickCountGet>
    216c:	9008      	str	r0, [sp, #32]
    216e:	f01d ffe5 	bl	2013c <SYS_TMR_TickCounterFrequencyGet>
    2172:	f241 3388 	movw	r3, #5000	; 0x1388
    2176:	fb03 f300 	mul.w	r3, r3, r0
    217a:	f44f 727a 	mov.w	r2, #1000	; 0x3e8
    217e:	fbb3 f3f2 	udiv	r3, r3, r2
    2182:	9a08      	ldr	r2, [sp, #32]
    2184:	4413      	add	r3, r2
    2186:	f8ca 3030 	str.w	r3, [sl, #48]	; 0x30
    pSkt->smState = newState;
    218a:	2305      	movs	r3, #5
    218c:	f88a 306e 	strb.w	r3, [sl, #110]	; 0x6e
    2190:	e7e0      	b.n	2154 <__ext_attr_.config_00804000+0x150>
                if(pSkt->MySEQ == localAckNumber)
    2192:	4297      	cmp	r7, r2
    2194:	f47f ad59 	bne.w	1c4a <TCPIP_TCP_Task+0x2ca>
                    _TcpCloseSocket(pSkt, 0);
    2198:	2100      	movs	r1, #0
    219a:	4650      	mov	r0, sl
    219c:	f00e fe16 	bl	10dcc <_TcpCloseSocket>
    21a0:	e553      	b.n	1c4a <TCPIP_TCP_Task+0x2ca>
            if(pSkt->MySEQ + 1 == localAckNumber)
    21a2:	f8da 304c 	ldr.w	r3, [sl, #76]	; 0x4c
    21a6:	3301      	adds	r3, #1
    21a8:	429f      	cmp	r7, r3
    21aa:	f47f ad4e 	bne.w	1c4a <TCPIP_TCP_Task+0x2ca>
                _TcpCloseSocket(pSkt, 0);
    21ae:	2100      	movs	r1, #0
    21b0:	4650      	mov	r0, sl
    21b2:	f00e fe0b 	bl	10dcc <_TcpCloseSocket>
    21b6:	e548      	b.n	1c4a <TCPIP_TCP_Task+0x2ca>
            pSegSrc = (uint8_t*)h + ((h->DataOffset.Val << 2) - wMissingBytes);
    21b8:	f898 300c 	ldrb.w	r3, [r8, #12]
    21bc:	091b      	lsrs	r3, r3, #4
    21be:	ebc5 0383 	rsb	r3, r5, r3, lsl #2
    21c2:	4443      	add	r3, r8
    21c4:	930c      	str	r3, [sp, #48]	; 0x30
            len += wMissingBytes;		
    21c6:	442a      	add	r2, r5
    21c8:	b293      	uxth	r3, r2
            if(len > wFreeSpace)
    21ca:	459b      	cmp	fp, r3
    21cc:	bf28      	it	cs
    21ce:	469b      	movcs	fp, r3
            if(pSkt->rxHead + len > pSkt->rxEnd)
    21d0:	f8da 101c 	ldr.w	r1, [sl, #28]
    21d4:	f8da 3018 	ldr.w	r3, [sl, #24]
    21d8:	eb01 020b 	add.w	r2, r1, fp
    21dc:	4293      	cmp	r3, r2
    21de:	d25c      	bcs.n	229a <__ext_attr_.config_00804000+0x296>
                wTemp = pSkt->rxEnd - pSkt->rxHead + 1;
    21e0:	1a5b      	subs	r3, r3, r1
    21e2:	f103 0801 	add.w	r8, r3, #1
                nCopiedBytes = TCPIP_Helper_PacketCopy(pRxPkt, pSkt->rxHead, &pSegSrc, wTemp, true);
    21e6:	fa1f f588 	uxth.w	r5, r8
    21ea:	2401      	movs	r4, #1
    21ec:	9400      	str	r4, [sp, #0]
    21ee:	462b      	mov	r3, r5
    21f0:	aa0c      	add	r2, sp, #48	; 0x30
    21f2:	4648      	mov	r0, r9
    21f4:	f017 fd74 	bl	19ce0 <TCPIP_Helper_PacketCopy>
    21f8:	9006      	str	r0, [sp, #24]
                nCopiedBytes += TCPIP_Helper_PacketCopy(pRxPkt, pSkt->rxStart, &pSegSrc, len - wTemp, true);
    21fa:	ebab 0305 	sub.w	r3, fp, r5
    21fe:	9400      	str	r4, [sp, #0]
    2200:	b29b      	uxth	r3, r3
    2202:	aa0c      	add	r2, sp, #48	; 0x30
    2204:	f8da 1014 	ldr.w	r1, [sl, #20]
    2208:	4648      	mov	r0, r9
    220a:	f017 fd69 	bl	19ce0 <TCPIP_Helper_PacketCopy>
    220e:	9b06      	ldr	r3, [sp, #24]
    2210:	4403      	add	r3, r0
    2212:	b298      	uxth	r0, r3
                newRxHead = pSkt->rxStart + (len - wTemp);
    2214:	ebab 0308 	sub.w	r3, fp, r8
    2218:	f8da 2014 	ldr.w	r2, [sl, #20]
    221c:	4413      	add	r3, r2
            if(nCopiedBytes == len)
    221e:	4558      	cmp	r0, fp
    2220:	f47f af12 	bne.w	2048 <__ext_attr_.config_00804000+0x44>
                pSkt->RemoteSEQ += (uint32_t)len;
    2224:	f8da 1050 	ldr.w	r1, [sl, #80]	; 0x50
    2228:	4459      	add	r1, fp
    222a:	f8ca 1050 	str.w	r1, [sl, #80]	; 0x50
                pSkt->rxHead = newRxHead;
    222e:	f8ca 301c 	str.w	r3, [sl, #28]
                if(pSkt->smState == TCPIP_TCP_STATE_ESTABLISHED || pSkt->smState == TCPIP_TCP_STATE_FIN_WAIT_1 || pSkt->smState == TCPIP_TCP_STATE_FIN_WAIT_2)
    2232:	f89a 206e 	ldrb.w	r2, [sl, #110]	; 0x6e
    2236:	3a03      	subs	r2, #3
    2238:	b2d2      	uxtb	r2, r2
    223a:	2a02      	cmp	r2, #2
    223c:	d804      	bhi.n	2248 <__ext_attr_.config_00804000+0x244>
                    *pSktEvent |= TCPIP_TCP_SIGNAL_RX_DATA;
    223e:	9a04      	ldr	r2, [sp, #16]
    2240:	f442 7200 	orr.w	r2, r2, #512	; 0x200
    2244:	b292      	uxth	r2, r2
    2246:	9204      	str	r2, [sp, #16]
                if(pSkt->sHoleSize != -1)
    2248:	f8da 2054 	ldr.w	r2, [sl, #84]	; 0x54
    224c:	f1b2 3fff 	cmp.w	r2, #4294967295
    2250:	f43f aefa 	beq.w	2048 <__ext_attr_.config_00804000+0x44>
                    pSkt->sHoleSize -= len;
    2254:	eba2 0b0b 	sub.w	fp, r2, fp
    2258:	f8ca b054 	str.w	fp, [sl, #84]	; 0x54
                    wTemp = pSkt->wFutureDataSize + pSkt->sHoleSize;
    225c:	f8ba 2060 	ldrh.w	r2, [sl, #96]	; 0x60
                    if((int32_t)wTemp < 0)
    2260:	eb12 020b 	adds.w	r2, r2, fp
    2264:	d424      	bmi.n	22b0 <__ext_attr_.config_00804000+0x2ac>
                    else if(pSkt->sHoleSize <= 0)
    2266:	f1bb 0f00 	cmp.w	fp, #0
    226a:	f73f aeed 	bgt.w	2048 <__ext_attr_.config_00804000+0x44>
                        pSkt->RemoteSEQ += wTemp;
    226e:	4411      	add	r1, r2
    2270:	f8ca 1050 	str.w	r1, [sl, #80]	; 0x50
                        pSkt->rxHead += wTemp;
    2274:	4413      	add	r3, r2
    2276:	f8ca 301c 	str.w	r3, [sl, #28]
                        if(pSkt->rxHead > pSkt->rxEnd)
    227a:	f8da 2018 	ldr.w	r2, [sl, #24]
    227e:	4293      	cmp	r3, r2
    2280:	d906      	bls.n	2290 <__ext_attr_.config_00804000+0x28c>
                            pSkt->rxHead -= pSkt->rxEnd - pSkt->rxStart + 1;							
    2282:	f8da 1014 	ldr.w	r1, [sl, #20]
    2286:	1a52      	subs	r2, r2, r1
    2288:	43d2      	mvns	r2, r2
    228a:	4413      	add	r3, r2
    228c:	f8ca 301c 	str.w	r3, [sl, #28]
                        pSkt->sHoleSize = -1;
    2290:	f04f 33ff 	mov.w	r3, #4294967295
    2294:	f8ca 3054 	str.w	r3, [sl, #84]	; 0x54
    2298:	e6d6      	b.n	2048 <__ext_attr_.config_00804000+0x44>
                nCopiedBytes = TCPIP_Helper_PacketCopy(pRxPkt, pSkt->rxHead, &pSegSrc, len, true);
    229a:	2301      	movs	r3, #1
    229c:	9300      	str	r3, [sp, #0]
    229e:	465b      	mov	r3, fp
    22a0:	aa0c      	add	r2, sp, #48	; 0x30
    22a2:	4648      	mov	r0, r9
    22a4:	f017 fd1c 	bl	19ce0 <TCPIP_Helper_PacketCopy>
                newRxHead = pSkt->rxHead + len;
    22a8:	f8da 301c 	ldr.w	r3, [sl, #28]
    22ac:	445b      	add	r3, fp
    22ae:	e7b6      	b.n	221e <__ext_attr_.config_00804000+0x21a>
                        pSkt->sHoleSize = -1;
    22b0:	f04f 33ff 	mov.w	r3, #4294967295
    22b4:	f8ca 3054 	str.w	r3, [sl, #84]	; 0x54
    22b8:	e6c6      	b.n	2048 <__ext_attr_.config_00804000+0x44>
                    nCopiedBytes = TCPIP_Helper_PacketCopy(pRxPkt, pSkt->rxHead + wMissingBytes - (pSkt->rxEnd - pSkt->rxStart + 1), &pSegSrc, len, true);
    22ba:	1e68      	subs	r0, r5, #1
    22bc:	f8da 2014 	ldr.w	r2, [sl, #20]
    22c0:	1a9b      	subs	r3, r3, r2
    22c2:	1ac0      	subs	r0, r0, r3
    22c4:	2301      	movs	r3, #1
    22c6:	9300      	str	r3, [sp, #0]
    22c8:	9b06      	ldr	r3, [sp, #24]
    22ca:	aa0c      	add	r2, sp, #48	; 0x30
    22cc:	4401      	add	r1, r0
    22ce:	4648      	mov	r0, r9
    22d0:	f017 fd06 	bl	19ce0 <TCPIP_Helper_PacketCopy>
    22d4:	e6b4      	b.n	2040 <__ext_attr_.config_00804000+0x3c>
                nCopiedBytes = TCPIP_Helper_PacketCopy(pRxPkt, pSkt->rxHead + wMissingBytes, &pSegSrc, len, true);
    22d6:	2301      	movs	r3, #1
    22d8:	9300      	str	r3, [sp, #0]
    22da:	9b06      	ldr	r3, [sp, #24]
    22dc:	aa0c      	add	r2, sp, #48	; 0x30
    22de:	4429      	add	r1, r5
    22e0:	4648      	mov	r0, r9
    22e2:	f017 fcfd 	bl	19ce0 <TCPIP_Helper_PacketCopy>
    22e6:	e6ab      	b.n	2040 <__ext_attr_.config_00804000+0x3c>
                if(pSkt->sHoleSize == -1)
    22e8:	f8da 3054 	ldr.w	r3, [sl, #84]	; 0x54
    22ec:	f1b3 3fff 	cmp.w	r3, #4294967295
    22f0:	d013      	beq.n	231a <__ext_attr_.config_00804000+0x316>
                    if(wMissingBytes < (uint32_t)pSkt->sHoleSize)
    22f2:	429d      	cmp	r5, r3
    22f4:	d217      	bcs.n	2326 <__ext_attr_.config_00804000+0x322>
                        if((wMissingBytes + len > (uint32_t)pSkt->sHoleSize + pSkt->wFutureDataSize) || (wMissingBytes + len < (uint32_t)pSkt->sHoleSize))
    22f6:	9a06      	ldr	r2, [sp, #24]
    22f8:	1951      	adds	r1, r2, r5
    22fa:	f8ba 2060 	ldrh.w	r2, [sl, #96]	; 0x60
    22fe:	18d0      	adds	r0, r2, r3
    2300:	4281      	cmp	r1, r0
    2302:	d804      	bhi.n	230e <__ext_attr_.config_00804000+0x30a>
    2304:	428b      	cmp	r3, r1
    2306:	d802      	bhi.n	230e <__ext_attr_.config_00804000+0x30a>
                            pSkt->wFutureDataSize = (uint32_t)pSkt->sHoleSize + pSkt->wFutureDataSize - wMissingBytes;
    2308:	1b43      	subs	r3, r0, r5
    230a:	b29b      	uxth	r3, r3
    230c:	9306      	str	r3, [sp, #24]
    230e:	9b06      	ldr	r3, [sp, #24]
    2310:	f8aa 3060 	strh.w	r3, [sl, #96]	; 0x60
                        pSkt->sHoleSize = wMissingBytes;
    2314:	f8ca 5054 	str.w	r5, [sl, #84]	; 0x54
    2318:	e696      	b.n	2048 <__ext_attr_.config_00804000+0x44>
                    pSkt->sHoleSize = wMissingBytes;
    231a:	f8ca 5054 	str.w	r5, [sl, #84]	; 0x54
                    pSkt->wFutureDataSize = len;
    231e:	9b06      	ldr	r3, [sp, #24]
    2320:	f8aa 3060 	strh.w	r3, [sl, #96]	; 0x60
    2324:	e690      	b.n	2048 <__ext_attr_.config_00804000+0x44>
                    else if(wMissingBytes + len > (uint32_t)pSkt->sHoleSize + pSkt->wFutureDataSize)
    2326:	f8ba 2060 	ldrh.w	r2, [sl, #96]	; 0x60
    232a:	441a      	add	r2, r3
    232c:	9806      	ldr	r0, [sp, #24]
    232e:	1941      	adds	r1, r0, r5
    2330:	4291      	cmp	r1, r2
    2332:	f67f ae89 	bls.w	2048 <__ext_attr_.config_00804000+0x44>
                        if(wMissingBytes <= (uint32_t)pSkt->sHoleSize + pSkt->wFutureDataSize)
    2336:	4295      	cmp	r5, r2
    2338:	f63f ae86 	bhi.w	2048 <__ext_attr_.config_00804000+0x44>
                            pSkt->wFutureDataSize += wMissingBytes + len - (uint32_t)pSkt->sHoleSize - pSkt->wFutureDataSize;
    233c:	1aeb      	subs	r3, r5, r3
    233e:	4418      	add	r0, r3
    2340:	f8aa 0060 	strh.w	r0, [sl, #96]	; 0x60
    2344:	e680      	b.n	2048 <__ext_attr_.config_00804000+0x44>
            _TcpSend(pSkt, ACK, SENDTCP_RESET_TIMERS);
    2346:	2201      	movs	r2, #1
    2348:	2110      	movs	r1, #16
    234a:	4650      	mov	r0, sl
    234c:	f005 fc6a 	bl	7c24 <_TcpSend>
    2350:	e696      	b.n	2080 <__ext_attr_.config_00804000+0x7c>
                pSkt->Flags.bDelayedACKTimerEnabled = 1;
    2352:	b2db      	uxtb	r3, r3
    2354:	f043 0308 	orr.w	r3, r3, #8
    2358:	f88a 3036 	strb.w	r3, [sl, #54]	; 0x36
                pSkt->delayedACKTime = SYS_TMR_TickCountGet() + (TCPIP_TCP_DELAYED_ACK_TIMEOUT * SYS_TMR_TickCounterFrequencyGet())/1000;
    235c:	f01d fec6 	bl	200ec <SYS_TMR_TickCountGet>
    2360:	4604      	mov	r4, r0
    2362:	f01d feeb 	bl	2013c <SYS_TMR_TickCounterFrequencyGet>
    2366:	2364      	movs	r3, #100	; 0x64
    2368:	fb03 f300 	mul.w	r3, r3, r0
    236c:	f44f 727a 	mov.w	r2, #1000	; 0x3e8
    2370:	fbb3 f3f2 	udiv	r3, r3, r2
    2374:	441c      	add	r4, r3
    2376:	f8ca 402c 	str.w	r4, [sl, #44]	; 0x2c
    237a:	e681      	b.n	2080 <__ext_attr_.config_00804000+0x7c>
    pSkt->smState = newState;
    237c:	2309      	movs	r3, #9
    237e:	f88a 306e 	strb.w	r3, [sl, #110]	; 0x6e
                    // to explicitly close a socket that never really 
                    // got opened fully in the first place, so just 
                    // transmit a FIN automatically and jump to 
                    // TCPIP_TCP_STATE_LAST_ACK
                    _TcpSocketSetState(pSkt, TCPIP_TCP_STATE_LAST_ACK);
                    _TcpSend(pSkt, FIN | ACK, SENDTCP_RESET_TIMERS);
    2382:	2201      	movs	r2, #1
    2384:	2111      	movs	r1, #17
    2386:	4650      	mov	r0, sl
    2388:	f005 fc4c 	bl	7c24 <_TcpSend>
                    return;
    238c:	e45d      	b.n	1c4a <TCPIP_TCP_Task+0x2ca>
    pSkt->smState = newState;
    238e:	2308      	movs	r3, #8
    2390:	f88a 306e 	strb.w	r3, [sl, #110]	; 0x6e
                    // remote node sends a FIN, a timer is started so 
                    // that the socket will eventually be closed automatically
                    pSkt->closeWaitTime = SYS_TMR_TickCountGet() + (TCPIP_TCP_CLOSE_WAIT_TIMEOUT * SYS_TMR_TickCounterFrequencyGet())/1000;
#endif  // (TCPIP_TCP_CLOSE_WAIT_TIMEOUT != 0)

                    if(pSkt->flags.ackSent)
    2394:	f89a 306d 	ldrb.w	r3, [sl, #109]	; 0x6d
    2398:	f013 0f01 	tst.w	r3, #1
    239c:	d007      	beq.n	23ae <__ext_attr_.config_00804000+0x3aa>
    239e:	e454      	b.n	1c4a <TCPIP_TCP_Task+0x2ca>
                    }

                    break;

                case TCPIP_TCP_STATE_FIN_WAIT_1:
                    if(pSkt->MySEQ == localAckNumber)
    23a0:	f8da 304c 	ldr.w	r3, [sl, #76]	; 0x4c
    23a4:	429f      	cmp	r7, r3
    23a6:	d008      	beq.n	23ba <__ext_attr_.config_00804000+0x3b6>
    pSkt->smState = newState;
    23a8:	2306      	movs	r3, #6
    23aa:	f88a 306e 	strb.w	r3, [sl, #110]	; 0x6e
                default:    // case TCPIP_TCP_STATE_TIME_WAIT: reacknowledge
                    break;
            }

            // Acknowledge receipt of FIN
            _TcpSend(pSkt, ACK, SENDTCP_RESET_TIMERS);
    23ae:	2201      	movs	r2, #1
    23b0:	2110      	movs	r1, #16
    23b2:	4650      	mov	r0, sl
    23b4:	f005 fc36 	bl	7c24 <_TcpSend>
    23b8:	e447      	b.n	1c4a <TCPIP_TCP_Task+0x2ca>
                        _TcpSend(pSkt, ACK, 0);
    23ba:	2200      	movs	r2, #0
    23bc:	2110      	movs	r1, #16
    23be:	4650      	mov	r0, sl
    23c0:	f005 fc30 	bl	7c24 <_TcpSend>
                        _TcpCloseSocket(pSkt, 0);
    23c4:	2100      	movs	r1, #0
    23c6:	4650      	mov	r0, sl
    23c8:	f00e fd00 	bl	10dcc <_TcpCloseSocket>
                        return;
    23cc:	e43d      	b.n	1c4a <TCPIP_TCP_Task+0x2ca>
                    _TcpSend(pSkt, ACK, 0);
    23ce:	2200      	movs	r2, #0
    23d0:	2110      	movs	r1, #16
    23d2:	4650      	mov	r0, sl
    23d4:	f005 fc26 	bl	7c24 <_TcpSend>
                    _TcpCloseSocket(pSkt, 0);
    23d8:	2100      	movs	r1, #0
    23da:	4650      	mov	r0, sl
    23dc:	f00e fcf6 	bl	10dcc <_TcpCloseSocket>
                    return;
    23e0:	e433      	b.n	1c4a <TCPIP_TCP_Task+0x2ca>
                ackRes = TCPIP_MAC_PKT_ACK_STRUCT_ERR;
    23e2:	f06f 010d 	mvn.w	r1, #13
            TCPIP_PKT_PacketAcknowledge(pRxPkt, ackRes);
    23e6:	220a      	movs	r2, #10
    23e8:	4648      	mov	r0, r9
    23ea:	f01b fc03 	bl	1dbf4 <_TCPIP_PKT_PacketAcknowledge>
    while((pRxPkt = _TCPIPStackModuleRxExtract(TCPIP_THIS_MODULE_ID)) != 0)
    23ee:	200a      	movs	r0, #10
    23f0:	f01d faac 	bl	1f94c <_TCPIPStackModuleRxExtract>
    23f4:	4681      	mov	r9, r0
    23f6:	2800      	cmp	r0, #0
    23f8:	f43f aace 	beq.w	1998 <TCPIP_TCP_Task+0x18>
        uint16_t tcpTotLength = pRxPkt->totTransportLen;
    23fc:	f8b9 5020 	ldrh.w	r5, [r9, #32]
        if(tcpTotLength < sizeof(TCP_HEADER))
    2400:	2d13      	cmp	r5, #19
    2402:	d9ee      	bls.n	23e2 <__ext_attr_.config_00804000+0x3de>
        TCP_HEADER* pHdr = (TCP_HEADER*)pRxPkt->pTransportLayer;
    2404:	f8d9 801c 	ldr.w	r8, [r9, #28]
        uint8_t optionsField = pHdr->DataOffset.Val;
    2408:	f898 300c 	ldrb.w	r3, [r8, #12]
    240c:	091b      	lsrs	r3, r3, #4
        if(optionsField < TCP_DATA_OFFSET_VAL_MIN)
    240e:	2b04      	cmp	r3, #4
    2410:	d90b      	bls.n	242a <__ext_attr_.config_00804000+0x426>
        if(tcpTotLength < optionsField << 2)
    2412:	ebb5 0f83 	cmp.w	r5, r3, lsl #2
    2416:	db0b      	blt.n	2430 <__ext_attr_.config_00804000+0x42c>
            else if((pRxPkt->pktFlags & TCPIP_MAC_PKT_FLAG_NET_TYPE) == TCPIP_MAC_PKT_FLAG_IPV4) 
    2418:	f8b9 3022 	ldrh.w	r3, [r9, #34]	; 0x22
    241c:	f413 7f00 	tst.w	r3, #512	; 0x200
    2420:	f43f aac2 	beq.w	19a8 <TCPIP_TCP_Task+0x28>
        ackRes = TCPIP_MAC_PKT_ACK_PROTO_DEST_ERR;
    2424:	f06f 010e 	mvn.w	r1, #14
    2428:	e7dd      	b.n	23e6 <__ext_attr_.config_00804000+0x3e2>
                ackRes = TCPIP_MAC_PKT_ACK_STRUCT_ERR;
    242a:	f06f 010d 	mvn.w	r1, #13
    242e:	e7da      	b.n	23e6 <__ext_attr_.config_00804000+0x3e2>
    2430:	f06f 010d 	mvn.w	r1, #13
    2434:	e7d7      	b.n	23e6 <__ext_attr_.config_00804000+0x3e2>
	for(hTCP = 0; hTCP < TcpSockets; hTCP++)
    2436:	4bbd      	ldr	r3, [pc, #756]	; (272c <__ext_attr_.config_00804000+0x728>)
    2438:	681b      	ldr	r3, [r3, #0]
    243a:	2b00      	cmp	r3, #0
    243c:	f43f aab1 	beq.w	19a2 <TCPIP_TCP_Task+0x22>
    2440:	2500      	movs	r5, #0
    2442:	462b      	mov	r3, r5
        pSkt = TCBStubs[hTCP];
    2444:	f8df 92e8 	ldr.w	r9, [pc, #744]	; 2730 <__ext_attr_.config_00804000+0x72c>
                        pSkt->retryInterval = ((TCPIP_TCP_START_TIMEOUT_VAL * SYS_TMR_TickCounterFrequencyGet())/1000) << (TCPIP_TCP_MAX_RETRIES-1);
    2448:	f8df a2e8 	ldr.w	sl, [pc, #744]	; 2734 <__ext_attr_.config_00804000+0x730>
	for(hTCP = 0; hTCP < TcpSockets; hTCP++)
    244c:	f8df 82dc 	ldr.w	r8, [pc, #732]	; 272c <__ext_attr_.config_00804000+0x728>
    2450:	e0de      	b.n	2610 <__ext_attr_.config_00804000+0x60c>
                if((int32_t)(SYS_TMR_TickCountGet() - pSkt->eventTime2) >= 0)
    2452:	f01d fe4b 	bl	200ec <SYS_TMR_TickCountGet>
    2456:	6aa3      	ldr	r3, [r4, #40]	; 0x28
    2458:	1ac0      	subs	r0, r0, r3
                    vFlags = ACK;
    245a:	2800      	cmp	r0, #0
    245c:	bfa8      	it	ge
    245e:	2610      	movge	r6, #16
    2460:	e0ed      	b.n	263e <__ext_attr_.config_00804000+0x63a>
                if((int32_t)(SYS_TMR_TickCountGet() - pSkt->delayedACKTime) >= 0)
    2462:	f01d fe43 	bl	200ec <SYS_TMR_TickCountGet>
    2466:	6ae3      	ldr	r3, [r4, #44]	; 0x2c
    2468:	1ac0      	subs	r0, r0, r3
    246a:	2800      	cmp	r0, #0
    246c:	f2c0 80ed 	blt.w	264a <__ext_attr_.config_00804000+0x646>
            if(pSkt->smState == TCPIP_TCP_STATE_FIN_WAIT_2)
    2470:	f894 306e 	ldrb.w	r3, [r4, #110]	; 0x6e
    2474:	2b05      	cmp	r3, #5
    2476:	f000 8199 	beq.w	27ac <__ext_attr_.config_00804000+0x7a8>
                    vFlags = ACK;
    247a:	2610      	movs	r6, #16
                _TcpSend(pSkt, vFlags, bRetransmit ? 0 : SENDTCP_RESET_TIMERS);
    247c:	f087 0201 	eor.w	r2, r7, #1
    2480:	4631      	mov	r1, r6
    2482:	4620      	mov	r0, r4
    2484:	f005 fbce 	bl	7c24 <_TcpSend>
    2488:	e0e7      	b.n	265a <__ext_attr_.config_00804000+0x656>
                if((int32_t)(SYS_TMR_TickCountGet() - pSkt->closeWaitTime) >= 0)
    248a:	f01d fe2f 	bl	200ec <SYS_TMR_TickCountGet>
    248e:	6b23      	ldr	r3, [r4, #48]	; 0x30
    2490:	1ac0      	subs	r0, r0, r3
    2492:	2800      	cmp	r0, #0
    2494:	f2c0 80de 	blt.w	2654 <__ext_attr_.config_00804000+0x650>
                    _TcpSend(pSkt, RST | ACK, SENDTCP_RESET_TIMERS);
    2498:	2201      	movs	r2, #1
    249a:	2114      	movs	r1, #20
    249c:	4620      	mov	r0, r4
    249e:	f005 fbc1 	bl	7c24 <_TcpSend>
                    _TcpCloseSocket(pSkt, 0);
    24a2:	2100      	movs	r1, #0
    24a4:	4620      	mov	r0, r4
    24a6:	f00e fc91 	bl	10dcc <_TcpCloseSocket>
                    continue;
    24aa:	e0a9      	b.n	2600 <__ext_attr_.config_00804000+0x5fc>
                            vFlags = pSkt->Flags.bServer;
    24ac:	f894 6036 	ldrb.w	r6, [r4, #54]	; 0x36
    24b0:	f006 0601 	and.w	r6, r6, #1
                            _TcpDisconnect(pSkt, true);
    24b4:	2101      	movs	r1, #1
    24b6:	4620      	mov	r0, r4
    24b8:	f014 fe1a 	bl	170f0 <_TcpDisconnect>
                            pSkt->Flags.bServer = 1;    // force client socket non-closing
    24bc:	f894 3036 	ldrb.w	r3, [r4, #54]	; 0x36
    24c0:	f043 0301 	orr.w	r3, r3, #1
    24c4:	f884 3036 	strb.w	r3, [r4, #54]	; 0x36
                            _TcpAbort(pSkt, _TCP_ABORT_FLAG_REGULAR, TCPIP_TCP_SIGNAL_KEEP_ALIVE_TMO);
    24c8:	f44f 5280 	mov.w	r2, #4096	; 0x1000
    24cc:	2100      	movs	r1, #0
    24ce:	4620      	mov	r0, r4
    24d0:	f019 ffa0 	bl	1c414 <_TcpAbort>
                            if(!vFlags)
    24d4:	2e00      	cmp	r6, #0
    24d6:	f040 8093 	bne.w	2600 <__ext_attr_.config_00804000+0x5fc>
                                pSkt->Flags.bServer = 0;    // restore the client socket
    24da:	f894 3036 	ldrb.w	r3, [r4, #54]	; 0x36
    24de:	f36f 0300 	bfc	r3, #0, #1
    24e2:	f884 3036 	strb.w	r3, [r4, #54]	; 0x36
    pSkt->smState = newState;
    24e6:	230a      	movs	r3, #10
    24e8:	f884 306e 	strb.w	r3, [r4, #110]	; 0x6e
    24ec:	e088      	b.n	2600 <__ext_attr_.config_00804000+0x5fc>
            if((int32_t)(SYS_TMR_TickCountGet() - pSkt->eventTime) < 0 )
    24ee:	f01d fdfd 	bl	200ec <SYS_TMR_TickCountGet>
    24f2:	6a63      	ldr	r3, [r4, #36]	; 0x24
    24f4:	1ac0      	subs	r0, r0, r3
    24f6:	2800      	cmp	r0, #0
    24f8:	f2c0 8082 	blt.w	2600 <__ext_attr_.config_00804000+0x5fc>
            switch(pSkt->smState)
    24fc:	f894 106e 	ldrb.w	r1, [r4, #110]	; 0x6e
    2500:	1e4b      	subs	r3, r1, #1
    2502:	2b08      	cmp	r3, #8
    2504:	d87a      	bhi.n	25fc <__ext_attr_.config_00804000+0x5f8>
    2506:	e8df f003 	tbb	[pc, r3]
    250a:	4205      	.short	0x4205
    250c:	69796156 	.word	0x69796156
    2510:	7979      	.short	0x7979
    2512:	71          	.byte	0x71
    2513:	00          	.byte	0x00
                    if(pSkt->retryCount >= (TCPIP_TCP_MAX_RETRIES - 1))
    2514:	f894 3070 	ldrb.w	r3, [r4, #112]	; 0x70
    2518:	2b03      	cmp	r3, #3
    251a:	d828      	bhi.n	256e <__ext_attr_.config_00804000+0x56a>
                    vFlags = SYN;
    251c:	2102      	movs	r1, #2
            bCloseSocket = false;
    251e:	2600      	movs	r6, #0
                    pSkt->retryCount++;
    2520:	f894 3070 	ldrb.w	r3, [r4, #112]	; 0x70
    2524:	3301      	adds	r3, #1
    2526:	f884 3070 	strb.w	r3, [r4, #112]	; 0x70
                    pSkt->retryInterval <<= 1;
    252a:	6ca3      	ldr	r3, [r4, #72]	; 0x48
    252c:	005b      	lsls	r3, r3, #1
    252e:	64a3      	str	r3, [r4, #72]	; 0x48
                    w = pSkt->txUnackedTail - pSkt->txTail;
    2530:	6920      	ldr	r0, [r4, #16]
    2532:	68e2      	ldr	r2, [r4, #12]
    2534:	1a83      	subs	r3, r0, r2
    2536:	b29b      	uxth	r3, r3
                    if(pSkt->txUnackedTail < pSkt->txTail)
    2538:	4290      	cmp	r0, r2
    253a:	d204      	bcs.n	2546 <__ext_attr_.config_00804000+0x542>
                        w += pSkt->txEnd - pSkt->txStart;
    253c:	6860      	ldr	r0, [r4, #4]
    253e:	6827      	ldr	r7, [r4, #0]
    2540:	1bc0      	subs	r0, r0, r7
    2542:	4403      	add	r3, r0
    2544:	b29b      	uxth	r3, r3
                    pSkt->MySEQ -= w;
    2546:	6ce0      	ldr	r0, [r4, #76]	; 0x4c
    2548:	1ac0      	subs	r0, r0, r3
    254a:	64e0      	str	r0, [r4, #76]	; 0x4c
                    pSkt->remoteWindow += w;
    254c:	f8b4 005c 	ldrh.w	r0, [r4, #92]	; 0x5c
    2550:	4403      	add	r3, r0
    2552:	f8a4 305c 	strh.w	r3, [r4, #92]	; 0x5c
                    pSkt->txUnackedTail = pSkt->txTail;		
    2556:	6122      	str	r2, [r4, #16]
                    _TcpSend(pSkt, vFlags, 0);
    2558:	2200      	movs	r2, #0
    255a:	4620      	mov	r0, r4
    255c:	f005 fb62 	bl	7c24 <_TcpSend>
            if(bCloseSocket)
    2560:	2e00      	cmp	r6, #0
    2562:	d04d      	beq.n	2600 <__ext_attr_.config_00804000+0x5fc>
                _TcpCloseSocket(pSkt, 0);
    2564:	2100      	movs	r1, #0
    2566:	4620      	mov	r0, r4
    2568:	f00e fc30 	bl	10dcc <_TcpCloseSocket>
    256c:	e048      	b.n	2600 <__ext_attr_.config_00804000+0x5fc>
                        pSkt->retryCount = TCPIP_TCP_MAX_RETRIES - 1;
    256e:	2304      	movs	r3, #4
    2570:	f884 3070 	strb.w	r3, [r4, #112]	; 0x70
                        pSkt->retryInterval = ((TCPIP_TCP_START_TIMEOUT_VAL * SYS_TMR_TickCounterFrequencyGet())/1000) << (TCPIP_TCP_MAX_RETRIES-1);
    2574:	f01d fde2 	bl	2013c <SYS_TMR_TickCounterFrequencyGet>
    2578:	f44f 737a 	mov.w	r3, #1000	; 0x3e8
    257c:	fb03 f300 	mul.w	r3, r3, r0
    2580:	fbaa 2303 	umull	r2, r3, sl, r3
    2584:	099b      	lsrs	r3, r3, #6
    2586:	011b      	lsls	r3, r3, #4
    2588:	64a3      	str	r3, [r4, #72]	; 0x48
                    vFlags = SYN;
    258a:	2102      	movs	r1, #2
    258c:	e7c7      	b.n	251e <__ext_attr_.config_00804000+0x51a>
                    if(pSkt->retryCount < TCPIP_TCP_MAX_SYN_RETRIES)
    258e:	f894 3070 	ldrb.w	r3, [r4, #112]	; 0x70
    2592:	2b02      	cmp	r3, #2
    2594:	f240 80c0 	bls.w	2718 <__ext_attr_.config_00804000+0x714>
                        if(pSkt->Flags.bServer)
    2598:	f894 6036 	ldrb.w	r6, [r4, #54]	; 0x36
            bCloseSocket = false;
    259c:	f006 0301 	and.w	r3, r6, #1
    25a0:	461e      	mov	r6, r3
    25a2:	2b00      	cmp	r3, #0
    25a4:	bf18      	it	ne
    25a6:	2114      	movne	r1, #20
                if(bRetransmit)
    25a8:	2f00      	cmp	r7, #0
    25aa:	d1b9      	bne.n	2520 <__ext_attr_.config_00804000+0x51c>
                    _TcpSend(pSkt, vFlags, SENDTCP_RESET_TIMERS);
    25ac:	2201      	movs	r2, #1
    25ae:	4620      	mov	r0, r4
    25b0:	f005 fb38 	bl	7c24 <_TcpSend>
    25b4:	e7d4      	b.n	2560 <__ext_attr_.config_00804000+0x55c>
                    if(pSkt->retryCount < TCPIP_TCP_MAX_RETRIES)
    25b6:	f894 3070 	ldrb.w	r3, [r4, #112]	; 0x70
    25ba:	2b04      	cmp	r3, #4
    25bc:	f240 80ae 	bls.w	271c <__ext_attr_.config_00804000+0x718>
    pSkt->smState = newState;
    25c0:	2304      	movs	r3, #4
    25c2:	f884 306e 	strb.w	r3, [r4, #110]	; 0x6e
                        vFlags = FIN | ACK;
    25c6:	2111      	movs	r1, #17
            bCloseSocket = false;
    25c8:	2600      	movs	r6, #0
    25ca:	e7ed      	b.n	25a8 <__ext_attr_.config_00804000+0x5a4>
                    if(pSkt->retryCount < TCPIP_TCP_MAX_RETRIES)
    25cc:	f894 3070 	ldrb.w	r3, [r4, #112]	; 0x70
    25d0:	2b04      	cmp	r3, #4
    25d2:	f240 80a5 	bls.w	2720 <__ext_attr_.config_00804000+0x71c>
                        vFlags = RST | ACK;
    25d6:	2114      	movs	r1, #20
                        bCloseSocket = true;
    25d8:	2601      	movs	r6, #1
    25da:	e7e5      	b.n	25a8 <__ext_attr_.config_00804000+0x5a4>
                    if(pSkt->retryCount < TCPIP_TCP_MAX_RETRIES)
    25dc:	f894 3070 	ldrb.w	r3, [r4, #112]	; 0x70
    25e0:	2b04      	cmp	r3, #4
    25e2:	f240 809f 	bls.w	2724 <__ext_attr_.config_00804000+0x720>
                        vFlags = RST | ACK;
    25e6:	2114      	movs	r1, #20
                        bCloseSocket = true;
    25e8:	2601      	movs	r6, #1
    25ea:	e7dd      	b.n	25a8 <__ext_attr_.config_00804000+0x5a4>
                    if(pSkt->retryCount < TCPIP_TCP_MAX_RETRIES)
    25ec:	f894 3070 	ldrb.w	r3, [r4, #112]	; 0x70
    25f0:	2b04      	cmp	r3, #4
    25f2:	f240 8099 	bls.w	2728 <__ext_attr_.config_00804000+0x724>
                        vFlags = RST | ACK;
    25f6:	2114      	movs	r1, #20
                        bCloseSocket = true;
    25f8:	2601      	movs	r6, #1
    25fa:	e7d5      	b.n	25a8 <__ext_attr_.config_00804000+0x5a4>
            if(vFlags)
    25fc:	2e00      	cmp	r6, #0
    25fe:	d15c      	bne.n	26ba <__ext_attr_.config_00804000+0x6b6>
    2600:	3501      	adds	r5, #1
    2602:	b22d      	sxth	r5, r5
	for(hTCP = 0; hTCP < TcpSockets; hTCP++)
    2604:	462b      	mov	r3, r5
    2606:	f8d8 2000 	ldr.w	r2, [r8]
    260a:	4295      	cmp	r5, r2
    260c:	f4bf a9c9 	bcs.w	19a2 <TCPIP_TCP_Task+0x22>
        pSkt = TCBStubs[hTCP];
    2610:	f8d9 2000 	ldr.w	r2, [r9]
    2614:	f852 4023 	ldr.w	r4, [r2, r3, lsl #2]
        if(pSkt != 0 && pSkt->smState != TCPIP_TCP_STATE_CLIENT_WAIT_CONNECT)
    2618:	2c00      	cmp	r4, #0
    261a:	d0f1      	beq.n	2600 <__ext_attr_.config_00804000+0x5fc>
    261c:	f894 306e 	ldrb.w	r3, [r4, #110]	; 0x6e
    2620:	2b0b      	cmp	r3, #11
    2622:	d0ed      	beq.n	2600 <__ext_attr_.config_00804000+0x5fc>
            if(pSkt->Flags.bTXASAP || pSkt->Flags.bTXASAPWithoutTimerReset)
    2624:	f894 3036 	ldrb.w	r3, [r4, #54]	; 0x36
    2628:	f013 06c0 	ands.w	r6, r3, #192	; 0xc0
                bRetransmit = pSkt->Flags.bTXASAPWithoutTimerReset;
    262c:	bf1d      	ittte	ne
    262e:	461f      	movne	r7, r3
    2630:	09df      	lsrne	r7, r3, #7
                vFlags = ACK;
    2632:	2610      	movne	r6, #16
            bRetransmit = false;
    2634:	2700      	moveq	r7, #0
            if(pSkt->Flags.bTimer2Enabled)
    2636:	f013 0f04 	tst.w	r3, #4
    263a:	f47f af0a 	bne.w	2452 <__ext_attr_.config_00804000+0x44e>
            if(pSkt->Flags.bDelayedACKTimerEnabled)
    263e:	f894 3036 	ldrb.w	r3, [r4, #54]	; 0x36
    2642:	f013 0f08 	tst.w	r3, #8
    2646:	f47f af0c 	bne.w	2462 <__ext_attr_.config_00804000+0x45e>
            if(pSkt->smState == TCPIP_TCP_STATE_FIN_WAIT_2)
    264a:	f894 306e 	ldrb.w	r3, [r4, #110]	; 0x6e
    264e:	2b05      	cmp	r3, #5
    2650:	f43f af1b 	beq.w	248a <__ext_attr_.config_00804000+0x486>
            if(vFlags)
    2654:	2e00      	cmp	r6, #0
    2656:	f47f af11 	bne.w	247c <__ext_attr_.config_00804000+0x478>
            if(!pSkt->Flags.bTimerEnabled)
    265a:	f894 3036 	ldrb.w	r3, [r4, #54]	; 0x36
    265e:	f013 0f02 	tst.w	r3, #2
    2662:	f47f af44 	bne.w	24ee <__ext_attr_.config_00804000+0x4ea>
                if(pSkt->Flags.keepAlive)
    2666:	f894 3037 	ldrb.w	r3, [r4, #55]	; 0x37
    266a:	f013 0f40 	tst.w	r3, #64	; 0x40
    266e:	d0c7      	beq.n	2600 <__ext_attr_.config_00804000+0x5fc>
                    if(pSkt->smState == TCPIP_TCP_STATE_ESTABLISHED)
    2670:	f894 306e 	ldrb.w	r3, [r4, #110]	; 0x6e
    2674:	2b03      	cmp	r3, #3
    2676:	d1c3      	bne.n	2600 <__ext_attr_.config_00804000+0x5fc>
                        if((int32_t)(SYS_TMR_TickCountGet() - pSkt->eventTime) < 0)
    2678:	f01d fd38 	bl	200ec <SYS_TMR_TickCountGet>
    267c:	6a63      	ldr	r3, [r4, #36]	; 0x24
    267e:	1ac0      	subs	r0, r0, r3
    2680:	2800      	cmp	r0, #0
    2682:	dbbd      	blt.n	2600 <__ext_attr_.config_00804000+0x5fc>
                        if(pSkt->keepAliveCount == pSkt->keepAliveLim)
    2684:	f894 2071 	ldrb.w	r2, [r4, #113]	; 0x71
    2688:	f894 307c 	ldrb.w	r3, [r4, #124]	; 0x7c
    268c:	429a      	cmp	r2, r3
    268e:	f43f af0d 	beq.w	24ac <__ext_attr_.config_00804000+0x4a8>
                        _TcpSend(pSkt, ACK, SENDTCP_KEEP_ALIVE);
    2692:	2202      	movs	r2, #2
    2694:	2110      	movs	r1, #16
    2696:	4620      	mov	r0, r4
    2698:	f005 fac4 	bl	7c24 <_TcpSend>
                        pSkt->eventTime = SYS_TMR_TickCountGet() + (pSkt->keepAliveTmo * SYS_TMR_TickCounterFrequencyGet())/1000;
    269c:	f01d fd26 	bl	200ec <SYS_TMR_TickCountGet>
    26a0:	4607      	mov	r7, r0
    26a2:	f8b4 6068 	ldrh.w	r6, [r4, #104]	; 0x68
    26a6:	f01d fd49 	bl	2013c <SYS_TMR_TickCounterFrequencyGet>
    26aa:	fb00 f006 	mul.w	r0, r0, r6
    26ae:	fbaa 3000 	umull	r3, r0, sl, r0
    26b2:	eb07 1090 	add.w	r0, r7, r0, lsr #6
    26b6:	6260      	str	r0, [r4, #36]	; 0x24
    26b8:	e7a2      	b.n	2600 <__ext_attr_.config_00804000+0x5fc>
            if(vFlags)
    26ba:	4631      	mov	r1, r6
            bCloseSocket = false;
    26bc:	2600      	movs	r6, #0
    26be:	e773      	b.n	25a8 <__ext_attr_.config_00804000+0x5a4>
        return TCPIP_MAC_PKT_ACK_CHKSUM_ERR;
    26c0:	f06f 0109 	mvn.w	r1, #9
    26c4:	e68f      	b.n	23e6 <__ext_attr_.config_00804000+0x3e2>
            ackRes = TCPIP_MAC_PKT_ACK_PROTO_DEST_ERR;
    26c6:	f06f 010e 	mvn.w	r1, #14
    26ca:	e68c      	b.n	23e6 <__ext_attr_.config_00804000+0x3e2>
    26cc:	f06f 010e 	mvn.w	r1, #14
    26d0:	e689      	b.n	23e6 <__ext_attr_.config_00804000+0x3e2>
        ackRes = TCPIP_MAC_PKT_ACK_RX_OK;
    26d2:	2102      	movs	r1, #2
    26d4:	e687      	b.n	23e6 <__ext_attr_.config_00804000+0x3e2>
    26d6:	2102      	movs	r1, #2
        if(ackRes != TCPIP_MAC_PKT_ACK_NONE)
    26d8:	e685      	b.n	23e6 <__ext_attr_.config_00804000+0x3e2>
            if(localHeaderFlags & SYN)
    26da:	f014 0f02 	tst.w	r4, #2
    26de:	f43f aab4 	beq.w	1c4a <TCPIP_TCP_Task+0x2ca>
                pSkt->RemoteSEQ = localSeqNumber + 1;
    26e2:	3601      	adds	r6, #1
    26e4:	f8ca 6050 	str.w	r6, [sl, #80]	; 0x50
                pSkt->remoteWindow = pSkt->maxRemoteWindow = h->Window;
    26e8:	f8b8 300e 	ldrh.w	r3, [r8, #14]
    26ec:	f8aa 3066 	strh.w	r3, [sl, #102]	; 0x66
    26f0:	f8aa 305c 	strh.w	r3, [sl, #92]	; 0x5c
                pSkt->wRemoteMSS = _GetMaxSegSizeOption(h);
    26f4:	4640      	mov	r0, r8
    26f6:	f014 f809 	bl	1670c <_GetMaxSegSizeOption>
    26fa:	f8aa 0062 	strh.w	r0, [sl, #98]	; 0x62
                _TCPSetHalfFlushFlag(pSkt);
    26fe:	4650      	mov	r0, sl
    2700:	f01b fbd8 	bl	1deb4 <_TCPSetHalfFlushFlag>
                    _TcpSend(pSkt, SYN | ACK, SENDTCP_RESET_TIMERS);
    2704:	2201      	movs	r2, #1
    2706:	2112      	movs	r1, #18
    2708:	4650      	mov	r0, sl
    270a:	f005 fa8b 	bl	7c24 <_TcpSend>
    pSkt->smState = newState;
    270e:	2302      	movs	r3, #2
    2710:	f88a 306e 	strb.w	r3, [sl, #110]	; 0x6e
    2714:	f7ff ba99 	b.w	1c4a <TCPIP_TCP_Task+0x2ca>
                        vFlags = SYN | ACK;
    2718:	2112      	movs	r1, #18
    271a:	e700      	b.n	251e <__ext_attr_.config_00804000+0x51a>
                        vFlags = ACK;
    271c:	2110      	movs	r1, #16
    271e:	e6fe      	b.n	251e <__ext_attr_.config_00804000+0x51a>
                        vFlags = FIN | ACK;
    2720:	2111      	movs	r1, #17
    2722:	e6fc      	b.n	251e <__ext_attr_.config_00804000+0x51a>
                        vFlags = ACK;
    2724:	2110      	movs	r1, #16
    2726:	e6fa      	b.n	251e <__ext_attr_.config_00804000+0x51a>
                        vFlags = FIN | ACK;
    2728:	2111      	movs	r1, #17
    272a:	e6f8      	b.n	251e <__ext_attr_.config_00804000+0x51a>
    272c:	2000e390 	.word	0x2000e390
    2730:	2000e38c 	.word	0x2000e38c
    2734:	10624dd3 	.word	0x10624dd3
                pSkt->flags.bRXNoneACKed1 = 0;
    2738:	f89a 106c 	ldrb.w	r1, [sl, #108]	; 0x6c
                pSkt->flags.bRXNoneACKed2 = 0;
    273c:	f001 01ef 	and.w	r1, r1, #239	; 0xef
    2740:	f36f 1145 	bfc	r1, #5, #1
    2744:	f88a 106c 	strb.w	r1, [sl, #108]	; 0x6c
                pSkt->Flags.bHalfFullFlush = false;
    2748:	f89a 1036 	ldrb.w	r1, [sl, #54]	; 0x36
    274c:	f36f 1145 	bfc	r1, #5, #1
    2750:	f88a 1036 	strb.w	r1, [sl, #54]	; 0x36
                pSkt->txTail += dwTemp;
    2754:	9a08      	ldr	r2, [sp, #32]
    2756:	4402      	add	r2, r0
    2758:	f8ca 200c 	str.w	r2, [sl, #12]
                    if(pSkt->txUnackedTail < pSkt->txTail)
    275c:	4293      	cmp	r3, r2
    275e:	f4bf abb5 	bcs.w	1ecc <TCPIP_TCP_Task+0x54c>
                        pSkt->MySEQ += pSkt->txTail - pSkt->txUnackedTail;
    2762:	1ad3      	subs	r3, r2, r3
    2764:	9909      	ldr	r1, [sp, #36]	; 0x24
    2766:	440b      	add	r3, r1
    2768:	f8ca 304c 	str.w	r3, [sl, #76]	; 0x4c
                        pSkt->txUnackedTail = pSkt->txTail;
    276c:	f8ca 2010 	str.w	r2, [sl, #16]
                if(pSkt->txTail >= pSkt->txEnd)
    2770:	9b0a      	ldr	r3, [sp, #40]	; 0x28
    2772:	4293      	cmp	r3, r2
    2774:	d80c      	bhi.n	2790 <__ext_attr_.config_00804000+0x78c>
                    pSkt->txTail -= pSkt->txEnd - pSkt->txStart;
    2776:	9b0b      	ldr	r3, [sp, #44]	; 0x2c
    2778:	1ad2      	subs	r2, r2, r3
    277a:	f8ca 200c 	str.w	r2, [sl, #12]
                if(pSkt->txUnackedTail >= pSkt->txEnd)
    277e:	f8da 3010 	ldr.w	r3, [sl, #16]
    2782:	9a0a      	ldr	r2, [sp, #40]	; 0x28
    2784:	429a      	cmp	r2, r3
    2786:	d803      	bhi.n	2790 <__ext_attr_.config_00804000+0x78c>
                    pSkt->txUnackedTail -= pSkt->txEnd - pSkt->txStart;
    2788:	9a0b      	ldr	r2, [sp, #44]	; 0x2c
    278a:	1a9b      	subs	r3, r3, r2
    278c:	f8ca 3010 	str.w	r3, [sl, #16]
                if(pSkt->smState == TCPIP_TCP_STATE_ESTABLISHED || pSkt->smState == TCPIP_TCP_STATE_CLOSE_WAIT)
    2790:	f89a 306e 	ldrb.w	r3, [sl, #110]	; 0x6e
    2794:	2b03      	cmp	r3, #3
    2796:	d002      	beq.n	279e <__ext_attr_.config_00804000+0x79a>
    2798:	2b08      	cmp	r3, #8
    279a:	f47f abdd 	bne.w	1f58 <TCPIP_TCP_Task+0x5d8>
                    *pSktEvent |= TCPIP_TCP_SIGNAL_TX_SPACE; 
    279e:	9b04      	ldr	r3, [sp, #16]
    27a0:	f043 0204 	orr.w	r2, r3, #4
    27a4:	b293      	uxth	r3, r2
    27a6:	9304      	str	r3, [sp, #16]
    27a8:	f7ff bbd6 	b.w	1f58 <TCPIP_TCP_Task+0x5d8>
                if((int32_t)(SYS_TMR_TickCountGet() - pSkt->closeWaitTime) >= 0)
    27ac:	f01d fc9e 	bl	200ec <SYS_TMR_TickCountGet>
    27b0:	6b23      	ldr	r3, [r4, #48]	; 0x30
    27b2:	1ac0      	subs	r0, r0, r3
    27b4:	2800      	cmp	r0, #0
    27b6:	f6bf ae6f 	bge.w	2498 <__ext_attr_.config_00804000+0x494>
                    vFlags = ACK;
    27ba:	2610      	movs	r6, #16
    27bc:	e65e      	b.n	247c <__ext_attr_.config_00804000+0x478>
    27be:	bf00      	nop

Disassembly of section .text.TCPIP_IPERF_Task%182:

000027c0 <TCPIP_IPERF_Task>:

}
#endif  // (TCPIP_STACK_DOWN_OPERATION != 0)

void TCPIP_IPERF_Task(void)
{
    27c0:	e92d 4ff0 	stmdb	sp!, {r4, r5, r6, r7, r8, r9, sl, fp, lr}
    27c4:	ed2d 8b02 	vpush	{d8}
    27c8:	b09b      	sub	sp, #108	; 0x6c
    TCPIP_MODULE_SIGNAL sigPend;

    sigPend = _TCPIPStackModuleSignalGet(TCPIP_THIS_MODULE_ID, TCPIP_MODULE_SIGNAL_MASK_ALL);
    27ca:	210f      	movs	r1, #15
    27cc:	2020      	movs	r0, #32
    27ce:	f01b fcfd 	bl	1e1cc <_TCPIPStackModuleSignalGet>

    if(sigPend != 0)
    27d2:	2800      	cmp	r0, #0
    27d4:	f000 8688 	beq.w	34e8 <TCPIP_IPERF_Task+0xd28>
    {
		int i = 0;
		// ASYNC or RX signals occurred
	    tIperfState* pIState;	
        for(i = 0, pIState = gIperfState; i < nIperfSessions; i++, pIState++)
    27d8:	4b82      	ldr	r3, [pc, #520]	; (29e4 <TCPIP_IPERF_Task+0x224>)
    27da:	681b      	ldr	r3, [r3, #0]
    27dc:	2b00      	cmp	r3, #0
    27de:	f340 8683 	ble.w	34e8 <TCPIP_IPERF_Task+0xd28>
    27e2:	4c81      	ldr	r4, [pc, #516]	; (29e8 <TCPIP_IPERF_Task+0x228>)
    27e4:	2600      	movs	r6, #0
    uint16_t chunk;
    uint16_t remainingTxData;
    uint16_t txData = 0;

    /* Fill the buffer with ASCII char U */
    memset( g_bfr, 0x55, MAX_BUFFER);
    27e6:	4f81      	ldr	r7, [pc, #516]	; (29ec <TCPIP_IPERF_Task+0x22c>)
            (pIState->pCmdIO->pCmdApi->msg)(cmdIoParam, "iperf: TCP Client connection timeout\r\n");
    27e8:	f8df 8210 	ldr.w	r8, [pc, #528]	; 29fc <TCPIP_IPERF_Task+0x23c>

      /* get the remainder of the ticks using modulus */
      tmp2 = ((pIState->stopTime - pIState->startTime) % tickFreq);

      /* normalize  to uSecs */
      tmp2 =  tmp2 * 1000 / tickFreq; /* Convert to mSec */
    27ec:	ed9f 8a80 	vldr	s16, [pc, #512]	; 29f0 <TCPIP_IPERF_Task+0x230>
      }

      // never decrease pktId (e.g. if we get an out-of-order packet)
      if ( pIState->pktId == pIState->lastPktId )
      {
         (pIState->pCmdIO->pCmdApi->msg)(cmdIoParam, "iperf: Recv duplicated pkt\r\n");
    27f0:	f208 739c 	addw	r3, r8, #1948	; 0x79c
    27f4:	9305      	str	r3, [sp, #20]
    27f6:	e3a3      	b.n	2f40 <TCPIP_IPERF_Task+0x780>
    const void* cmdIoParam = pIState->pCmdIO->cmdIoParam;
    27f8:	f8d4 30c4 	ldr.w	r3, [r4, #196]	; 0xc4
    27fc:	685d      	ldr	r5, [r3, #4]
    if ( !pIState->mServerMode )
    27fe:	f894 20d1 	ldrb.w	r2, [r4, #209]	; 0xd1
    2802:	b332      	cbz	r2, 2852 <TCPIP_IPERF_Task+0x92>
    switch ( pIState->mProtocol )
    2804:	7c22      	ldrb	r2, [r4, #16]
    2806:	2a01      	cmp	r2, #1
    2808:	d045      	beq.n	2896 <TCPIP_IPERF_Task+0xd6>
    280a:	2a02      	cmp	r2, #2
    280c:	d165      	bne.n	28da <TCPIP_IPERF_Task+0x11a>
        if ( (pIState->tcpServerSock == INVALID_SOCKET) &&
    280e:	f9b4 3038 	ldrsh.w	r3, [r4, #56]	; 0x38
    2812:	f1b3 3fff 	cmp.w	r3, #4294967295
    2816:	d027      	beq.n	2868 <TCPIP_IPERF_Task+0xa8>
        TCPIP_TCP_SignalHandlerRegister(pIState->tcpServerSock, TCPIP_TCP_SIGNAL_RX_DATA, _IperfTCPRxSignalHandler, 0);
    2818:	2300      	movs	r3, #0
    281a:	4a76      	ldr	r2, [pc, #472]	; (29f4 <TCPIP_IPERF_Task+0x234>)
    281c:	f44f 7100 	mov.w	r1, #512	; 0x200
    2820:	f9b4 0038 	ldrsh.w	r0, [r4, #56]	; 0x38
    2824:	f01a fe8e 	bl	1d544 <TCPIP_TCP_SignalHandlerRegister>
        if(!TCPIP_TCP_OptionsSet(pIState->tcpServerSock, TCP_OPTION_RX_BUFF, (void*)pIState->rxBuffSize))
    2828:	f8d4 20bc 	ldr.w	r2, [r4, #188]	; 0xbc
    282c:	2102      	movs	r1, #2
    282e:	f9b4 0038 	ldrsh.w	r0, [r4, #56]	; 0x38
    2832:	f011 fbaa 	bl	13f8a <TCPIP_TCP_OptionsSet>
    2836:	b938      	cbnz	r0, 2848 <TCPIP_IPERF_Task+0x88>
            (pIState->pCmdIO->pCmdApi->msg)(cmdIoParam, "iperf: Set of RX buffer size failed\r\n");
    2838:	f8d4 30c4 	ldr.w	r3, [r4, #196]	; 0xc4
    283c:	681b      	ldr	r3, [r3, #0]
    283e:	681b      	ldr	r3, [r3, #0]
    2840:	f208 61ec 	addw	r1, r8, #1772	; 0x6ec
    2844:	4628      	mov	r0, r5
    2846:	4798      	blx	r3
        IperfSetState(pIState, IPERF_TCP_RX_LISTEN_STATE);
    2848:	2106      	movs	r1, #6
    284a:	4620      	mov	r0, r4
    284c:	f019 fc14 	bl	1c078 <IperfSetState>
        break;
    2850:	e36f      	b.n	2f32 <TCPIP_IPERF_Task+0x772>
        (pIState->pCmdIO->pCmdApi->msg)(cmdIoParam, "iperf: Unsupported Configuration\r\n");
    2852:	681b      	ldr	r3, [r3, #0]
    2854:	681b      	ldr	r3, [r3, #0]
    2856:	f208 61a4 	addw	r1, r8, #1700	; 0x6a4
    285a:	4628      	mov	r0, r5
    285c:	4798      	blx	r3
        IperfSetState(pIState, IPERF_STANDBY_STATE);
    285e:	2101      	movs	r1, #1
    2860:	4620      	mov	r0, r4
    2862:	f019 fc09 	bl	1c078 <IperfSetState>
        return;
    2866:	e364      	b.n	2f32 <TCPIP_IPERF_Task+0x772>
            (pIState->tcpServerSock = TCPIP_TCP_ServerOpen(IP_ADDRESS_TYPE_IPV4, pIState->mServerPort, (IP_MULTI_ADDRESS*)&pIState->localAddr)) == INVALID_SOCKET )
    2868:	f104 0280 	add.w	r2, r4, #128	; 0x80
    286c:	8a61      	ldrh	r1, [r4, #18]
    286e:	2001      	movs	r0, #1
    2870:	f014 fde6 	bl	17440 <TCPIP_TCP_ServerOpen>
    2874:	8720      	strh	r0, [r4, #56]	; 0x38
        if ( (pIState->tcpServerSock == INVALID_SOCKET) &&
    2876:	f1b0 3fff 	cmp.w	r0, #4294967295
    287a:	d1cd      	bne.n	2818 <TCPIP_IPERF_Task+0x58>
            (pIState->pCmdIO->pCmdApi->msg)(cmdIoParam, "iperf: Create TCP socket failed\r\n");
    287c:	f8d4 30c4 	ldr.w	r3, [r4, #196]	; 0xc4
    2880:	681b      	ldr	r3, [r3, #0]
    2882:	681b      	ldr	r3, [r3, #0]
    2884:	f508 61d9 	add.w	r1, r8, #1736	; 0x6c8
    2888:	4628      	mov	r0, r5
    288a:	4798      	blx	r3
            IperfSetState(pIState, IPERF_STANDBY_STATE);
    288c:	2101      	movs	r1, #1
    288e:	4620      	mov	r0, r4
    2890:	f019 fbf2 	bl	1c078 <IperfSetState>
            return;
    2894:	e34d      	b.n	2f32 <TCPIP_IPERF_Task+0x772>
        if ( (pIState->udpSock = TCPIP_UDP_ServerOpen(IP_ADDRESS_TYPE_IPV4, pIState->mServerPort, (IP_MULTI_ADDRESS*)&pIState->localAddr)) == INVALID_UDP_SOCKET )
    2896:	f104 0280 	add.w	r2, r4, #128	; 0x80
    289a:	8a61      	ldrh	r1, [r4, #18]
    289c:	2001      	movs	r0, #1
    289e:	f01f fc4c 	bl	2213a <TCPIP_UDP_ServerOpen>
    28a2:	87a0      	strh	r0, [r4, #60]	; 0x3c
    28a4:	f1b0 3fff 	cmp.w	r0, #4294967295
    28a8:	d00a      	beq.n	28c0 <TCPIP_IPERF_Task+0x100>
        TCPIP_UDP_SignalHandlerRegister(pIState->udpSock, TCPIP_UDP_SIGNAL_RX_DATA, _IperfUDPRxSignalHandler, 0);
    28aa:	2300      	movs	r3, #0
    28ac:	4a52      	ldr	r2, [pc, #328]	; (29f8 <TCPIP_IPERF_Task+0x238>)
    28ae:	f44f 7180 	mov.w	r1, #256	; 0x100
    28b2:	f01a fdbe 	bl	1d432 <TCPIP_UDP_SignalHandlerRegister>
        IperfSetState(pIState, IPERF_UDP_RX_STATE);
    28b6:	2103      	movs	r1, #3
    28b8:	4620      	mov	r0, r4
    28ba:	f019 fbdd 	bl	1c078 <IperfSetState>
        break;
    28be:	e338      	b.n	2f32 <TCPIP_IPERF_Task+0x772>
            (pIState->pCmdIO->pCmdApi->msg)(cmdIoParam, "iperf: Create UDP socket failed\r\n");
    28c0:	f8d4 30c4 	ldr.w	r3, [r4, #196]	; 0xc4
    28c4:	681b      	ldr	r3, [r3, #0]
    28c6:	681b      	ldr	r3, [r3, #0]
    28c8:	f208 7114 	addw	r1, r8, #1812	; 0x714
    28cc:	4628      	mov	r0, r5
    28ce:	4798      	blx	r3
             IperfSetState(pIState, IPERF_STANDBY_STATE);
    28d0:	2101      	movs	r1, #1
    28d2:	4620      	mov	r0, r4
    28d4:	f019 fbd0 	bl	1c078 <IperfSetState>
            return;
    28d8:	e32b      	b.n	2f32 <TCPIP_IPERF_Task+0x772>
        (pIState->pCmdIO->pCmdApi->msg)(cmdIoParam, "iperf: Protocol error\r\n");
    28da:	681b      	ldr	r3, [r3, #0]
    28dc:	681b      	ldr	r3, [r3, #0]
    28de:	f508 61e7 	add.w	r1, r8, #1848	; 0x738
    28e2:	4628      	mov	r0, r5
    28e4:	4798      	blx	r3
        IperfSetState(pIState, IPERF_STANDBY_STATE);
    28e6:	2101      	movs	r1, #1
    28e8:	4620      	mov	r0, r4
    28ea:	f019 fbc5 	bl	1c078 <IperfSetState>
        return;
    28ee:	e320      	b.n	2f32 <TCPIP_IPERF_Task+0x772>
    const void* cmdIoParam = pIState->pCmdIO->cmdIoParam;
    28f0:	f8d4 30c4 	ldr.w	r3, [r4, #196]	; 0xc4
    28f4:	f8d3 b004 	ldr.w	fp, [r3, #4]
          (pIState->pCmdIO->pCmdApi->print)(cmdIoParam, "\r\niperf: instance %d session started ...\r\n", pIState - gIperfState);
    28f8:	4b3b      	ldr	r3, [pc, #236]	; (29e8 <TCPIP_IPERF_Task+0x228>)
    28fa:	1ae3      	subs	r3, r4, r3
    28fc:	10db      	asrs	r3, r3, #3
    28fe:	eb03 02c3 	add.w	r2, r3, r3, lsl #3
    2902:	eb03 0342 	add.w	r3, r3, r2, lsl #1
    2906:	ebc3 2343 	rsb	r3, r3, r3, lsl #9
    290a:	eb03 4383 	add.w	r3, r3, r3, lsl #18
    290e:	f1c3 0a00 	rsb	sl, r3, #0
    2912:	e086      	b.n	2a22 <TCPIP_IPERF_Task+0x262>
          (pIState->pCmdIO->pCmdApi->msg)(cmdIoParam, "iperf: UDP Get Array Failed\r\n");
    2914:	f8d4 30c4 	ldr.w	r3, [r4, #196]	; 0xc4
    2918:	681b      	ldr	r3, [r3, #0]
    291a:	681b      	ldr	r3, [r3, #0]
    291c:	f508 61ea 	add.w	r1, r8, #1872	; 0x750
    2920:	4658      	mov	r0, fp
    2922:	4798      	blx	r3
          IperfSetState(pIState, IPERF_UDP_RX_DRAIN_STATE);
    2924:	2104      	movs	r1, #4
    2926:	4620      	mov	r0, r4
    2928:	f019 fba6 	bl	1c078 <IperfSetState>
          return;
    292c:	e301      	b.n	2f32 <TCPIP_IPERF_Task+0x772>
          TCPIP_UDP_Discard(pIState->udpSock);
    292e:	f9b4 003c 	ldrsh.w	r0, [r4, #60]	; 0x3c
    2932:	f01d ff6a 	bl	2080a <TCPIP_UDP_Discard>
          return;
    2936:	e2fc      	b.n	2f32 <TCPIP_IPERF_Task+0x772>
       pIState->pktCount++;
    2938:	3301      	adds	r3, #1
    293a:	f8c4 3094 	str.w	r3, [r4, #148]	; 0x94
      pIState->totalLen += length;
    293e:	4628      	mov	r0, r5
    2940:	f008 fd24 	bl	b38c <__aeabi_i2d>
    2944:	4602      	mov	r2, r0
    2946:	460b      	mov	r3, r1
    2948:	e9d4 0108 	ldrd	r0, r1, [r4, #32]
    294c:	f008 fbd2 	bl	b0f4 <__adddf3>
    2950:	e9c4 0108 	strd	r0, r1, [r4, #32]
      if ( pIState->pktId < 0 )
    2954:	f1b9 0f00 	cmp.w	r9, #0
    2958:	db1a      	blt.n	2990 <TCPIP_IPERF_Task+0x1d0>
      if ( pIState->pktId != pIState->lastPktId+1 )
    295a:	6aa3      	ldr	r3, [r4, #40]	; 0x28
    295c:	6ae2      	ldr	r2, [r4, #44]	; 0x2c
    295e:	1c51      	adds	r1, r2, #1
    2960:	428b      	cmp	r3, r1
    2962:	d030      	beq.n	29c6 <TCPIP_IPERF_Task+0x206>
         if ( pIState->pktId < pIState->lastPktId+1 )
    2964:	4293      	cmp	r3, r2
    2966:	dc22      	bgt.n	29ae <TCPIP_IPERF_Task+0x1ee>
            pIState->outofOrder++;
    2968:	6b61      	ldr	r1, [r4, #52]	; 0x34
    296a:	f101 0101 	add.w	r1, r1, #1
    296e:	6361      	str	r1, [r4, #52]	; 0x34
      if ( pIState->pktId == pIState->lastPktId )
    2970:	d02b      	beq.n	29ca <TCPIP_IPERF_Task+0x20a>
    2972:	e022      	b.n	29ba <TCPIP_IPERF_Task+0x1fa>
             (pIState->pCmdIO->pCmdApi->print)(cmdIoParam, "iperf: - First pkt id = %ld (should be 0)\r\n",
    2974:	f8d4 30c4 	ldr.w	r3, [r4, #196]	; 0xc4
    2978:	681b      	ldr	r3, [r3, #0]
    297a:	685b      	ldr	r3, [r3, #4]
    297c:	f508 61ee 	add.w	r1, r8, #1904	; 0x770
    2980:	4658      	mov	r0, fp
    2982:	4798      	blx	r3
             pIState->errorCount	+= 	pIState->pktId - 1;
    2984:	6b23      	ldr	r3, [r4, #48]	; 0x30
    2986:	3b01      	subs	r3, #1
    2988:	6aa2      	ldr	r2, [r4, #40]	; 0x28
    298a:	4413      	add	r3, r2
    298c:	6323      	str	r3, [r4, #48]	; 0x30
    298e:	e083      	b.n	2a98 <TCPIP_IPERF_Task+0x2d8>
         pIState->pktId = - pIState->pktId;
    2990:	f1c9 0300 	rsb	r3, r9, #0
    2994:	62a3      	str	r3, [r4, #40]	; 0x28
         pIState->stopTime = SYS_TMR_TickCountGet();
    2996:	f01d fba9 	bl	200ec <SYS_TMR_TickCountGet>
    299a:	f8c4 008c 	str.w	r0, [r4, #140]	; 0x8c
        pIState->nAttempts = 0;
    299e:	2300      	movs	r3, #0
    29a0:	f884 30cc 	strb.w	r3, [r4, #204]	; 0xcc
        IperfSetState(pIState, IPERF_UDP_RX_DRAIN_STATE);
    29a4:	2104      	movs	r1, #4
    29a6:	4620      	mov	r0, r4
    29a8:	f019 fb66 	bl	1c078 <IperfSetState>
    29ac:	e7d5      	b.n	295a <TCPIP_IPERF_Task+0x19a>
            pIState->errorCount += pIState->pktId - (pIState->lastPktId+1);
    29ae:	1a5b      	subs	r3, r3, r1
    29b0:	6b22      	ldr	r2, [r4, #48]	; 0x30
    29b2:	4413      	add	r3, r2
    29b4:	6323      	str	r3, [r4, #48]	; 0x30
      }

      if ( pIState->pktId > pIState->lastPktId )
    29b6:	6aa3      	ldr	r3, [r4, #40]	; 0x28
      {
         pIState->lastPktId = pIState->pktId;
    29b8:	62e3      	str	r3, [r4, #44]	; 0x2c
      }

      /* read the remaining datagram payload - the full payload */
      /* a UdpDiscard would be disingenuous, because it would not reflect the bandwidth at L7 */
      length -=  sizeof(tIperfPktInfo);
    29ba:	3d0c      	subs	r5, #12
    29bc:	b2ad      	uxth	r5, r5
      while ( length > 0 )
    29be:	b385      	cbz	r5, 2a22 <TCPIP_IPERF_Task+0x262>
         if ( length <  (uint16_t)MAX_BUFFER )
            chunk = length;
         else
            chunk = MAX_BUFFER;

         TCPIP_UDP_ArrayGet(pIState->udpSock, (uint8_t*)g_bfr, chunk);
    29c0:	f04f 0934 	mov.w	r9, #52	; 0x34
    29c4:	e025      	b.n	2a12 <TCPIP_IPERF_Task+0x252>
      if ( pIState->pktId == pIState->lastPktId )
    29c6:	4293      	cmp	r3, r2
    29c8:	d106      	bne.n	29d8 <TCPIP_IPERF_Task+0x218>
         (pIState->pCmdIO->pCmdApi->msg)(cmdIoParam, "iperf: Recv duplicated pkt\r\n");
    29ca:	f8d4 30c4 	ldr.w	r3, [r4, #196]	; 0xc4
    29ce:	681b      	ldr	r3, [r3, #0]
    29d0:	681b      	ldr	r3, [r3, #0]
    29d2:	9905      	ldr	r1, [sp, #20]
    29d4:	4658      	mov	r0, fp
    29d6:	4798      	blx	r3
      if ( pIState->pktId > pIState->lastPktId )
    29d8:	6aa3      	ldr	r3, [r4, #40]	; 0x28
    29da:	6ae2      	ldr	r2, [r4, #44]	; 0x2c
    29dc:	4293      	cmp	r3, r2
    29de:	ddec      	ble.n	29ba <TCPIP_IPERF_Task+0x1fa>
    29e0:	e7ea      	b.n	29b8 <TCPIP_IPERF_Task+0x1f8>
    29e2:	bf00      	nop
    29e4:	2000e3f0 	.word	0x2000e3f0
    29e8:	2000d9b0 	.word	0x2000d9b0
    29ec:	2000e068 	.word	0x2000e068
    29f0:	447a0000 	.word	0x447a0000
    29f4:	00021797 	.word	0x00021797
    29f8:	00021781 	.word	0x00021781
    29fc:	000057b4 	.word	0x000057b4
         TCPIP_UDP_ArrayGet(pIState->udpSock, (uint8_t*)g_bfr, chunk);
    2a00:	464a      	mov	r2, r9
    2a02:	4639      	mov	r1, r7
    2a04:	f9b4 003c 	ldrsh.w	r0, [r4, #60]	; 0x3c
    2a08:	f012 fc4e 	bl	152a8 <TCPIP_UDP_ArrayGet>
         length -= chunk;
    2a0c:	3d34      	subs	r5, #52	; 0x34
    2a0e:	b2ad      	uxth	r5, r5
      while ( length > 0 )
    2a10:	b13d      	cbz	r5, 2a22 <TCPIP_IPERF_Task+0x262>
         if ( length <  (uint16_t)MAX_BUFFER )
    2a12:	2d33      	cmp	r5, #51	; 0x33
    2a14:	d8f4      	bhi.n	2a00 <TCPIP_IPERF_Task+0x240>
         TCPIP_UDP_ArrayGet(pIState->udpSock, (uint8_t*)g_bfr, chunk);
    2a16:	462a      	mov	r2, r5
    2a18:	4639      	mov	r1, r7
    2a1a:	f9b4 003c 	ldrsh.w	r0, [r4, #60]	; 0x3c
    2a1e:	f012 fc43 	bl	152a8 <TCPIP_UDP_ArrayGet>
    while( (length = TCPIP_UDP_GetIsReady(pIState->udpSock)) >= (uint16_t)(sizeof(tIperfPktInfo)) )
    2a22:	f9b4 003c 	ldrsh.w	r0, [r4, #60]	; 0x3c
    2a26:	f01d fb25 	bl	20074 <TCPIP_UDP_GetIsReady>
    2a2a:	4605      	mov	r5, r0
    2a2c:	280b      	cmp	r0, #11
    2a2e:	f240 8082 	bls.w	2b36 <TCPIP_IPERF_Task+0x376>
       if ( TCPIP_UDP_ArrayGet(pIState->udpSock, (uint8_t*)g_bfr, sizeof(tIperfPktInfo)) != sizeof(tIperfPktInfo) )
    2a32:	220c      	movs	r2, #12
    2a34:	4639      	mov	r1, r7
    2a36:	f9b4 003c 	ldrsh.w	r0, [r4, #60]	; 0x3c
    2a3a:	f012 fc35 	bl	152a8 <TCPIP_UDP_ArrayGet>
    2a3e:	280c      	cmp	r0, #12
    2a40:	f47f af68 	bne.w	2914 <TCPIP_IPERF_Task+0x154>
       pIState->pktId = TCPIP_Helper_htonl(pPktInfo->id);
    2a44:	683b      	ldr	r3, [r7, #0]
    return (((hLong & 0x000000ff) << 24) | ((hLong & 0x0000ff00) << 8) | ((hLong & 0x00ff0000) >> 8) | ((hLong & 0xff000000) >> 24));
    2a46:	ea4f 6913 	mov.w	r9, r3, lsr #24
    2a4a:	ea49 6903 	orr.w	r9, r9, r3, lsl #24
    2a4e:	021a      	lsls	r2, r3, #8
    2a50:	f402 027f 	and.w	r2, r2, #16711680	; 0xff0000
    2a54:	ea49 0902 	orr.w	r9, r9, r2
    2a58:	0a1b      	lsrs	r3, r3, #8
    2a5a:	f403 437f 	and.w	r3, r3, #65280	; 0xff00
    2a5e:	ea49 0903 	orr.w	r9, r9, r3
    2a62:	f8c4 9028 	str.w	r9, [r4, #40]	; 0x28
       if ( (pIState->pktCount == (uint32_t)0) && (pIState->pktId < (long)0) )
    2a66:	f8d4 3094 	ldr.w	r3, [r4, #148]	; 0x94
    2a6a:	2b00      	cmp	r3, #0
    2a6c:	f47f af64 	bne.w	2938 <TCPIP_IPERF_Task+0x178>
    2a70:	f1b9 0f00 	cmp.w	r9, #0
    2a74:	f6ff af5b 	blt.w	292e <TCPIP_IPERF_Task+0x16e>
       pIState->pktCount++;
    2a78:	2301      	movs	r3, #1
    2a7a:	f8c4 3094 	str.w	r3, [r4, #148]	; 0x94
          (pIState->pCmdIO->pCmdApi->print)(cmdIoParam, "\r\niperf: instance %d session started ...\r\n", pIState - gIperfState);
    2a7e:	f8d4 30c4 	ldr.w	r3, [r4, #196]	; 0xc4
    2a82:	681b      	ldr	r3, [r3, #0]
    2a84:	685b      	ldr	r3, [r3, #4]
    2a86:	4652      	mov	r2, sl
    2a88:	f208 71d4 	addw	r1, r8, #2004	; 0x7d4
    2a8c:	4658      	mov	r0, fp
    2a8e:	4798      	blx	r3
          if ( pIState->pktId != 0 )
    2a90:	6aa2      	ldr	r2, [r4, #40]	; 0x28
    2a92:	2a00      	cmp	r2, #0
    2a94:	f47f af6e 	bne.w	2974 <TCPIP_IPERF_Task+0x1b4>
          pIState->lastPktId = pIState->pktId;
    2a98:	6aa3      	ldr	r3, [r4, #40]	; 0x28
    2a9a:	62e3      	str	r3, [r4, #44]	; 0x2c
		  TCPIP_UDP_SocketInfoGet(pIState->udpSock, &UdpSkt);
    2a9c:	a906      	add	r1, sp, #24
    2a9e:	f9b4 003c 	ldrsh.w	r0, [r4, #60]	; 0x3c
    2aa2:	f018 fc07 	bl	1b2b4 <TCPIP_UDP_SocketInfoGet>
          lclIpAddr.Val = TCPIP_STACK_NetAddress(TCPIP_UDP_SocketNetGet(pIState->udpSock));
    2aa6:	f9b4 003c 	ldrsh.w	r0, [r4, #60]	; 0x3c
    2aaa:	f01f f87f 	bl	21bac <TCPIP_UDP_SocketNetGet>
    2aae:	f01e f94c 	bl	20d4a <TCPIP_STACK_NetAddress>
          remIpAddr.Val = UdpSkt.remoteIPaddress.v4Add.Val;
    2ab2:	9d07      	ldr	r5, [sp, #28]
          (pIState->pCmdIO->pCmdApi->print)(cmdIoParam, "    - Local  %u.%u.%u.%u port %u connected with\r\n",
    2ab4:	f8d4 30c4 	ldr.w	r3, [r4, #196]	; 0xc4
    2ab8:	681b      	ldr	r3, [r3, #0]
    2aba:	8a62      	ldrh	r2, [r4, #18]
    2abc:	9202      	str	r2, [sp, #8]
    2abe:	0e02      	lsrs	r2, r0, #24
    2ac0:	9201      	str	r2, [sp, #4]
    2ac2:	f3c0 4207 	ubfx	r2, r0, #16, #8
    2ac6:	9200      	str	r2, [sp, #0]
    2ac8:	f8d3 9004 	ldr.w	r9, [r3, #4]
    2acc:	f3c0 2307 	ubfx	r3, r0, #8, #8
    2ad0:	b2c2      	uxtb	r2, r0
    2ad2:	f508 61b1 	add.w	r1, r8, #1416	; 0x588
    2ad6:	4658      	mov	r0, fp
    2ad8:	47c8      	blx	r9
          (pIState->pCmdIO->pCmdApi->print)(cmdIoParam, "    - Remote %u.%u.%u.%u port %u\r\n",      
    2ada:	f8d4 30c4 	ldr.w	r3, [r4, #196]	; 0xc4
    2ade:	681b      	ldr	r3, [r3, #0]
    2ae0:	f8bd 205c 	ldrh.w	r2, [sp, #92]	; 0x5c
    2ae4:	9202      	str	r2, [sp, #8]
    2ae6:	0e2a      	lsrs	r2, r5, #24
    2ae8:	9201      	str	r2, [sp, #4]
    2aea:	f3c5 4207 	ubfx	r2, r5, #16, #8
    2aee:	9200      	str	r2, [sp, #0]
    2af0:	f8d3 9004 	ldr.w	r9, [r3, #4]
    2af4:	f3c5 2307 	ubfx	r3, r5, #8, #8
    2af8:	b2ea      	uxtb	r2, r5
    2afa:	f208 51bc 	addw	r1, r8, #1468	; 0x5bc
    2afe:	4658      	mov	r0, fp
    2b00:	47c8      	blx	r9
          pIState->remoteSide.remoteIPaddress.v4Add.Val = remIpAddr.Val;
    2b02:	6465      	str	r5, [r4, #68]	; 0x44
          pIState->remoteSide.remotePort =  UdpSkt.remotePort;
    2b04:	f8bd 305c 	ldrh.w	r3, [sp, #92]	; 0x5c
    2b08:	f8a4 3064 	strh.w	r3, [r4, #100]	; 0x64
          pIState->startTime = SYS_TMR_TickCountGet();
    2b0c:	f01d faee 	bl	200ec <SYS_TMR_TickCountGet>
    2b10:	f8c4 0088 	str.w	r0, [r4, #136]	; 0x88
          pIState->lastCheckTime = 	pIState->startTime;
    2b14:	f8c4 00a8 	str.w	r0, [r4, #168]	; 0xa8
          pIState->lastCheckPktId = pIState->pktId;
    2b18:	6aa3      	ldr	r3, [r4, #40]	; 0x28
    2b1a:	f8c4 309c 	str.w	r3, [r4, #156]	; 0x9c
          pIState->lastCheckPktCount = pIState->pktCount;
    2b1e:	f8d4 3094 	ldr.w	r3, [r4, #148]	; 0x94
    2b22:	f8c4 3098 	str.w	r3, [r4, #152]	; 0x98
          pIState->lastCheckErrorCount = pIState->errorCount;
    2b26:	6b23      	ldr	r3, [r4, #48]	; 0x30
    2b28:	f8c4 30a0 	str.w	r3, [r4, #160]	; 0xa0
          TCPIP_UDP_Discard(pIState->udpSock);
    2b2c:	f9b4 003c 	ldrsh.w	r0, [r4, #60]	; 0x3c
    2b30:	f01d fe6b 	bl	2080a <TCPIP_UDP_Discard>
          continue;
    2b34:	e775      	b.n	2a22 <TCPIP_IPERF_Task+0x262>
      }


    }  /* end got a datagram */

    if ( (pIState->pktCount != (uint32_t)0) &&
    2b36:	f8d4 3094 	ldr.w	r3, [r4, #148]	; 0x94
    2b3a:	b94b      	cbnz	r3, 2b50 <TCPIP_IPERF_Task+0x390>
        {
          ReportBW_Jitter_Loss(pIState, INTERVAL_REPORT);
        }
    }

    if ( pIState->stopRequested == true )
    2b3c:	f894 30cf 	ldrb.w	r3, [r4, #207]	; 0xcf
    2b40:	2b01      	cmp	r3, #1
    2b42:	f040 81f6 	bne.w	2f32 <TCPIP_IPERF_Task+0x772>
    {
        IperfSetState(pIState, IPERF_UDP_RX_DRAIN_STATE);
    2b46:	2104      	movs	r1, #4
    2b48:	4620      	mov	r0, r4
    2b4a:	f019 fa95 	bl	1c078 <IperfSetState>
        return;
    2b4e:	e1f0      	b.n	2f32 <TCPIP_IPERF_Task+0x772>
         ((int32_t)(SYS_TMR_TickCountGet() - pIState->lastCheckTime) > pIState->mInterval) )
    2b50:	f01d facc 	bl	200ec <SYS_TMR_TickCountGet>
    2b54:	f8d4 30a8 	ldr.w	r3, [r4, #168]	; 0xa8
    2b58:	1ac3      	subs	r3, r0, r3
    if ( (pIState->pktCount != (uint32_t)0) &&
    2b5a:	6822      	ldr	r2, [r4, #0]
    2b5c:	4293      	cmp	r3, r2
    2b5e:	d9ed      	bls.n	2b3c <TCPIP_IPERF_Task+0x37c>
        if ( pIState->pktCount == pIState->lastCheckPktCount )
    2b60:	f8d4 2094 	ldr.w	r2, [r4, #148]	; 0x94
    2b64:	f8d4 3098 	ldr.w	r3, [r4, #152]	; 0x98
    2b68:	429a      	cmp	r2, r3
    2b6a:	d113      	bne.n	2b94 <TCPIP_IPERF_Task+0x3d4>
          (pIState->pCmdIO->pCmdApi->msg)(cmdIoParam, "iperf: Rx timed out\r\n");
    2b6c:	f8d4 30c4 	ldr.w	r3, [r4, #196]	; 0xc4
    2b70:	681b      	ldr	r3, [r3, #0]
    2b72:	681b      	ldr	r3, [r3, #0]
    2b74:	f208 71bc 	addw	r1, r8, #1980	; 0x7bc
    2b78:	4658      	mov	r0, fp
    2b7a:	4798      	blx	r3
          pIState->stopTime = SYS_TMR_TickCountGet();
    2b7c:	f01d fab6 	bl	200ec <SYS_TMR_TickCountGet>
    2b80:	f8c4 008c 	str.w	r0, [r4, #140]	; 0x8c
          pIState->nAttempts = 0;
    2b84:	2300      	movs	r3, #0
    2b86:	f884 30cc 	strb.w	r3, [r4, #204]	; 0xcc
          IperfSetState(pIState, IPERF_UDP_RX_DRAIN_STATE);
    2b8a:	2104      	movs	r1, #4
    2b8c:	4620      	mov	r0, r4
    2b8e:	f019 fa73 	bl	1c078 <IperfSetState>
    2b92:	e7d3      	b.n	2b3c <TCPIP_IPERF_Task+0x37c>
          ReportBW_Jitter_Loss(pIState, INTERVAL_REPORT);
    2b94:	2100      	movs	r1, #0
    2b96:	4620      	mov	r0, r4
    2b98:	f00a fbdc 	bl	d354 <ReportBW_Jitter_Loss>
    2b9c:	e7ce      	b.n	2b3c <TCPIP_IPERF_Task+0x37c>
    if( TCPIP_UDP_GetIsReady(pIState->udpSock) > (uint8_t)0 )
    2b9e:	f9b4 003c 	ldrsh.w	r0, [r4, #60]	; 0x3c
    2ba2:	f01d fa67 	bl	20074 <TCPIP_UDP_GetIsReady>
    2ba6:	b938      	cbnz	r0, 2bb8 <TCPIP_IPERF_Task+0x3f8>
   if ( pIState->stopRequested )
    2ba8:	f894 30cf 	ldrb.w	r3, [r4, #207]	; 0xcf
    2bac:	b14b      	cbz	r3, 2bc2 <TCPIP_IPERF_Task+0x402>
       IperfSetState(pIState, IPERF_RX_DONE_STATE);
    2bae:	2109      	movs	r1, #9
    2bb0:	4620      	mov	r0, r4
    2bb2:	f019 fa61 	bl	1c078 <IperfSetState>
    2bb6:	e1bc      	b.n	2f32 <TCPIP_IPERF_Task+0x772>
         TCPIP_UDP_Discard(pIState->udpSock);
    2bb8:	f9b4 003c 	ldrsh.w	r0, [r4, #60]	; 0x3c
    2bbc:	f01d fe25 	bl	2080a <TCPIP_UDP_Discard>
         return;
    2bc0:	e1b7      	b.n	2f32 <TCPIP_IPERF_Task+0x772>
       IperfSetState(pIState, IPERF_UDP_RX_DONE_STATE);
    2bc2:	2105      	movs	r1, #5
    2bc4:	4620      	mov	r0, r4
    2bc6:	f019 fa57 	bl	1c078 <IperfSetState>
    2bca:	e1b2      	b.n	2f32 <TCPIP_IPERF_Task+0x772>
    if ( pIState->statusReported == 0u )
    2bcc:	f894 30cd 	ldrb.w	r3, [r4, #205]	; 0xcd
    2bd0:	2b00      	cmp	r3, #0
    2bd2:	f000 80b5 	beq.w	2d40 <TCPIP_IPERF_Task+0x580>
    if (  TCPIP_UDP_GetIsReady(pIState->udpSock)  )
    2bd6:	f9b4 003c 	ldrsh.w	r0, [r4, #60]	; 0x3c
    2bda:	f01d fa4b 	bl	20074 <TCPIP_UDP_GetIsReady>
    2bde:	2800      	cmp	r0, #0
    2be0:	f040 80b6 	bne.w	2d50 <TCPIP_IPERF_Task+0x590>
    if ( pIState->nAttempts++ > 10u )
    2be4:	f894 30cc 	ldrb.w	r3, [r4, #204]	; 0xcc
    2be8:	1c5a      	adds	r2, r3, #1
    2bea:	f884 20cc 	strb.w	r2, [r4, #204]	; 0xcc
    2bee:	2b0a      	cmp	r3, #10
    2bf0:	f200 80b3 	bhi.w	2d5a <TCPIP_IPERF_Task+0x59a>
    if ( TCPIP_UDP_TxPutIsReady(pIState->udpSock, 128 ) > 0u )
    2bf4:	2180      	movs	r1, #128	; 0x80
    2bf6:	f9b4 003c 	ldrsh.w	r0, [r4, #60]	; 0x3c
    2bfa:	f01f fac8 	bl	2218e <TCPIP_UDP_TxPutIsReady>
    2bfe:	2800      	cmp	r0, #0
    2c00:	f000 8197 	beq.w	2f32 <TCPIP_IPERF_Task+0x772>
      pPktInfo->id = TCPIP_Helper_htonl( -pIState->lastPktId );
    2c04:	6ae3      	ldr	r3, [r4, #44]	; 0x2c
    2c06:	425b      	negs	r3, r3
    2c08:	0e1a      	lsrs	r2, r3, #24
    2c0a:	ea42 6203 	orr.w	r2, r2, r3, lsl #24
    2c0e:	0219      	lsls	r1, r3, #8
    2c10:	f401 017f 	and.w	r1, r1, #16711680	; 0xff0000
    2c14:	430a      	orrs	r2, r1
    2c16:	0a1b      	lsrs	r3, r3, #8
    2c18:	f403 437f 	and.w	r3, r3, #65280	; 0xff00
    2c1c:	4313      	orrs	r3, r2
    2c1e:	603b      	str	r3, [r7, #0]
      pPktInfo->tv_sec = 0;
    2c20:	2500      	movs	r5, #0
    2c22:	607d      	str	r5, [r7, #4]
      pPktInfo->tv_usec = 0;
    2c24:	60bd      	str	r5, [r7, #8]
      pServer_hdr->flags = TCPIP_Helper_htonl(HEADER_VERSION1);
    2c26:	2380      	movs	r3, #128	; 0x80
    2c28:	60fb      	str	r3, [r7, #12]
      pServer_hdr->total_len1 = 0;
    2c2a:	613d      	str	r5, [r7, #16]
      pServer_hdr->total_len2 = TCPIP_Helper_htonl( (uint32_t) pIState->totalLen);
    2c2c:	e9d4 0108 	ldrd	r0, r1, [r4, #32]
    2c30:	f01b f8e0 	bl	1ddf4 <__aeabi_d2uiz>
    2c34:	0e02      	lsrs	r2, r0, #24
    2c36:	ea42 6200 	orr.w	r2, r2, r0, lsl #24
    2c3a:	0203      	lsls	r3, r0, #8
    2c3c:	f403 037f 	and.w	r3, r3, #16711680	; 0xff0000
    2c40:	431a      	orrs	r2, r3
    2c42:	0a03      	lsrs	r3, r0, #8
    2c44:	f403 437f 	and.w	r3, r3, #65280	; 0xff00
    2c48:	4313      	orrs	r3, r2
    2c4a:	617b      	str	r3, [r7, #20]
      uint32_t tickFreq = SYS_TMR_TickCounterFrequencyGet(); 
    2c4c:	f01d fa76 	bl	2013c <SYS_TMR_TickCounterFrequencyGet>
      pServer_hdr->stop_sec =  TCPIP_Helper_htonl( (uint32_t) (pIState->stopTime - pIState->startTime) / tickFreq);
    2c50:	f8d4 108c 	ldr.w	r1, [r4, #140]	; 0x8c
    2c54:	f8d4 3088 	ldr.w	r3, [r4, #136]	; 0x88
    2c58:	1ac9      	subs	r1, r1, r3
    2c5a:	fbb1 f3f0 	udiv	r3, r1, r0
    2c5e:	0e1a      	lsrs	r2, r3, #24
    2c60:	ea42 6203 	orr.w	r2, r2, r3, lsl #24
    2c64:	ea4f 2c03 	mov.w	ip, r3, lsl #8
    2c68:	f40c 0c7f 	and.w	ip, ip, #16711680	; 0xff0000
    2c6c:	ea42 020c 	orr.w	r2, r2, ip
    2c70:	ea4f 2c13 	mov.w	ip, r3, lsr #8
    2c74:	f40c 4c7f 	and.w	ip, ip, #65280	; 0xff00
    2c78:	ea42 020c 	orr.w	r2, r2, ip
    2c7c:	61ba      	str	r2, [r7, #24]
      tmp2 = ((pIState->stopTime - pIState->startTime) % tickFreq);
    2c7e:	fb00 1313 	mls	r3, r0, r3, r1
    2c82:	ee07 3a10 	vmov	s14, r3
    2c86:	eeb8 7a47 	vcvt.f32.u32	s14, s14
      tmp2 =  tmp2 * 1000 / tickFreq; /* Convert to mSec */
    2c8a:	ee27 7a08 	vmul.f32	s14, s14, s16
    2c8e:	ee07 0a90 	vmov	s15, r0
    2c92:	eef8 6a67 	vcvt.f32.u32	s13, s15
    2c96:	eec7 7a26 	vdiv.f32	s15, s14, s13
      tmp2 *= 1000;   /* 1000 uSecs per mSec */
    2c9a:	ee67 7a88 	vmul.f32	s15, s15, s16
      pServer_hdr->stop_usec = TCPIP_Helper_htonl( (uint32_t) tmp2 );
    2c9e:	eefc 7ae7 	vcvt.u32.f32	s15, s15
    2ca2:	ee17 3a90 	vmov	r3, s15
    2ca6:	0e1a      	lsrs	r2, r3, #24
    2ca8:	ea42 6203 	orr.w	r2, r2, r3, lsl #24
    2cac:	0219      	lsls	r1, r3, #8
    2cae:	f401 017f 	and.w	r1, r1, #16711680	; 0xff0000
    2cb2:	430a      	orrs	r2, r1
    2cb4:	0a1b      	lsrs	r3, r3, #8
    2cb6:	f403 437f 	and.w	r3, r3, #65280	; 0xff00
    2cba:	4313      	orrs	r3, r2
    2cbc:	61fb      	str	r3, [r7, #28]
      pServer_hdr->error_cnt = TCPIP_Helper_htonl( (uint32_t)  pIState->errorCount);;
    2cbe:	6b23      	ldr	r3, [r4, #48]	; 0x30
    2cc0:	0e1a      	lsrs	r2, r3, #24
    2cc2:	ea42 6203 	orr.w	r2, r2, r3, lsl #24
    2cc6:	0219      	lsls	r1, r3, #8
    2cc8:	f401 017f 	and.w	r1, r1, #16711680	; 0xff0000
    2ccc:	430a      	orrs	r2, r1
    2cce:	0a1b      	lsrs	r3, r3, #8
    2cd0:	f403 437f 	and.w	r3, r3, #65280	; 0xff00
    2cd4:	4313      	orrs	r3, r2
    2cd6:	623b      	str	r3, [r7, #32]
      pServer_hdr->outorder_cnt = TCPIP_Helper_htonl( (uint32_t) pIState->outofOrder);
    2cd8:	6b63      	ldr	r3, [r4, #52]	; 0x34
    2cda:	0e1a      	lsrs	r2, r3, #24
    2cdc:	ea42 6203 	orr.w	r2, r2, r3, lsl #24
    2ce0:	0219      	lsls	r1, r3, #8
    2ce2:	f401 017f 	and.w	r1, r1, #16711680	; 0xff0000
    2ce6:	430a      	orrs	r2, r1
    2ce8:	0a1b      	lsrs	r3, r3, #8
    2cea:	f403 437f 	and.w	r3, r3, #65280	; 0xff00
    2cee:	4313      	orrs	r3, r2
    2cf0:	627b      	str	r3, [r7, #36]	; 0x24
      pServer_hdr->datagrams = TCPIP_Helper_htonl( (uint32_t) pIState->lastPktId);
    2cf2:	6ae3      	ldr	r3, [r4, #44]	; 0x2c
    2cf4:	0e1a      	lsrs	r2, r3, #24
    2cf6:	ea42 6203 	orr.w	r2, r2, r3, lsl #24
    2cfa:	0219      	lsls	r1, r3, #8
    2cfc:	f401 017f 	and.w	r1, r1, #16711680	; 0xff0000
    2d00:	430a      	orrs	r2, r1
    2d02:	0a1b      	lsrs	r3, r3, #8
    2d04:	f403 437f 	and.w	r3, r3, #65280	; 0xff00
    2d08:	4313      	orrs	r3, r2
    2d0a:	62bb      	str	r3, [r7, #40]	; 0x28
      pServer_hdr->jitter1 = 0;
    2d0c:	62fd      	str	r5, [r7, #44]	; 0x2c
      pServer_hdr->jitter2 = 0;
    2d0e:	633d      	str	r5, [r7, #48]	; 0x30
      TCPIP_UDP_ArrayPut(pIState->udpSock, (uint8_t*)g_bfr, MAX_BUFFER);
    2d10:	2234      	movs	r2, #52	; 0x34
    2d12:	4639      	mov	r1, r7
    2d14:	f9b4 003c 	ldrsh.w	r0, [r4, #60]	; 0x3c
    2d18:	f019 ff9f 	bl	1cc5a <TCPIP_UDP_ArrayPut>
      memset(tmpBuffer, 0, sizeof(tmpBuffer));
    2d1c:	f04f 094c 	mov.w	r9, #76	; 0x4c
    2d20:	464a      	mov	r2, r9
    2d22:	4629      	mov	r1, r5
    2d24:	a806      	add	r0, sp, #24
    2d26:	f01e ffb1 	bl	21c8c <memset>
      TCPIP_UDP_ArrayPut(pIState->udpSock, tmpBuffer, sizeof(tmpBuffer));
    2d2a:	464a      	mov	r2, r9
    2d2c:	a906      	add	r1, sp, #24
    2d2e:	f9b4 003c 	ldrsh.w	r0, [r4, #60]	; 0x3c
    2d32:	f019 ff92 	bl	1cc5a <TCPIP_UDP_ArrayPut>
      TCPIP_UDP_Flush(pIState->udpSock );
    2d36:	f9b4 003c 	ldrsh.w	r0, [r4, #60]	; 0x3c
    2d3a:	f00b f9d5 	bl	e0e8 <TCPIP_UDP_Flush>
    2d3e:	e0f8      	b.n	2f32 <TCPIP_IPERF_Task+0x772>
        ReportBW_Jitter_Loss(pIState, SESSION_REPORT);
    2d40:	2102      	movs	r1, #2
    2d42:	4620      	mov	r0, r4
    2d44:	f00a fb06 	bl	d354 <ReportBW_Jitter_Loss>
        pIState->statusReported = 1;
    2d48:	2301      	movs	r3, #1
    2d4a:	f884 30cd 	strb.w	r3, [r4, #205]	; 0xcd
    2d4e:	e742      	b.n	2bd6 <TCPIP_IPERF_Task+0x416>
        TCPIP_UDP_Discard(pIState->udpSock);
    2d50:	f9b4 003c 	ldrsh.w	r0, [r4, #60]	; 0x3c
    2d54:	f01d fd59 	bl	2080a <TCPIP_UDP_Discard>
        return;
    2d58:	e0eb      	b.n	2f32 <TCPIP_IPERF_Task+0x772>
        IperfSetState(pIState, IPERF_RX_DONE_STATE);
    2d5a:	2109      	movs	r1, #9
    2d5c:	4620      	mov	r0, r4
    2d5e:	f019 f98b 	bl	1c078 <IperfSetState>
        return;
    2d62:	e0e6      	b.n	2f32 <TCPIP_IPERF_Task+0x772>
   if ( pIState->stopRequested == true )
    2d64:	f894 30cf 	ldrb.w	r3, [r4, #207]	; 0xcf
    2d68:	2b01      	cmp	r3, #1
    2d6a:	d024      	beq.n	2db6 <TCPIP_IPERF_Task+0x5f6>
   if( TCPIP_TCP_IsConnected(pIState->tcpServerSock) )
    2d6c:	f9b4 0038 	ldrsh.w	r0, [r4, #56]	; 0x38
    2d70:	f01d fa84 	bl	2027c <TCPIP_TCP_IsConnected>
    2d74:	2800      	cmp	r0, #0
    2d76:	f000 80dc 	beq.w	2f32 <TCPIP_IPERF_Task+0x772>
	  TCPIP_TCP_SocketInfoGet( pIState->tcpServerSock, &tcpSocketInfo);
    2d7a:	a906      	add	r1, sp, #24
    2d7c:	f9b4 0038 	ldrsh.w	r0, [r4, #56]	; 0x38
    2d80:	f016 fe44 	bl	19a0c <TCPIP_TCP_SocketInfoGet>
      memcpy ( (void *) &pIState->remoteSide, &tcpSocketInfo, sizeof ( TCP_SOCKET_INFO) );
    2d84:	f104 0c40 	add.w	ip, r4, #64	; 0x40
    2d88:	ad06      	add	r5, sp, #24
    2d8a:	cd0f      	ldmia	r5!, {r0, r1, r2, r3}
    2d8c:	e8ac 000f 	stmia.w	ip!, {r0, r1, r2, r3}
    2d90:	cd0f      	ldmia	r5!, {r0, r1, r2, r3}
    2d92:	e8ac 000f 	stmia.w	ip!, {r0, r1, r2, r3}
    2d96:	cd0f      	ldmia	r5!, {r0, r1, r2, r3}
    2d98:	e8ac 000f 	stmia.w	ip!, {r0, r1, r2, r3}
    2d9c:	e895 0003 	ldmia.w	r5, {r0, r1}
    2da0:	e88c 0003 	stmia.w	ip, {r0, r1}
      IperfSetState(pIState, IPERF_TCP_RX_STATE);
    2da4:	2107      	movs	r1, #7
    2da6:	4620      	mov	r0, r4
    2da8:	f019 f966 	bl	1c078 <IperfSetState>
      TCPIP_TCP_WasReset(pIState->tcpServerSock);
    2dac:	f9b4 0038 	ldrsh.w	r0, [r4, #56]	; 0x38
    2db0:	f01c ff2b 	bl	1fc0a <TCPIP_TCP_WasReset>
    2db4:	e0bd      	b.n	2f32 <TCPIP_IPERF_Task+0x772>
        IperfSetState(pIState, IPERF_RX_DONE_STATE);
    2db6:	2109      	movs	r1, #9
    2db8:	4620      	mov	r0, r4
    2dba:	f019 f95d 	bl	1c078 <IperfSetState>
        return;
    2dbe:	e0b8      	b.n	2f32 <TCPIP_IPERF_Task+0x772>
    const void* cmdIoParam = pIState->pCmdIO->cmdIoParam;
    2dc0:	f8d4 30c4 	ldr.w	r3, [r4, #196]	; 0xc4
    2dc4:	f8d3 9004 	ldr.w	r9, [r3, #4]
    if( (length = TCPIP_TCP_GetIsReady(pIState->tcpServerSock)) == 0 )
    2dc8:	f9b4 0038 	ldrsh.w	r0, [r4, #56]	; 0x38
    2dcc:	f01e fe43 	bl	21a56 <TCPIP_TCP_GetIsReady>
    2dd0:	4605      	mov	r5, r0
    2dd2:	2800      	cmp	r0, #0
    2dd4:	d066      	beq.n	2ea4 <TCPIP_IPERF_Task+0x6e4>
       if ( pIState->pktId == 0)
    2dd6:	6aa3      	ldr	r3, [r4, #40]	; 0x28
    2dd8:	2b00      	cmp	r3, #0
    2dda:	d14c      	bne.n	2e76 <TCPIP_IPERF_Task+0x6b6>
          (pIState->pCmdIO->pCmdApi->print)(cmdIoParam, "\r\niperf: instance %d session started ...\r\n", pIState - gIperfState);
    2ddc:	4bc7      	ldr	r3, [pc, #796]	; (30fc <TCPIP_IPERF_Task+0x93c>)
    2dde:	1ae3      	subs	r3, r4, r3
    2de0:	10db      	asrs	r3, r3, #3
    2de2:	eb03 02c3 	add.w	r2, r3, r3, lsl #3
    2de6:	eb03 0342 	add.w	r3, r3, r2, lsl #1
    2dea:	ebc3 2343 	rsb	r3, r3, r3, lsl #9
    2dee:	eb03 4383 	add.w	r3, r3, r3, lsl #18
    2df2:	f8d4 20c4 	ldr.w	r2, [r4, #196]	; 0xc4
    2df6:	6812      	ldr	r2, [r2, #0]
    2df8:	f8d2 a004 	ldr.w	sl, [r2, #4]
    2dfc:	425a      	negs	r2, r3
    2dfe:	f208 71d4 	addw	r1, r8, #2004	; 0x7d4
    2e02:	4648      	mov	r0, r9
    2e04:	47d0      	blx	sl
          pIState->startTime = SYS_TMR_TickCountGet();
    2e06:	f01d f971 	bl	200ec <SYS_TMR_TickCountGet>
    2e0a:	f8c4 0088 	str.w	r0, [r4, #136]	; 0x88
          pIState->lastCheckTime = 	pIState->startTime;
    2e0e:	f8c4 00a8 	str.w	r0, [r4, #168]	; 0xa8
          pIState->lastCheckPktId = pIState->pktId;
    2e12:	6aa3      	ldr	r3, [r4, #40]	; 0x28
    2e14:	f8c4 309c 	str.w	r3, [r4, #156]	; 0x9c
          lclAddress.Val = TCPIP_STACK_NetAddress(TCPIP_TCP_SocketNetGet(pIState->tcpServerSock));
    2e18:	f9b4 0038 	ldrsh.w	r0, [r4, #56]	; 0x38
    2e1c:	f01e fe9e 	bl	21b5c <TCPIP_TCP_SocketNetGet>
    2e20:	f01d ff93 	bl	20d4a <TCPIP_STACK_NetAddress>
          (pIState->pCmdIO->pCmdApi->print)(cmdIoParam, "    - Local  %u.%u.%u.%u port %u connected with\r\n",
    2e24:	f8d4 30c4 	ldr.w	r3, [r4, #196]	; 0xc4
    2e28:	681b      	ldr	r3, [r3, #0]
    2e2a:	8a62      	ldrh	r2, [r4, #18]
    2e2c:	9202      	str	r2, [sp, #8]
    2e2e:	0e02      	lsrs	r2, r0, #24
    2e30:	9201      	str	r2, [sp, #4]
    2e32:	f3c0 4207 	ubfx	r2, r0, #16, #8
    2e36:	9200      	str	r2, [sp, #0]
    2e38:	f8d3 a004 	ldr.w	sl, [r3, #4]
    2e3c:	f3c0 2307 	ubfx	r3, r0, #8, #8
    2e40:	b2c2      	uxtb	r2, r0
    2e42:	f508 61b1 	add.w	r1, r8, #1416	; 0x588
    2e46:	4648      	mov	r0, r9
    2e48:	47d0      	blx	sl
          (pIState->pCmdIO->pCmdApi->print)(cmdIoParam, "    - Remote %u.%u.%u.%u port %u\r\n",
    2e4a:	f8d4 30c4 	ldr.w	r3, [r4, #196]	; 0xc4
    2e4e:	681b      	ldr	r3, [r3, #0]
    2e50:	f8b4 2064 	ldrh.w	r2, [r4, #100]	; 0x64
    2e54:	9202      	str	r2, [sp, #8]
    2e56:	f894 2047 	ldrb.w	r2, [r4, #71]	; 0x47
    2e5a:	9201      	str	r2, [sp, #4]
    2e5c:	f894 2046 	ldrb.w	r2, [r4, #70]	; 0x46
    2e60:	9200      	str	r2, [sp, #0]
    2e62:	f8d3 a004 	ldr.w	sl, [r3, #4]
    2e66:	f894 3045 	ldrb.w	r3, [r4, #69]	; 0x45
    2e6a:	f894 2044 	ldrb.w	r2, [r4, #68]	; 0x44
    2e6e:	f208 51bc 	addw	r1, r8, #1468	; 0x5bc
    2e72:	4648      	mov	r0, r9
    2e74:	47d0      	blx	sl
       pIState->pktId++;
    2e76:	6aa3      	ldr	r3, [r4, #40]	; 0x28
    2e78:	3301      	adds	r3, #1
    2e7a:	62a3      	str	r3, [r4, #40]	; 0x28
       pIState->pktCount++;
    2e7c:	f8d4 2094 	ldr.w	r2, [r4, #148]	; 0x94
    2e80:	3201      	adds	r2, #1
    2e82:	f8c4 2094 	str.w	r2, [r4, #148]	; 0x94
       pIState->lastPktId = pIState->pktId;
    2e86:	62e3      	str	r3, [r4, #44]	; 0x2c
       pIState->totalLen += length;
    2e88:	4628      	mov	r0, r5
    2e8a:	f008 fa7f 	bl	b38c <__aeabi_i2d>
    2e8e:	4602      	mov	r2, r0
    2e90:	460b      	mov	r3, r1
    2e92:	e9d4 0108 	ldrd	r0, r1, [r4, #32]
    2e96:	f008 f92d 	bl	b0f4 <__adddf3>
    2e9a:	e9c4 0108 	strd	r0, r1, [r4, #32]
          TCPIP_TCP_ArrayGet( pIState->tcpServerSock, (uint8_t*)g_bfr, chunk);
    2e9e:	f04f 0934 	mov.w	r9, #52	; 0x34
    2ea2:	e01b      	b.n	2edc <TCPIP_IPERF_Task+0x71c>
      if ( TCPIP_TCP_WasReset(pIState->tcpServerSock) || TCPIP_TCP_WasDisconnected(pIState->tcpServerSock)  )
    2ea4:	f9b4 0038 	ldrsh.w	r0, [r4, #56]	; 0x38
    2ea8:	f01c feaf 	bl	1fc0a <TCPIP_TCP_WasReset>
    2eac:	b920      	cbnz	r0, 2eb8 <TCPIP_IPERF_Task+0x6f8>
    2eae:	f9b4 0038 	ldrsh.w	r0, [r4, #56]	; 0x38
    2eb2:	f01e fc5a 	bl	2176a <TCPIP_TCP_WasDisconnected>
    2eb6:	b1c8      	cbz	r0, 2eec <TCPIP_IPERF_Task+0x72c>
          pIState->stopTime = SYS_TMR_TickCountGet();
    2eb8:	f01d f918 	bl	200ec <SYS_TMR_TickCountGet>
    2ebc:	f8c4 008c 	str.w	r0, [r4, #140]	; 0x8c
          IperfSetState(pIState, IPERF_TCP_RX_DONE_STATE);
    2ec0:	2108      	movs	r1, #8
    2ec2:	4620      	mov	r0, r4
    2ec4:	f019 f8d8 	bl	1c078 <IperfSetState>
          return;
    2ec8:	e033      	b.n	2f32 <TCPIP_IPERF_Task+0x772>
          TCPIP_TCP_ArrayGet( pIState->tcpServerSock, (uint8_t*)g_bfr, chunk);
    2eca:	464a      	mov	r2, r9
    2ecc:	4639      	mov	r1, r7
    2ece:	f9b4 0038 	ldrsh.w	r0, [r4, #56]	; 0x38
    2ed2:	f012 fd41 	bl	15958 <TCPIP_TCP_ArrayGet>
          length -= chunk;
    2ed6:	3d34      	subs	r5, #52	; 0x34
    2ed8:	b2ad      	uxth	r5, r5
       while ( length > 0 )
    2eda:	b13d      	cbz	r5, 2eec <TCPIP_IPERF_Task+0x72c>
          if ( length <  (uint16_t)MAX_BUFFER )
    2edc:	2d33      	cmp	r5, #51	; 0x33
    2ede:	d8f4      	bhi.n	2eca <TCPIP_IPERF_Task+0x70a>
          TCPIP_TCP_ArrayGet( pIState->tcpServerSock, (uint8_t*)g_bfr, chunk);
    2ee0:	462a      	mov	r2, r5
    2ee2:	4639      	mov	r1, r7
    2ee4:	f9b4 0038 	ldrsh.w	r0, [r4, #56]	; 0x38
    2ee8:	f012 fd36 	bl	15958 <TCPIP_TCP_ArrayGet>
    if ((pIState->pktId != (long)0) &&
    2eec:	6aa3      	ldr	r3, [r4, #40]	; 0x28
    2eee:	b963      	cbnz	r3, 2f0a <TCPIP_IPERF_Task+0x74a>
    if ( pIState->stopRequested == true )
    2ef0:	f894 30cf 	ldrb.w	r3, [r4, #207]	; 0xcf
    2ef4:	2b01      	cmp	r3, #1
    2ef6:	d11c      	bne.n	2f32 <TCPIP_IPERF_Task+0x772>
       IperfSetState(pIState, IPERF_TCP_RX_DONE_STATE);
    2ef8:	2108      	movs	r1, #8
    2efa:	4620      	mov	r0, r4
    2efc:	f019 f8bc 	bl	1c078 <IperfSetState>
       pIState->stopTime = SYS_TMR_TickCountGet();
    2f00:	f01d f8f4 	bl	200ec <SYS_TMR_TickCountGet>
    2f04:	f8c4 008c 	str.w	r0, [r4, #140]	; 0x8c
       return;
    2f08:	e013      	b.n	2f32 <TCPIP_IPERF_Task+0x772>
       ((int32_t)(SYS_TMR_TickCountGet() - pIState->lastCheckTime) > pIState->mInterval) )
    2f0a:	f01d f8ef 	bl	200ec <SYS_TMR_TickCountGet>
    2f0e:	f8d4 30a8 	ldr.w	r3, [r4, #168]	; 0xa8
    2f12:	1ac3      	subs	r3, r0, r3
    if ((pIState->pktId != (long)0) &&
    2f14:	6822      	ldr	r2, [r4, #0]
    2f16:	4293      	cmp	r3, r2
    2f18:	d9ea      	bls.n	2ef0 <TCPIP_IPERF_Task+0x730>
         ReportBW_Jitter_Loss(pIState, INTERVAL_REPORT);
    2f1a:	2100      	movs	r1, #0
    2f1c:	4620      	mov	r0, r4
    2f1e:	f00a fa19 	bl	d354 <ReportBW_Jitter_Loss>
    2f22:	e7e5      	b.n	2ef0 <TCPIP_IPERF_Task+0x730>
    if ( pIState->statusReported == 0u )
    2f24:	f894 30cd 	ldrb.w	r3, [r4, #205]	; 0xcd
    2f28:	b3c3      	cbz	r3, 2f9c <TCPIP_IPERF_Task+0x7dc>
    IperfSetState(pIState, IPERF_RX_DONE_STATE);
    2f2a:	2109      	movs	r1, #9
    2f2c:	4620      	mov	r0, r4
    2f2e:	f019 f8a3 	bl	1c078 <IperfSetState>
        for(i = 0, pIState = gIperfState; i < nIperfSessions; i++, pIState++)
    2f32:	3601      	adds	r6, #1
    2f34:	34d8      	adds	r4, #216	; 0xd8
    2f36:	4b72      	ldr	r3, [pc, #456]	; (3100 <TCPIP_IPERF_Task+0x940>)
    2f38:	681b      	ldr	r3, [r3, #0]
    2f3a:	42b3      	cmp	r3, r6
    2f3c:	f340 82d4 	ble.w	34e8 <TCPIP_IPERF_Task+0xd28>
	if (pIState->state == IPERF_STANDBY_STATE)
    2f40:	f894 30ce 	ldrb.w	r3, [r4, #206]	; 0xce
    2f44:	2b01      	cmp	r3, #1
    2f46:	d0f4      	beq.n	2f32 <TCPIP_IPERF_Task+0x772>
    switch ( pIState->state )
    2f48:	3b02      	subs	r3, #2
    2f4a:	2b10      	cmp	r3, #16
    2f4c:	f200 82b1 	bhi.w	34b2 <TCPIP_IPERF_Task+0xcf2>
    2f50:	a201      	add	r2, pc, #4	; (adr r2, 2f58 <TCPIP_IPERF_Task+0x798>)
    2f52:	f852 f023 	ldr.w	pc, [r2, r3, lsl #2]
    2f56:	bf00      	nop
    2f58:	000027f9 	.word	0x000027f9
    2f5c:	000028f1 	.word	0x000028f1
    2f60:	00002b9f 	.word	0x00002b9f
    2f64:	00002bcd 	.word	0x00002bcd
    2f68:	00002d65 	.word	0x00002d65
    2f6c:	00002dc1 	.word	0x00002dc1
    2f70:	00002f25 	.word	0x00002f25
    2f74:	00002fad 	.word	0x00002fad
    2f78:	00003051 	.word	0x00003051
    2f7c:	0000306f 	.word	0x0000306f
    2f80:	00003233 	.word	0x00003233
    2f84:	00003317 	.word	0x00003317
    2f88:	0000339f 	.word	0x0000339f
    2f8c:	0000348d 	.word	0x0000348d
    2f90:	00003143 	.word	0x00003143
    2f94:	000033ff 	.word	0x000033ff
    2f98:	000034a3 	.word	0x000034a3
        ReportBW_Jitter_Loss(pIState, SESSION_REPORT);
    2f9c:	2102      	movs	r1, #2
    2f9e:	4620      	mov	r0, r4
    2fa0:	f00a f9d8 	bl	d354 <ReportBW_Jitter_Loss>
        pIState->statusReported = 1;
    2fa4:	2301      	movs	r3, #1
    2fa6:	f884 30cd 	strb.w	r3, [r4, #205]	; 0xcd
    2faa:	e7be      	b.n	2f2a <TCPIP_IPERF_Task+0x76a>
    const void* cmdIoParam = pIState->pCmdIO->cmdIoParam;
    2fac:	f8d4 30c4 	ldr.w	r3, [r4, #196]	; 0xc4
    2fb0:	685d      	ldr	r5, [r3, #4]
   switch( pIState->mProtocol)
    2fb2:	7c23      	ldrb	r3, [r4, #16]
    2fb4:	2b01      	cmp	r3, #1
    2fb6:	d02c      	beq.n	3012 <TCPIP_IPERF_Task+0x852>
    2fb8:	2b02      	cmp	r3, #2
    2fba:	d02f      	beq.n	301c <TCPIP_IPERF_Task+0x85c>
    (pIState->pCmdIO->pCmdApi->print)(cmdIoParam, "\r\niperf instance %d: Rx done. Socket closed.\r\n", pIState - gIperfState);
    2fbc:	4b4f      	ldr	r3, [pc, #316]	; (30fc <TCPIP_IPERF_Task+0x93c>)
    2fbe:	1ae3      	subs	r3, r4, r3
    2fc0:	10db      	asrs	r3, r3, #3
    2fc2:	eb03 02c3 	add.w	r2, r3, r3, lsl #3
    2fc6:	eb03 0342 	add.w	r3, r3, r2, lsl #1
    2fca:	ebc3 2343 	rsb	r3, r3, r3, lsl #9
    2fce:	eb03 4383 	add.w	r3, r3, r3, lsl #18
    2fd2:	f1c3 0900 	rsb	r9, r3, #0
    2fd6:	f8d4 30c4 	ldr.w	r3, [r4, #196]	; 0xc4
    2fda:	681b      	ldr	r3, [r3, #0]
    2fdc:	685b      	ldr	r3, [r3, #4]
    2fde:	464a      	mov	r2, r9
    2fe0:	f508 6100 	add.w	r1, r8, #2048	; 0x800
    2fe4:	4628      	mov	r0, r5
    2fe6:	4798      	blx	r3
    ResetIperfCounters(pIState);
    2fe8:	4620      	mov	r0, r4
    2fea:	f019 fd07 	bl	1c9fc <ResetIperfCounters>
    if ((pIState->mServerMode == true) 	&&
    2fee:	f894 30d1 	ldrb.w	r3, [r4, #209]	; 0xd1
    2ff2:	2b01      	cmp	r3, #1
    2ff4:	d01a      	beq.n	302c <TCPIP_IPERF_Task+0x86c>
        (pIState->pCmdIO->pCmdApi->print)(cmdIoParam, "iperf instance %d: completed.\r\n", pIState - gIperfState);
    2ff6:	f8d4 30c4 	ldr.w	r3, [r4, #196]	; 0xc4
    2ffa:	681b      	ldr	r3, [r3, #0]
    2ffc:	685b      	ldr	r3, [r3, #4]
    2ffe:	464a      	mov	r2, r9
    3000:	f608 0164 	addw	r1, r8, #2148	; 0x864
    3004:	4628      	mov	r0, r5
    3006:	4798      	blx	r3
        IperfSetState(pIState, IPERF_STANDBY_STATE);
    3008:	2101      	movs	r1, #1
    300a:	4620      	mov	r0, r4
    300c:	f019 f834 	bl	1c078 <IperfSetState>
    3010:	e78f      	b.n	2f32 <TCPIP_IPERF_Task+0x772>
           TCPIP_UDP_Close(  pIState->udpSock );
    3012:	f9b4 003c 	ldrsh.w	r0, [r4, #60]	; 0x3c
    3016:	f01c f987 	bl	1f328 <TCPIP_UDP_Close>
           break;
    301a:	e7cf      	b.n	2fbc <TCPIP_IPERF_Task+0x7fc>
           TCPIP_TCP_Close( pIState->tcpServerSock );
    301c:	f9b4 0038 	ldrsh.w	r0, [r4, #56]	; 0x38
    3020:	f01b f85b 	bl	1e0da <TCPIP_TCP_Close>
           pIState->tcpServerSock = INVALID_SOCKET;
    3024:	f64f 73ff 	movw	r3, #65535	; 0xffff
    3028:	8723      	strh	r3, [r4, #56]	; 0x38
           break;
    302a:	e7c7      	b.n	2fbc <TCPIP_IPERF_Task+0x7fc>
    if ((pIState->mServerMode == true) 	&&
    302c:	f894 30cf 	ldrb.w	r3, [r4, #207]	; 0xcf
    3030:	2b00      	cmp	r3, #0
    3032:	d1e0      	bne.n	2ff6 <TCPIP_IPERF_Task+0x836>
        (pIState->pCmdIO->pCmdApi->print)(cmdIoParam, "iperf instance %d: Ready for the next session.\r\n", pIState - gIperfState);
    3034:	f8d4 30c4 	ldr.w	r3, [r4, #196]	; 0xc4
    3038:	681b      	ldr	r3, [r3, #0]
    303a:	685b      	ldr	r3, [r3, #4]
    303c:	464a      	mov	r2, r9
    303e:	f508 6103 	add.w	r1, r8, #2096	; 0x830
    3042:	4628      	mov	r0, r5
    3044:	4798      	blx	r3
        IperfSetState(pIState, IPERF_RX_START_STATE);
    3046:	2102      	movs	r1, #2
    3048:	4620      	mov	r0, r4
    304a:	f019 f815 	bl	1c078 <IperfSetState>
    304e:	e770      	b.n	2f32 <TCPIP_IPERF_Task+0x772>
   TCPIP_ARP_Resolve(pIState->pNetIf, &pIState->remoteSide.remoteIPaddress.v4Add);
    3050:	f104 0144 	add.w	r1, r4, #68	; 0x44
    3054:	f8d4 00c8 	ldr.w	r0, [r4, #200]	; 0xc8
    3058:	f01a f95f 	bl	1d31a <TCPIP_ARP_Resolve>
   IperfSetState(pIState, IPERF_TX_ARP_RESOLVE_STATE);
    305c:	210b      	movs	r1, #11
    305e:	4620      	mov	r0, r4
    3060:	f019 f80a 	bl	1c078 <IperfSetState>
   pIState->timer = SYS_TMR_TickCountGet();
    3064:	f01d f842 	bl	200ec <SYS_TMR_TickCountGet>
    3068:	f8c4 00ac 	str.w	r0, [r4, #172]	; 0xac
    306c:	e761      	b.n	2f32 <TCPIP_IPERF_Task+0x772>
    const void* cmdIoParam = pIState->pCmdIO->cmdIoParam;
    306e:	f8d4 30c4 	ldr.w	r3, [r4, #196]	; 0xc4
    3072:	685d      	ldr	r5, [r3, #4]
  if ( pIState->stopRequested == true )
    3074:	f894 20cf 	ldrb.w	r2, [r4, #207]	; 0xcf
    3078:	2a01      	cmp	r2, #1
    307a:	d011      	beq.n	30a0 <TCPIP_IPERF_Task+0x8e0>
  if(!(TCPIP_Helper_IsMcastAddress(&pIState->remoteSide.remoteIPaddress.v4Add)))
    307c:	f894 3044 	ldrb.w	r3, [r4, #68]	; 0x44
    3080:	f003 03f0 	and.w	r3, r3, #240	; 0xf0
    3084:	2be0      	cmp	r3, #224	; 0xe0
    3086:	d116      	bne.n	30b6 <TCPIP_IPERF_Task+0x8f6>
  if ( pIState->mProtocol == UDP_PROTOCOL )
    3088:	7c23      	ldrb	r3, [r4, #16]
    308a:	2b01      	cmp	r3, #1
    308c:	d054      	beq.n	3138 <TCPIP_IPERF_Task+0x978>
  if ( pIState->mProtocol == TCP_PROTOCOL )
    308e:	7c23      	ldrb	r3, [r4, #16]
    3090:	2b02      	cmp	r3, #2
    3092:	f47f af4e 	bne.w	2f32 <TCPIP_IPERF_Task+0x772>
     IperfSetState(pIState, IPERF_TCP_TX_OPEN_STATE);
    3096:	210c      	movs	r1, #12
    3098:	4620      	mov	r0, r4
    309a:	f018 ffed 	bl	1c078 <IperfSetState>
    309e:	e748      	b.n	2f32 <TCPIP_IPERF_Task+0x772>
     (pIState->pCmdIO->pCmdApi->msg)(cmdIoParam, "iperf: client session closed.\r\n");
    30a0:	681b      	ldr	r3, [r3, #0]
    30a2:	681b      	ldr	r3, [r3, #0]
    30a4:	f608 0184 	addw	r1, r8, #2180	; 0x884
    30a8:	4628      	mov	r0, r5
    30aa:	4798      	blx	r3
     IperfSetState(pIState, IPERF_STANDBY_STATE);
    30ac:	2101      	movs	r1, #1
    30ae:	4620      	mov	r0, r4
    30b0:	f018 ffe2 	bl	1c078 <IperfSetState>
     return;
    30b4:	e73d      	b.n	2f32 <TCPIP_IPERF_Task+0x772>
    if(!TCPIP_ARP_IsResolved(pIState->pNetIf, &pIState->remoteSide.remoteIPaddress.v4Add, &pIState->remoteMACAddr))
    30b6:	f104 0278 	add.w	r2, r4, #120	; 0x78
    30ba:	f104 0144 	add.w	r1, r4, #68	; 0x44
    30be:	f8d4 00c8 	ldr.w	r0, [r4, #200]	; 0xc8
    30c2:	f015 fa6f 	bl	185a4 <TCPIP_ARP_IsResolved>
    30c6:	b1e8      	cbz	r0, 3104 <TCPIP_IPERF_Task+0x944>
    (pIState->pCmdIO->pCmdApi->print)(cmdIoParam, "    - RemoteNode MAC: %x %x %x %x %x %x\r\n",
    30c8:	f8d4 30c4 	ldr.w	r3, [r4, #196]	; 0xc4
    30cc:	681b      	ldr	r3, [r3, #0]
    30ce:	f894 207d 	ldrb.w	r2, [r4, #125]	; 0x7d
    30d2:	9203      	str	r2, [sp, #12]
    30d4:	f894 207c 	ldrb.w	r2, [r4, #124]	; 0x7c
    30d8:	9202      	str	r2, [sp, #8]
    30da:	f894 207b 	ldrb.w	r2, [r4, #123]	; 0x7b
    30de:	9201      	str	r2, [sp, #4]
    30e0:	f894 207a 	ldrb.w	r2, [r4, #122]	; 0x7a
    30e4:	9200      	str	r2, [sp, #0]
    30e6:	f8d3 9004 	ldr.w	r9, [r3, #4]
    30ea:	f894 3079 	ldrb.w	r3, [r4, #121]	; 0x79
    30ee:	f894 2078 	ldrb.w	r2, [r4, #120]	; 0x78
    30f2:	f608 01e4 	addw	r1, r8, #2276	; 0x8e4
    30f6:	4628      	mov	r0, r5
    30f8:	47c8      	blx	r9
    30fa:	e7c5      	b.n	3088 <TCPIP_IPERF_Task+0x8c8>
    30fc:	2000d9b0 	.word	0x2000d9b0
    3100:	2000e3f0 	.word	0x2000e3f0
        if( SYS_TMR_TickCountGet() - pIState->timer > 5 * SYS_TMR_TickCounterFrequencyGet() )
    3104:	f01c fff2 	bl	200ec <SYS_TMR_TickCountGet>
    3108:	f8d4 30ac 	ldr.w	r3, [r4, #172]	; 0xac
    310c:	eba0 0903 	sub.w	r9, r0, r3
    3110:	f01d f814 	bl	2013c <SYS_TMR_TickCounterFrequencyGet>
    3114:	eb00 0080 	add.w	r0, r0, r0, lsl #2
    3118:	4581      	cmp	r9, r0
    311a:	f67f af0a 	bls.w	2f32 <TCPIP_IPERF_Task+0x772>
            (pIState->pCmdIO->pCmdApi->msg)(cmdIoParam, "iperf: ARP unable to resolve the MAC address of remote side.\r\n");
    311e:	f8d4 30c4 	ldr.w	r3, [r4, #196]	; 0xc4
    3122:	681b      	ldr	r3, [r3, #0]
    3124:	681b      	ldr	r3, [r3, #0]
    3126:	f608 01a4 	addw	r1, r8, #2212	; 0x8a4
    312a:	4628      	mov	r0, r5
    312c:	4798      	blx	r3
            pIState->timer = SYS_TMR_TickCountGet();
    312e:	f01c ffdd 	bl	200ec <SYS_TMR_TickCountGet>
    3132:	f8c4 00ac 	str.w	r0, [r4, #172]	; 0xac
    3136:	e6fc      	b.n	2f32 <TCPIP_IPERF_Task+0x772>
     IperfSetState(pIState, IPERF_UDP_TX_OPEN_STATE);
    3138:	2110      	movs	r1, #16
    313a:	4620      	mov	r0, r4
    313c:	f018 ff9c 	bl	1c078 <IperfSetState>
    3140:	e7a5      	b.n	308e <TCPIP_IPERF_Task+0x8ce>
    const void* cmdIoParam = pIState->pCmdIO->cmdIoParam;
    3142:	f8d4 30c4 	ldr.w	r3, [r4, #196]	; 0xc4
    3146:	685d      	ldr	r5, [r3, #4]
    if ( (pIState->udpSock = TCPIP_UDP_ClientOpen(IP_ADDRESS_TYPE_IPV4, pIState->mServerPort, (IP_MULTI_ADDRESS*)&pIState->remoteSide.remoteIPaddress.v4Add)) == INVALID_UDP_SOCKET )
    3148:	f104 0244 	add.w	r2, r4, #68	; 0x44
    314c:	8a61      	ldrh	r1, [r4, #18]
    314e:	2001      	movs	r0, #1
    3150:	f01e fff8 	bl	22144 <TCPIP_UDP_ClientOpen>
    3154:	87a0      	strh	r0, [r4, #60]	; 0x3c
    3156:	f1b0 3fff 	cmp.w	r0, #4294967295
    315a:	d05d      	beq.n	3218 <TCPIP_IPERF_Task+0xa58>
    TCPIP_UDP_SignalHandlerRegister(pIState->udpSock, TCPIP_UDP_SIGNAL_RX_DATA, _IperfUDPRxSignalHandler, 0);
    315c:	2300      	movs	r3, #0
    315e:	4ac9      	ldr	r2, [pc, #804]	; (3484 <TCPIP_IPERF_Task+0xcc4>)
    3160:	f44f 7180 	mov.w	r1, #256	; 0x100
    3164:	f01a f965 	bl	1d432 <TCPIP_UDP_SignalHandlerRegister>
    if(!TCPIP_UDP_OptionsSet(pIState->udpSock, UDP_OPTION_TX_BUFF, (void*)pIState->mDatagramSize))
    3168:	68e2      	ldr	r2, [r4, #12]
    316a:	2105      	movs	r1, #5
    316c:	f9b4 003c 	ldrsh.w	r0, [r4, #60]	; 0x3c
    3170:	f00b fbde 	bl	e930 <TCPIP_UDP_OptionsSet>
    3174:	b938      	cbnz	r0, 3186 <TCPIP_IPERF_Task+0x9c6>
        (pIState->pCmdIO->pCmdApi->msg)(cmdIoParam, "iperf: Set of TX buffer size failed\r\n");
    3176:	f8d4 30c4 	ldr.w	r3, [r4, #196]	; 0xc4
    317a:	681b      	ldr	r3, [r3, #0]
    317c:	681b      	ldr	r3, [r3, #0]
    317e:	f508 6111 	add.w	r1, r8, #2320	; 0x910
    3182:	4628      	mov	r0, r5
    3184:	4798      	blx	r3
    if(!TCPIP_UDP_OptionsSet(pIState->udpSock, UDP_OPTION_TX_QUEUE_LIMIT, (void*)TCPIP_IPERF_TX_QUEUE_LIMIT))
    3186:	2202      	movs	r2, #2
    3188:	2106      	movs	r1, #6
    318a:	f9b4 003c 	ldrsh.w	r0, [r4, #60]	; 0x3c
    318e:	f00b fbcf 	bl	e930 <TCPIP_UDP_OptionsSet>
    3192:	b938      	cbnz	r0, 31a4 <TCPIP_IPERF_Task+0x9e4>
        (pIState->pCmdIO->pCmdApi->msg)(cmdIoParam, "iperf: Set of TX queuing limit failed\r\n");
    3194:	f8d4 30c4 	ldr.w	r3, [r4, #196]	; 0xc4
    3198:	681b      	ldr	r3, [r3, #0]
    319a:	681b      	ldr	r3, [r3, #0]
    319c:	f608 1138 	addw	r1, r8, #2360	; 0x938
    31a0:	4628      	mov	r0, r5
    31a2:	4798      	blx	r3
    TCPIP_UDP_SocketNetSet(pIState->udpSock, pIState->pNetIf);
    31a4:	f8d4 10c8 	ldr.w	r1, [r4, #200]	; 0xc8
    31a8:	f9b4 003c 	ldrsh.w	r0, [r4, #60]	; 0x3c
    31ac:	f01a fd62 	bl	1dc74 <TCPIP_UDP_SocketNetSet>
	TCPIP_UDP_SocketInfoGet(pIState->udpSock, &UdpSkt);
    31b0:	a906      	add	r1, sp, #24
    31b2:	f9b4 003c 	ldrsh.w	r0, [r4, #60]	; 0x3c
    31b6:	f018 f87d 	bl	1b2b4 <TCPIP_UDP_SocketInfoGet>
    pIState->localPort = UdpSkt.localPort;
    31ba:	f8bd 305e 	ldrh.w	r3, [sp, #94]	; 0x5e
    31be:	f8a4 307e 	strh.w	r3, [r4, #126]	; 0x7e
    (pIState->pCmdIO->pCmdApi->msg)(cmdIoParam, "---------------------------------------------------------\r\n");
    31c2:	f8d4 30c4 	ldr.w	r3, [r4, #196]	; 0xc4
    31c6:	681b      	ldr	r3, [r3, #0]
    31c8:	681b      	ldr	r3, [r3, #0]
    31ca:	f508 7167 	add.w	r1, r8, #924	; 0x39c
    31ce:	4628      	mov	r0, r5
    31d0:	4798      	blx	r3
    (pIState->pCmdIO->pCmdApi->print)(cmdIoParam,  "iperf: Client connecting to %u.%u.%u.%u, UDP port %u\r\n",
    31d2:	f8d4 30c4 	ldr.w	r3, [r4, #196]	; 0xc4
    31d6:	681b      	ldr	r3, [r3, #0]
    31d8:	8a62      	ldrh	r2, [r4, #18]
    31da:	9202      	str	r2, [sp, #8]
    31dc:	f894 2047 	ldrb.w	r2, [r4, #71]	; 0x47
    31e0:	9201      	str	r2, [sp, #4]
    31e2:	f894 2046 	ldrb.w	r2, [r4, #70]	; 0x46
    31e6:	9200      	str	r2, [sp, #0]
    31e8:	f8d3 9004 	ldr.w	r9, [r3, #4]
    31ec:	f894 3045 	ldrb.w	r3, [r4, #69]	; 0x45
    31f0:	f894 2044 	ldrb.w	r2, [r4, #68]	; 0x44
    31f4:	f508 6116 	add.w	r1, r8, #2400	; 0x960
    31f8:	4628      	mov	r0, r5
    31fa:	47c8      	blx	r9
    IperfSetState(pIState, IPERF_UDP_TX_DATAGRAM_STATE);
    31fc:	2111      	movs	r1, #17
    31fe:	4620      	mov	r0, r4
    3200:	f018 ff3a 	bl	1c078 <IperfSetState>
    pIState->startTime = SYS_TMR_TickCountGet();
    3204:	f01c ff72 	bl	200ec <SYS_TMR_TickCountGet>
    3208:	f8c4 0088 	str.w	r0, [r4, #136]	; 0x88
    pIState->nextTxTime = pIState->startTime + pIState->mPktPeriod;
    320c:	f8d4 3084 	ldr.w	r3, [r4, #132]	; 0x84
    3210:	4403      	add	r3, r0
    3212:	f8c4 3090 	str.w	r3, [r4, #144]	; 0x90
    3216:	e68c      	b.n	2f32 <TCPIP_IPERF_Task+0x772>
        (pIState->pCmdIO->pCmdApi->msg)(cmdIoParam, "iperf: Create UDP socket failed\r\n");
    3218:	f8d4 30c4 	ldr.w	r3, [r4, #196]	; 0xc4
    321c:	681b      	ldr	r3, [r3, #0]
    321e:	681b      	ldr	r3, [r3, #0]
    3220:	f208 7114 	addw	r1, r8, #1812	; 0x714
    3224:	4628      	mov	r0, r5
    3226:	4798      	blx	r3
        IperfSetState(pIState, IPERF_STANDBY_STATE);
    3228:	2101      	movs	r1, #1
    322a:	4620      	mov	r0, r4
    322c:	f018 ff24 	bl	1c078 <IperfSetState>
        return;
    3230:	e67f      	b.n	2f32 <TCPIP_IPERF_Task+0x772>
    const void* cmdIoParam = pIState->pCmdIO->cmdIoParam;
    3232:	f8d4 30c4 	ldr.w	r3, [r4, #196]	; 0xc4
    3236:	685d      	ldr	r5, [r3, #4]
   if  ( (pIState->tcpClientSock = TCPIP_TCP_ClientOpen(IP_ADDRESS_TYPE_IPV4, pIState->mServerPort, 0)) == INVALID_SOCKET )
    3238:	2200      	movs	r2, #0
    323a:	8a61      	ldrh	r1, [r4, #18]
    323c:	2001      	movs	r0, #1
    323e:	f01e f818 	bl	21272 <TCPIP_TCP_ClientOpen>
    3242:	8760      	strh	r0, [r4, #58]	; 0x3a
    3244:	f1b0 3fff 	cmp.w	r0, #4294967295
    3248:	d04f      	beq.n	32ea <TCPIP_IPERF_Task+0xb2a>
   TCPIP_TCP_SignalHandlerRegister(pIState->tcpClientSock, TCPIP_TCP_SIGNAL_RX_DATA, _IperfTCPRxSignalHandler, 0);
    324a:	2300      	movs	r3, #0
    324c:	4a8e      	ldr	r2, [pc, #568]	; (3488 <TCPIP_IPERF_Task+0xcc8>)
    324e:	f44f 7100 	mov.w	r1, #512	; 0x200
    3252:	f01a f977 	bl	1d544 <TCPIP_TCP_SignalHandlerRegister>
   if(pIState->localAddr.Val != 0)
    3256:	f8d4 3080 	ldr.w	r3, [r4, #128]	; 0x80
    325a:	2b00      	cmp	r3, #0
    325c:	d152      	bne.n	3304 <TCPIP_IPERF_Task+0xb44>
   TCPIP_TCP_RemoteBind(pIState->tcpClientSock, IP_ADDRESS_TYPE_IPV4, 0,  (IP_MULTI_ADDRESS*)&pIState->remoteSide.remoteIPaddress);
    325e:	f104 0344 	add.w	r3, r4, #68	; 0x44
    3262:	2200      	movs	r2, #0
    3264:	2101      	movs	r1, #1
    3266:	f9b4 003a 	ldrsh.w	r0, [r4, #58]	; 0x3a
    326a:	f019 f8fc 	bl	1c466 <TCPIP_TCP_RemoteBind>
    pIState->localPort = TCPIP_IPERF_TCP_LOCAL_PORT_START_NUMBER;
    326e:	f44f 6380 	mov.w	r3, #1024	; 0x400
    3272:	f8a4 307e 	strh.w	r3, [r4, #126]	; 0x7e
    (pIState->pCmdIO->pCmdApi->msg)(cmdIoParam, "---------------------------------------------------------\r\n");
    3276:	f8d4 30c4 	ldr.w	r3, [r4, #196]	; 0xc4
    327a:	681b      	ldr	r3, [r3, #0]
    327c:	681b      	ldr	r3, [r3, #0]
    327e:	f508 7167 	add.w	r1, r8, #924	; 0x39c
    3282:	4628      	mov	r0, r5
    3284:	4798      	blx	r3
    (pIState->pCmdIO->pCmdApi->print)(cmdIoParam, "iperf: Client connecting to %u.%u.%u.%u, TCP port %u\r\n",
    3286:	f8d4 30c4 	ldr.w	r3, [r4, #196]	; 0xc4
    328a:	681b      	ldr	r3, [r3, #0]
    328c:	8a62      	ldrh	r2, [r4, #18]
    328e:	9202      	str	r2, [sp, #8]
    3290:	f894 2047 	ldrb.w	r2, [r4, #71]	; 0x47
    3294:	9201      	str	r2, [sp, #4]
    3296:	f894 2046 	ldrb.w	r2, [r4, #70]	; 0x46
    329a:	9200      	str	r2, [sp, #0]
    329c:	f8d3 9004 	ldr.w	r9, [r3, #4]
    32a0:	f894 3045 	ldrb.w	r3, [r4, #69]	; 0x45
    32a4:	f894 2044 	ldrb.w	r2, [r4, #68]	; 0x44
    32a8:	f608 1198 	addw	r1, r8, #2456	; 0x998
    32ac:	4628      	mov	r0, r5
    32ae:	47c8      	blx	r9
    IperfSetState(pIState, IPERF_TCP_TX_CONNECT_STATE);
    32b0:	210d      	movs	r1, #13
    32b2:	4620      	mov	r0, r4
    32b4:	f018 fee0 	bl	1c078 <IperfSetState>
    if(!TCPIP_TCP_OptionsSet(pIState->tcpClientSock, TCP_OPTION_TX_BUFF, (void*)pIState->txBuffSize))
    32b8:	f8d4 20b8 	ldr.w	r2, [r4, #184]	; 0xb8
    32bc:	2103      	movs	r1, #3
    32be:	f9b4 003a 	ldrsh.w	r0, [r4, #58]	; 0x3a
    32c2:	f010 fe62 	bl	13f8a <TCPIP_TCP_OptionsSet>
    32c6:	b938      	cbnz	r0, 32d8 <TCPIP_IPERF_Task+0xb18>
        (pIState->pCmdIO->pCmdApi->msg)(cmdIoParam, "iperf: Set of TX buffer size failed\r\n");
    32c8:	f8d4 30c4 	ldr.w	r3, [r4, #196]	; 0xc4
    32cc:	681b      	ldr	r3, [r3, #0]
    32ce:	681b      	ldr	r3, [r3, #0]
    32d0:	f508 6111 	add.w	r1, r8, #2320	; 0x910
    32d4:	4628      	mov	r0, r5
    32d6:	4798      	blx	r3
    TCPIP_TCP_Connect(pIState->tcpClientSock);
    32d8:	f9b4 003a 	ldrsh.w	r0, [r4, #58]	; 0x3a
    32dc:	f01c f971 	bl	1f5c2 <TCPIP_TCP_Connect>
    pIState->timer = SYS_TMR_TickCountGet();
    32e0:	f01c ff04 	bl	200ec <SYS_TMR_TickCountGet>
    32e4:	f8c4 00ac 	str.w	r0, [r4, #172]	; 0xac
    32e8:	e623      	b.n	2f32 <TCPIP_IPERF_Task+0x772>
        (pIState->pCmdIO->pCmdApi->msg)(cmdIoParam, "iperf: Create TCP socket failed\r\n");
    32ea:	f8d4 30c4 	ldr.w	r3, [r4, #196]	; 0xc4
    32ee:	681b      	ldr	r3, [r3, #0]
    32f0:	681b      	ldr	r3, [r3, #0]
    32f2:	f508 61d9 	add.w	r1, r8, #1736	; 0x6c8
    32f6:	4628      	mov	r0, r5
    32f8:	4798      	blx	r3
        IperfSetState(pIState, IPERF_STANDBY_STATE);
    32fa:	2101      	movs	r1, #1
    32fc:	4620      	mov	r0, r4
    32fe:	f018 febb 	bl	1c078 <IperfSetState>
        return;
    3302:	e616      	b.n	2f32 <TCPIP_IPERF_Task+0x772>
       TCPIP_TCP_Bind(pIState->tcpClientSock, IP_ADDRESS_TYPE_IPV4, pIState->mServerPort, (IP_MULTI_ADDRESS*)&pIState->localAddr);
    3304:	f104 0380 	add.w	r3, r4, #128	; 0x80
    3308:	8a62      	ldrh	r2, [r4, #18]
    330a:	2101      	movs	r1, #1
    330c:	f9b4 003a 	ldrsh.w	r0, [r4, #58]	; 0x3a
    3310:	f012 fea6 	bl	16060 <TCPIP_TCP_Bind>
    3314:	e7a3      	b.n	325e <TCPIP_IPERF_Task+0xa9e>
    if ( pIState->stopRequested == true )
    3316:	f894 30cf 	ldrb.w	r3, [r4, #207]	; 0xcf
    331a:	2b01      	cmp	r3, #1
    331c:	d01a      	beq.n	3354 <TCPIP_IPERF_Task+0xb94>
    const void* cmdIoParam = pIState->pCmdIO->cmdIoParam;
    331e:	f8d4 30c4 	ldr.w	r3, [r4, #196]	; 0xc4
    3322:	f8d3 9004 	ldr.w	r9, [r3, #4]
    if( !TCPIP_TCP_IsConnected(pIState->tcpClientSock) )
    3326:	f9b4 003a 	ldrsh.w	r0, [r4, #58]	; 0x3a
    332a:	f01c ffa7 	bl	2027c <TCPIP_TCP_IsConnected>
    332e:	b1b0      	cbz	r0, 335e <TCPIP_IPERF_Task+0xb9e>
    TCPIP_TCP_WasReset(pIState->tcpClientSock);
    3330:	f9b4 003a 	ldrsh.w	r0, [r4, #58]	; 0x3a
    3334:	f01c fc69 	bl	1fc0a <TCPIP_TCP_WasReset>
    pIState->startTime = SYS_TMR_TickCountGet();
    3338:	f01c fed8 	bl	200ec <SYS_TMR_TickCountGet>
    333c:	f8c4 0088 	str.w	r0, [r4, #136]	; 0x88
    pIState->nextTxTime = pIState->startTime + pIState->mPktPeriod;
    3340:	f8d4 3084 	ldr.w	r3, [r4, #132]	; 0x84
    3344:	4403      	add	r3, r0
    3346:	f8c4 3090 	str.w	r3, [r4, #144]	; 0x90
    IperfSetState(pIState, IPERF_TCP_TX_SEGMENT_STATE);
    334a:	210e      	movs	r1, #14
    334c:	4620      	mov	r0, r4
    334e:	f018 fe93 	bl	1c078 <IperfSetState>
    3352:	e5ee      	b.n	2f32 <TCPIP_IPERF_Task+0x772>
        IperfSetState(pIState, IPERF_TCP_TX_DONE_STATE);
    3354:	210f      	movs	r1, #15
    3356:	4620      	mov	r0, r4
    3358:	f018 fe8e 	bl	1c078 <IperfSetState>
        return;
    335c:	e5e9      	b.n	2f32 <TCPIP_IPERF_Task+0x772>
        if(SYS_TMR_TickCountGet()- pIState->timer > 5*SYS_TMR_TickCounterFrequencyGet())
    335e:	f01c fec5 	bl	200ec <SYS_TMR_TickCountGet>
    3362:	f8d4 50ac 	ldr.w	r5, [r4, #172]	; 0xac
    3366:	1b45      	subs	r5, r0, r5
    3368:	f01c fee8 	bl	2013c <SYS_TMR_TickCounterFrequencyGet>
    336c:	eb00 0080 	add.w	r0, r0, r0, lsl #2
    3370:	4285      	cmp	r5, r0
    3372:	f67f adde 	bls.w	2f32 <TCPIP_IPERF_Task+0x772>
            TCPIP_TCP_Close(pIState->tcpClientSock);
    3376:	f9b4 003a 	ldrsh.w	r0, [r4, #58]	; 0x3a
    337a:	f01a feae 	bl	1e0da <TCPIP_TCP_Close>
            pIState->tcpClientSock = INVALID_SOCKET;
    337e:	f64f 73ff 	movw	r3, #65535	; 0xffff
    3382:	8763      	strh	r3, [r4, #58]	; 0x3a
            (pIState->pCmdIO->pCmdApi->msg)(cmdIoParam, "iperf: TCP Client connection timeout\r\n");
    3384:	f8d4 30c4 	ldr.w	r3, [r4, #196]	; 0xc4
    3388:	681b      	ldr	r3, [r3, #0]
    338a:	681b      	ldr	r3, [r3, #0]
    338c:	f508 611d 	add.w	r1, r8, #2512	; 0x9d0
    3390:	4648      	mov	r0, r9
    3392:	4798      	blx	r3
            IperfSetState(pIState, IPERF_TCP_TX_DONE_STATE);
    3394:	210f      	movs	r1, #15
    3396:	4620      	mov	r0, r4
    3398:	f018 fe6e 	bl	1c078 <IperfSetState>
    339c:	e5c9      	b.n	2f32 <TCPIP_IPERF_Task+0x772>
    tIperfTxResult txRes = GenericTxStart(pIState);
    339e:	4620      	mov	r0, r4
    33a0:	f007 fafc 	bl	a99c <GenericTxStart>
    if(txRes == IPERF_TX_OK)
    33a4:	2801      	cmp	r0, #1
    33a6:	d00b      	beq.n	33c0 <TCPIP_IPERF_Task+0xc00>
    else if(txRes == IPERF_TX_FAIL)
    33a8:	2802      	cmp	r0, #2
    33aa:	f47f adc2 	bne.w	2f32 <TCPIP_IPERF_Task+0x772>
        IperfSetState(pIState, IPERF_TCP_TX_DONE_STATE);
    33ae:	210f      	movs	r1, #15
    33b0:	4620      	mov	r0, r4
    33b2:	f018 fe61 	bl	1c078 <IperfSetState>
        pIState->stopTime = SYS_TMR_TickCountGet();
    33b6:	f01c fe99 	bl	200ec <SYS_TMR_TickCountGet>
    33ba:	f8c4 008c 	str.w	r0, [r4, #140]	; 0x8c
    33be:	e5b8      	b.n	2f32 <TCPIP_IPERF_Task+0x772>
  memset( g_bfr, 0x54, MAX_BUFFER);
    33c0:	2234      	movs	r2, #52	; 0x34
    33c2:	2154      	movs	r1, #84	; 0x54
    33c4:	4638      	mov	r0, r7
    33c6:	f01e fc61 	bl	21c8c <memset>
  while( pIState->remainingTxData > 0u )
    33ca:	f8b4 30b0 	ldrh.w	r3, [r4, #176]	; 0xb0
    33ce:	b173      	cbz	r3, 33ee <TCPIP_IPERF_Task+0xc2e>
      chunk = pIState->remainingTxData;
    33d0:	2b33      	cmp	r3, #51	; 0x33
    33d2:	bf94      	ite	ls
    33d4:	461d      	movls	r5, r3
    33d6:	2534      	movhi	r5, #52	; 0x34
    pIState->remainingTxData -= chunk;
    33d8:	1b5b      	subs	r3, r3, r5
    33da:	f8a4 30b0 	strh.w	r3, [r4, #176]	; 0xb0
    if ( TCPIP_TCP_ArrayPut( pIState->tcpClientSock, (uint8_t *) g_bfr, chunk) != chunk )
    33de:	462a      	mov	r2, r5
    33e0:	4639      	mov	r1, r7
    33e2:	f9b4 003a 	ldrsh.w	r0, [r4, #58]	; 0x3a
    33e6:	f00d fdab 	bl	10f40 <TCPIP_TCP_ArrayPut>
    33ea:	4285      	cmp	r5, r0
    33ec:	d0ed      	beq.n	33ca <TCPIP_IPERF_Task+0xc0a>
       TCPIP_TCP_Flush(pIState->tcpClientSock);
    33ee:	f9b4 003a 	ldrsh.w	r0, [r4, #58]	; 0x3a
    33f2:	f01c ff56 	bl	202a2 <TCPIP_TCP_Flush>
       GenericTxEnd(pIState);
    33f6:	4620      	mov	r0, r4
    33f8:	f00c f950 	bl	f69c <GenericTxEnd>
    33fc:	e599      	b.n	2f32 <TCPIP_IPERF_Task+0x772>
    TCPIP_UDP_OptionsSet(pIState->udpSock, UDP_OPTION_TOS, (void*)(unsigned int)pIState->mTypeOfService);   
    33fe:	7d22      	ldrb	r2, [r4, #20]
    3400:	210b      	movs	r1, #11
    3402:	f9b4 003c 	ldrsh.w	r0, [r4, #60]	; 0x3c
    3406:	f00b fa93 	bl	e930 <TCPIP_UDP_OptionsSet>
    tIperfTxResult txRes = GenericTxStart(pIState);
    340a:	4620      	mov	r0, r4
    340c:	f007 fac6 	bl	a99c <GenericTxStart>
    if ( txRes == IPERF_TX_OK )
    3410:	2801      	cmp	r0, #1
    3412:	d00b      	beq.n	342c <TCPIP_IPERF_Task+0xc6c>
    else if(txRes == IPERF_TX_FAIL)
    3414:	2802      	cmp	r0, #2
    3416:	f47f ad8c 	bne.w	2f32 <TCPIP_IPERF_Task+0x772>
        IperfSetState(pIState, IPERF_UDP_TX_DONE_STATE);
    341a:	2112      	movs	r1, #18
    341c:	4620      	mov	r0, r4
    341e:	f018 fe2b 	bl	1c078 <IperfSetState>
        pIState->stopTime = SYS_TMR_TickCountGet();
    3422:	f01c fe63 	bl	200ec <SYS_TMR_TickCountGet>
    3426:	f8c4 008c 	str.w	r0, [r4, #140]	; 0x8c
    342a:	e582      	b.n	2f32 <TCPIP_IPERF_Task+0x772>
    memset( g_bfr, 0x55, MAX_BUFFER);
    342c:	2234      	movs	r2, #52	; 0x34
    342e:	2155      	movs	r1, #85	; 0x55
    3430:	4638      	mov	r0, r7
    3432:	f01e fc2b 	bl	21c8c <memset>
    remainingTxData = pIState->remainingTxData;
    3436:	f8b4 50b0 	ldrh.w	r5, [r4, #176]	; 0xb0
    while( remainingTxData > 0u )
    343a:	b1bd      	cbz	r5, 346c <TCPIP_IPERF_Task+0xcac>
    uint16_t txData = 0;
    343c:	f04f 0900 	mov.w	r9, #0
        if (  TCPIP_UDP_ArrayPut(pIState->udpSock, (uint8_t *) g_bfr, chunk) != chunk )
    3440:	f04f 0a34 	mov.w	sl, #52	; 0x34
    3444:	e001      	b.n	344a <TCPIP_IPERF_Task+0xc8a>
    while( remainingTxData > 0u )
    3446:	2d00      	cmp	r5, #0
    3448:	d041      	beq.n	34ce <TCPIP_IPERF_Task+0xd0e>
        if ( remainingTxData < MAX_BUFFER )
    344a:	2d33      	cmp	r5, #51	; 0x33
    344c:	d936      	bls.n	34bc <TCPIP_IPERF_Task+0xcfc>
        remainingTxData -= chunk;
    344e:	3d34      	subs	r5, #52	; 0x34
    3450:	b2ad      	uxth	r5, r5
        txData += chunk;
    3452:	f109 0934 	add.w	r9, r9, #52	; 0x34
    3456:	fa1f f989 	uxth.w	r9, r9
        if (  TCPIP_UDP_ArrayPut(pIState->udpSock, (uint8_t *) g_bfr, chunk) != chunk )
    345a:	4652      	mov	r2, sl
    345c:	4639      	mov	r1, r7
    345e:	f9b4 003c 	ldrsh.w	r0, [r4, #60]	; 0x3c
    3462:	f019 fbfa 	bl	1cc5a <TCPIP_UDP_ArrayPut>
    3466:	2834      	cmp	r0, #52	; 0x34
    3468:	d0ed      	beq.n	3446 <TCPIP_IPERF_Task+0xc86>
    346a:	e030      	b.n	34ce <TCPIP_IPERF_Task+0xd0e>
    uint16_t txData = 0;
    346c:	46a9      	mov	r9, r5
    346e:	e02e      	b.n	34ce <TCPIP_IPERF_Task+0xd0e>
           pIState->remainingTxData -= txData;
    3470:	f8b4 30b0 	ldrh.w	r3, [r4, #176]	; 0xb0
    3474:	eba3 0909 	sub.w	r9, r3, r9
    3478:	f8a4 90b0 	strh.w	r9, [r4, #176]	; 0xb0
           GenericTxEnd(pIState);
    347c:	4620      	mov	r0, r4
    347e:	f00c f90d 	bl	f69c <GenericTxEnd>
    3482:	e556      	b.n	2f32 <TCPIP_IPERF_Task+0x772>
    3484:	00021781 	.word	0x00021781
    3488:	00021797 	.word	0x00021797
    GenericTxDone(pIState);
    348c:	4620      	mov	r0, r4
    348e:	f016 fdff 	bl	1a090 <GenericTxDone>
    TCPIP_TCP_Close(pIState->tcpClientSock);
    3492:	f9b4 003a 	ldrsh.w	r0, [r4, #58]	; 0x3a
    3496:	f01a fe20 	bl	1e0da <TCPIP_TCP_Close>
    pIState->tcpClientSock = INVALID_SOCKET;
    349a:	f64f 73ff 	movw	r3, #65535	; 0xffff
    349e:	8763      	strh	r3, [r4, #58]	; 0x3a
    34a0:	e547      	b.n	2f32 <TCPIP_IPERF_Task+0x772>
    GenericTxDone(pIState);
    34a2:	4620      	mov	r0, r4
    34a4:	f016 fdf4 	bl	1a090 <GenericTxDone>
    TCPIP_UDP_Close(pIState->udpSock );
    34a8:	f9b4 003c 	ldrsh.w	r0, [r4, #60]	; 0x3c
    34ac:	f01b ff3c 	bl	1f328 <TCPIP_UDP_Close>
    34b0:	e53f      	b.n	2f32 <TCPIP_IPERF_Task+0x772>
			IperfSetState(pIState, IPERF_STANDBY_STATE);
    34b2:	2101      	movs	r1, #1
    34b4:	4620      	mov	r0, r4
    34b6:	f018 fddf 	bl	1c078 <IperfSetState>
			break;
    34ba:	e53a      	b.n	2f32 <TCPIP_IPERF_Task+0x772>
        txData += chunk;
    34bc:	44a9      	add	r9, r5
    34be:	fa1f f989 	uxth.w	r9, r9
        if (  TCPIP_UDP_ArrayPut(pIState->udpSock, (uint8_t *) g_bfr, chunk) != chunk )
    34c2:	462a      	mov	r2, r5
    34c4:	4639      	mov	r1, r7
    34c6:	f9b4 003c 	ldrsh.w	r0, [r4, #60]	; 0x3c
    34ca:	f019 fbc6 	bl	1cc5a <TCPIP_UDP_ArrayPut>
       if(TCPIP_UDP_Flush(pIState->udpSock) == 0)
    34ce:	f9b4 003c 	ldrsh.w	r0, [r4, #60]	; 0x3c
    34d2:	f00a fe09 	bl	e0e8 <TCPIP_UDP_Flush>
    34d6:	2800      	cmp	r0, #0
    34d8:	d1ca      	bne.n	3470 <TCPIP_IPERF_Task+0xcb0>
           TCPIP_UDP_TxOffsetSet(pIState->udpSock, 0, 0);
    34da:	2200      	movs	r2, #0
    34dc:	4611      	mov	r1, r2
    34de:	f9b4 003c 	ldrsh.w	r0, [r4, #60]	; 0x3c
    34e2:	f01a fd44 	bl	1df6e <TCPIP_UDP_TxOffsetSet>
    34e6:	e524      	b.n	2f32 <TCPIP_IPERF_Task+0x772>
}
    34e8:	b01b      	add	sp, #108	; 0x6c
    34ea:	ecbd 8b02 	vpop	{d8}
    34ee:	e8bd 8ff0 	ldmia.w	sp!, {r4, r5, r6, r7, r8, r9, sl, fp, pc}
    34f2:	bf00      	nop

Disassembly of section .dinit%184:

000040b4 <.dinit>:
    40b4:	2000e1b0 	.word	0x2000e1b0
    40b8:	0000001c 	.word	0x0000001c
    40bc:	00000000 	.word	0x00000000
    40c0:	2000de18 	.word	0x2000de18
    40c4:	00000068 	.word	0x00000068
    40c8:	00000000 	.word	0x00000000
    40cc:	2000dd14 	.word	0x2000dd14
    40d0:	00000004 	.word	0x00000004
    40d4:	00000000 	.word	0x00000000
    40d8:	2000d8b8 	.word	0x2000d8b8
    40dc:	000000f8 	.word	0x000000f8
    40e0:	00000001 	.word	0x00000001
    40e4:	0001bd6c 	.word	0x0001bd6c
	...
    41dc:	2000e18f 	.word	0x2000e18f
    41e0:	00000001 	.word	0x00000001
    41e4:	00000001 	.word	0x00000001
    41e8:	000000ff 	.word	0x000000ff
    41ec:	2000e370 	.word	0x2000e370
    41f0:	00000004 	.word	0x00000004
    41f4:	00000000 	.word	0x00000000
    41f8:	2000dd18 	.word	0x2000dd18
    41fc:	00000080 	.word	0x00000080
    4200:	00000000 	.word	0x00000000
    4204:	2000e4f8 	.word	0x2000e4f8
    4208:	00000002 	.word	0x00000002
    420c:	00000001 	.word	0x00000001
    4210:	00000054 	.word	0x00000054
    4214:	2000dbf0 	.word	0x2000dbf0
    4218:	00000094 	.word	0x00000094
    421c:	00000000 	.word	0x00000000
    4220:	2000e1cc 	.word	0x2000e1cc
    4224:	00000018 	.word	0x00000018
    4228:	00000000 	.word	0x00000000
    422c:	2000e374 	.word	0x2000e374
    4230:	00000004 	.word	0x00000004
    4234:	00000000 	.word	0x00000000
    4238:	2000e378 	.word	0x2000e378
    423c:	00000004 	.word	0x00000004
    4240:	00000000 	.word	0x00000000
    4244:	2000e37c 	.word	0x2000e37c
    4248:	00000004 	.word	0x00000004
    424c:	00000000 	.word	0x00000000
    4250:	2000e380 	.word	0x2000e380
    4254:	00000004 	.word	0x00000004
    4258:	00000000 	.word	0x00000000
    425c:	2000e214 	.word	0x2000e214
    4260:	00000014 	.word	0x00000014
    4264:	00000000 	.word	0x00000000
    4268:	2000e384 	.word	0x2000e384
    426c:	00000004 	.word	0x00000004
    4270:	00000000 	.word	0x00000000
    4274:	2000e388 	.word	0x2000e388
    4278:	00000004 	.word	0x00000004
    427c:	00000000 	.word	0x00000000
    4280:	2000e38c 	.word	0x2000e38c
    4284:	00000004 	.word	0x00000004
    4288:	00000000 	.word	0x00000000
    428c:	2000e390 	.word	0x2000e390
    4290:	00000004 	.word	0x00000004
    4294:	00000000 	.word	0x00000000
    4298:	2000e316 	.word	0x2000e316
    429c:	00000002 	.word	0x00000002
    42a0:	00000000 	.word	0x00000000
    42a4:	2000e4f6 	.word	0x2000e4f6
    42a8:	00000002 	.word	0x00000002
    42ac:	00000000 	.word	0x00000000
    42b0:	2000e394 	.word	0x2000e394
    42b4:	00000004 	.word	0x00000004
    42b8:	00000000 	.word	0x00000000
    42bc:	2000e398 	.word	0x2000e398
    42c0:	00000004 	.word	0x00000004
    42c4:	00000000 	.word	0x00000000
    42c8:	2000e39c 	.word	0x2000e39c
    42cc:	00000004 	.word	0x00000004
    42d0:	00000000 	.word	0x00000000
    42d4:	2000e3a0 	.word	0x2000e3a0
    42d8:	00000004 	.word	0x00000004
    42dc:	00000000 	.word	0x00000000
    42e0:	2000e3a4 	.word	0x2000e3a4
    42e4:	00000004 	.word	0x00000004
    42e8:	00000000 	.word	0x00000000
    42ec:	2000dfa4 	.word	0x2000dfa4
    42f0:	0000004c 	.word	0x0000004c
    42f4:	00000000 	.word	0x00000000
    42f8:	2000e368 	.word	0x2000e368
    42fc:	00000006 	.word	0x00000006
    4300:	00000001 	.word	0x00000001
    4304:	ffffffff 	.word	0xffffffff
    4308:	0000ffff 	.word	0x0000ffff
    430c:	2000e1e4 	.word	0x2000e1e4
    4310:	00000018 	.word	0x00000018
    4314:	00000000 	.word	0x00000000
    4318:	2000e3a8 	.word	0x2000e3a8
    431c:	00000004 	.word	0x00000004
    4320:	00000000 	.word	0x00000000
    4324:	2000e3ac 	.word	0x2000e3ac
    4328:	00000004 	.word	0x00000004
    432c:	00000000 	.word	0x00000000
    4330:	2000e3b0 	.word	0x2000e3b0
    4334:	00000004 	.word	0x00000004
    4338:	00000000 	.word	0x00000000
    433c:	2000e170 	.word	0x2000e170
    4340:	0000001f 	.word	0x0000001f
    4344:	00000000 	.word	0x00000000
    4348:	2000e3b4 	.word	0x2000e3b4
    434c:	00000004 	.word	0x00000004
    4350:	00000000 	.word	0x00000000
    4354:	2000e3b8 	.word	0x2000e3b8
    4358:	00000004 	.word	0x00000004
    435c:	00000000 	.word	0x00000000
    4360:	2000e4fa 	.word	0x2000e4fa
    4364:	00000002 	.word	0x00000002
    4368:	00000000 	.word	0x00000000
    436c:	2000e3bc 	.word	0x2000e3bc
    4370:	00000004 	.word	0x00000004
    4374:	00000000 	.word	0x00000000
    4378:	2000ca04 	.word	0x2000ca04
    437c:	000007d0 	.word	0x000007d0
    4380:	00000000 	.word	0x00000000
    4384:	2000e3c0 	.word	0x2000e3c0
    4388:	00000004 	.word	0x00000004
    438c:	00000000 	.word	0x00000000
    4390:	2000e3c4 	.word	0x2000e3c4
    4394:	00000004 	.word	0x00000004
    4398:	00000000 	.word	0x00000000
    439c:	2000e3c8 	.word	0x2000e3c8
    43a0:	00000004 	.word	0x00000004
    43a4:	00000000 	.word	0x00000000
    43a8:	2000e3cc 	.word	0x2000e3cc
    43ac:	00000004 	.word	0x00000004
    43b0:	00000000 	.word	0x00000000
    43b4:	2000e4fc 	.word	0x2000e4fc
    43b8:	00000002 	.word	0x00000002
    43bc:	00000000 	.word	0x00000000
    43c0:	2000e3d0 	.word	0x2000e3d0
    43c4:	00000004 	.word	0x00000004
    43c8:	00000000 	.word	0x00000000
    43cc:	2000e3d4 	.word	0x2000e3d4
    43d0:	00000004 	.word	0x00000004
    43d4:	00000000 	.word	0x00000000
    43d8:	2000e304 	.word	0x2000e304
    43dc:	00000011 	.word	0x00000011
    43e0:	00000000 	.word	0x00000000
    43e4:	2000e190 	.word	0x2000e190
    43e8:	0000001f 	.word	0x0000001f
    43ec:	00000000 	.word	0x00000000
    43f0:	2000e3d8 	.word	0x2000e3d8
    43f4:	00000004 	.word	0x00000004
    43f8:	00000000 	.word	0x00000000
    43fc:	2000e3dc 	.word	0x2000e3dc
    4400:	00000004 	.word	0x00000004
    4404:	00000000 	.word	0x00000000
    4408:	2000e3e0 	.word	0x2000e3e0
    440c:	00000004 	.word	0x00000004
    4410:	00000000 	.word	0x00000000
    4414:	2000e3e4 	.word	0x2000e3e4
    4418:	00000004 	.word	0x00000004
    441c:	00000000 	.word	0x00000000
    4420:	2000e1af 	.word	0x2000e1af
    4424:	00000001 	.word	0x00000001
    4428:	00000000 	.word	0x00000000
    442c:	2000e315 	.word	0x2000e315
    4430:	00000001 	.word	0x00000001
    4434:	00000001 	.word	0x00000001
    4438:	00000001 	.word	0x00000001
    443c:	2000e3e8 	.word	0x2000e3e8
    4440:	00000004 	.word	0x00000004
    4444:	00000001 	.word	0x00000001
    4448:	00000064 	.word	0x00000064
    444c:	2000d9b0 	.word	0x2000d9b0
    4450:	000000d8 	.word	0x000000d8
    4454:	00000000 	.word	0x00000000
    4458:	2000e068 	.word	0x2000e068
    445c:	00000034 	.word	0x00000034
    4460:	00000000 	.word	0x00000000
    4464:	2000e3ec 	.word	0x2000e3ec
    4468:	00000004 	.word	0x00000004
    446c:	00000000 	.word	0x00000000
    4470:	2000e4f5 	.word	0x2000e4f5
    4474:	00000001 	.word	0x00000001
    4478:	00000000 	.word	0x00000000
    447c:	2000e3f0 	.word	0x2000e3f0
    4480:	00000004 	.word	0x00000004
    4484:	00000000 	.word	0x00000000
    4488:	2000e3f4 	.word	0x2000e3f4
    448c:	00000004 	.word	0x00000004
    4490:	00000000 	.word	0x00000000
    4494:	2000e3f8 	.word	0x2000e3f8
    4498:	00000004 	.word	0x00000004
    449c:	00000000 	.word	0x00000000
    44a0:	2000e3fc 	.word	0x2000e3fc
    44a4:	00000004 	.word	0x00000004
    44a8:	00000000 	.word	0x00000000
    44ac:	2000e328 	.word	0x2000e328
    44b0:	0000000c 	.word	0x0000000c
    44b4:	00000000 	.word	0x00000000
    44b8:	2000e228 	.word	0x2000e228
    44bc:	00000014 	.word	0x00000014
    44c0:	00000000 	.word	0x00000000
    44c4:	2000e50c 	.word	0x2000e50c
    44c8:	00000001 	.word	0x00000001
    44cc:	00000000 	.word	0x00000000
    44d0:	2000e4fe 	.word	0x2000e4fe
    44d4:	00000002 	.word	0x00000002
    44d8:	00000000 	.word	0x00000000
    44dc:	2000e500 	.word	0x2000e500
    44e0:	00000002 	.word	0x00000002
    44e4:	00000000 	.word	0x00000000
    44e8:	2000e400 	.word	0x2000e400
    44ec:	00000004 	.word	0x00000004
    44f0:	00000000 	.word	0x00000000
    44f4:	2000e23c 	.word	0x2000e23c
    44f8:	00000014 	.word	0x00000014
    44fc:	00000000 	.word	0x00000000
    4500:	2000e404 	.word	0x2000e404
    4504:	00000004 	.word	0x00000004
    4508:	00000000 	.word	0x00000000
    450c:	2000e408 	.word	0x2000e408
    4510:	00000004 	.word	0x00000004
    4514:	00000000 	.word	0x00000000
    4518:	2000e502 	.word	0x2000e502
    451c:	00000002 	.word	0x00000002
    4520:	00000000 	.word	0x00000000
    4524:	2000e504 	.word	0x2000e504
    4528:	00000002 	.word	0x00000002
    452c:	00000000 	.word	0x00000000
    4530:	2000e40c 	.word	0x2000e40c
    4534:	00000004 	.word	0x00000004
    4538:	00000000 	.word	0x00000000
    453c:	2000e410 	.word	0x2000e410
    4540:	00000004 	.word	0x00000004
    4544:	00000000 	.word	0x00000000
    4548:	2000e414 	.word	0x2000e414
    454c:	00000004 	.word	0x00000004
    4550:	00000000 	.word	0x00000000
    4554:	2000e250 	.word	0x2000e250
    4558:	00000014 	.word	0x00000014
    455c:	00000000 	.word	0x00000000
    4560:	2000e418 	.word	0x2000e418
    4564:	00000004 	.word	0x00000004
    4568:	00000000 	.word	0x00000000
    456c:	2000e506 	.word	0x2000e506
    4570:	00000002 	.word	0x00000002
    4574:	00000000 	.word	0x00000000
    4578:	2000e41c 	.word	0x2000e41c
    457c:	00000004 	.word	0x00000004
    4580:	00000000 	.word	0x00000000
    4584:	2000e420 	.word	0x2000e420
    4588:	00000004 	.word	0x00000004
    458c:	00000000 	.word	0x00000000
    4590:	2000e0c8 	.word	0x2000e0c8
    4594:	00000028 	.word	0x00000028
    4598:	00000000 	.word	0x00000000
    459c:	2000e424 	.word	0x2000e424
    45a0:	00000004 	.word	0x00000004
    45a4:	00000000 	.word	0x00000000
    45a8:	2000dc84 	.word	0x2000dc84
    45ac:	00000090 	.word	0x00000090
    45b0:	00000000 	.word	0x00000000
    45b4:	2000d1d4 	.word	0x2000d1d4
    45b8:	00000270 	.word	0x00000270
    45bc:	00000000 	.word	0x00000000
    45c0:	2000e428 	.word	0x2000e428
    45c4:	00000004 	.word	0x00000004
    45c8:	00000000 	.word	0x00000000
    45cc:	2000e42c 	.word	0x2000e42c
    45d0:	00000004 	.word	0x00000004
    45d4:	00000000 	.word	0x00000000
    45d8:	2000e430 	.word	0x2000e430
    45dc:	00000004 	.word	0x00000004
    45e0:	00000000 	.word	0x00000000
    45e4:	2000e434 	.word	0x2000e434
    45e8:	00000004 	.word	0x00000004
    45ec:	00000000 	.word	0x00000000
    45f0:	2000e438 	.word	0x2000e438
    45f4:	00000004 	.word	0x00000004
    45f8:	00000000 	.word	0x00000000
    45fc:	2000e43c 	.word	0x2000e43c
    4600:	00000004 	.word	0x00000004
    4604:	00000000 	.word	0x00000000
    4608:	2000e440 	.word	0x2000e440
    460c:	00000004 	.word	0x00000004
    4610:	00000000 	.word	0x00000000
    4614:	2000e318 	.word	0x2000e318
    4618:	00000010 	.word	0x00000010
    461c:	00000000 	.word	0x00000000
    4620:	2000e1fc 	.word	0x2000e1fc
    4624:	00000018 	.word	0x00000018
    4628:	00000000 	.word	0x00000000
    462c:	2000e0f0 	.word	0x2000e0f0
    4630:	00000020 	.word	0x00000020
    4634:	00000000 	.word	0x00000000
    4638:	2000e444 	.word	0x2000e444
    463c:	00000004 	.word	0x00000004
    4640:	00000000 	.word	0x00000000
    4644:	2000e50d 	.word	0x2000e50d
    4648:	00000001 	.word	0x00000001
    464c:	00000000 	.word	0x00000000
    4650:	2000e448 	.word	0x2000e448
    4654:	00000004 	.word	0x00000004
    4658:	00000000 	.word	0x00000000
    465c:	2000e44c 	.word	0x2000e44c
    4660:	00000004 	.word	0x00000004
    4664:	00000001 	.word	0x00000001
    4668:	ffffffff 	.word	0xffffffff
    466c:	2000e450 	.word	0x2000e450
    4670:	00000004 	.word	0x00000004
    4674:	00000000 	.word	0x00000000
    4678:	2000e454 	.word	0x2000e454
    467c:	00000004 	.word	0x00000004
    4680:	00000000 	.word	0x00000000
    4684:	2000e458 	.word	0x2000e458
    4688:	00000004 	.word	0x00000004
    468c:	00000000 	.word	0x00000000
    4690:	2000e45c 	.word	0x2000e45c
    4694:	00000004 	.word	0x00000004
    4698:	00000000 	.word	0x00000000
    469c:	2000e508 	.word	0x2000e508
    46a0:	00000002 	.word	0x00000002
    46a4:	00000000 	.word	0x00000000
    46a8:	2000e460 	.word	0x2000e460
    46ac:	00000004 	.word	0x00000004
    46b0:	00000000 	.word	0x00000000
    46b4:	2000e464 	.word	0x2000e464
    46b8:	00000004 	.word	0x00000004
    46bc:	00000000 	.word	0x00000000
    46c0:	2000e468 	.word	0x2000e468
    46c4:	00000004 	.word	0x00000004
    46c8:	00000000 	.word	0x00000000
    46cc:	2000a004 	.word	0x2000a004
    46d0:	00001000 	.word	0x00001000
    46d4:	00000000 	.word	0x00000000
    46d8:	2000b004 	.word	0x2000b004
    46dc:	00001000 	.word	0x00001000
    46e0:	00000000 	.word	0x00000000
    46e4:	2000dff0 	.word	0x2000dff0
    46e8:	00000040 	.word	0x00000040
    46ec:	00000000 	.word	0x00000000
    46f0:	2000e358 	.word	0x2000e358
    46f4:	00000008 	.word	0x00000008
    46f8:	00000000 	.word	0x00000000
    46fc:	2000e46c 	.word	0x2000e46c
    4700:	00000004 	.word	0x00000004
    4704:	00000000 	.word	0x00000000
    4708:	2000dd98 	.word	0x2000dd98
    470c:	00000080 	.word	0x00000080
    4710:	00000000 	.word	0x00000000
    4714:	2000e360 	.word	0x2000e360
    4718:	00000008 	.word	0x00000008
    471c:	00000000 	.word	0x00000000
    4720:	2000c004 	.word	0x2000c004
    4724:	00000a00 	.word	0x00000a00
    4728:	00000000 	.word	0x00000000
    472c:	2000e470 	.word	0x2000e470
    4730:	00000004 	.word	0x00000004
    4734:	00000000 	.word	0x00000000
    4738:	2000e334 	.word	0x2000e334
    473c:	0000000c 	.word	0x0000000c
    4740:	00000000 	.word	0x00000000
    4744:	2000e340 	.word	0x2000e340
    4748:	0000000c 	.word	0x0000000c
    474c:	00000000 	.word	0x00000000
    4750:	2000da88 	.word	0x2000da88
    4754:	000000c8 	.word	0x000000c8
    4758:	00000000 	.word	0x00000000
    475c:	2000e474 	.word	0x2000e474
    4760:	00000004 	.word	0x00000004
    4764:	00000000 	.word	0x00000000
    4768:	2000e50e 	.word	0x2000e50e
    476c:	00000001 	.word	0x00000001
    4770:	00000000 	.word	0x00000000
    4774:	2000e50f 	.word	0x2000e50f
    4778:	00000001 	.word	0x00000001
    477c:	00000000 	.word	0x00000000
    4780:	2000e478 	.word	0x2000e478
    4784:	00000004 	.word	0x00000004
    4788:	00000000 	.word	0x00000000
    478c:	2000e030 	.word	0x2000e030
    4790:	00000038 	.word	0x00000038
    4794:	00000000 	.word	0x00000000
    4798:	2000db50 	.word	0x2000db50
    479c:	000000a0 	.word	0x000000a0
    47a0:	00000000 	.word	0x00000000
    47a4:	2000e50a 	.word	0x2000e50a
    47a8:	00000002 	.word	0x00000002
    47ac:	00000001 	.word	0x00000001
    47b0:	00000001 	.word	0x00000001
    47b4:	2000e47c 	.word	0x2000e47c
    47b8:	00000004 	.word	0x00000004
    47bc:	00000000 	.word	0x00000000
    47c0:	2000e480 	.word	0x2000e480
    47c4:	00000004 	.word	0x00000004
    47c8:	00000000 	.word	0x00000000
    47cc:	2000e484 	.word	0x2000e484
    47d0:	00000004 	.word	0x00000004
    47d4:	00000000 	.word	0x00000000
    47d8:	2000d7b0 	.word	0x2000d7b0
    47dc:	00000108 	.word	0x00000108
    47e0:	00000000 	.word	0x00000000
    47e4:	2000e488 	.word	0x2000e488
    47e8:	00000004 	.word	0x00000004
    47ec:	00000000 	.word	0x00000000
    47f0:	2000e48c 	.word	0x2000e48c
    47f4:	00000004 	.word	0x00000004
    47f8:	00000000 	.word	0x00000000
    47fc:	2000e264 	.word	0x2000e264
    4800:	00000014 	.word	0x00000014
    4804:	00000000 	.word	0x00000000
    4808:	2000e278 	.word	0x2000e278
    480c:	00000014 	.word	0x00000014
    4810:	00000001 	.word	0x00000001
    4814:	00000101 	.word	0x00000101
    4818:	00021c6d 	.word	0x00021c6d
    481c:	00021c5d 	.word	0x00021c5d
    4820:	00021c7d 	.word	0x00021c7d
    4824:	00009952 	.word	0x00009952
    4828:	2000e490 	.word	0x2000e490
    482c:	00000004 	.word	0x00000004
    4830:	00000001 	.word	0x00000001
    4834:	aaaaaaaa 	.word	0xaaaaaaaa
    4838:	2000e494 	.word	0x2000e494
    483c:	00000004 	.word	0x00000004
    4840:	00000000 	.word	0x00000000
    4844:	20000004 	.word	0x20000004
    4848:	0000a000 	.word	0x0000a000
    484c:	00000000 	.word	0x00000000
    4850:	2000e498 	.word	0x2000e498
    4854:	00000004 	.word	0x00000004
    4858:	00000000 	.word	0x00000000
    485c:	2000e49c 	.word	0x2000e49c
    4860:	00000004 	.word	0x00000004
    4864:	00000000 	.word	0x00000000
    4868:	2000e4a0 	.word	0x2000e4a0
    486c:	00000004 	.word	0x00000004
    4870:	00000000 	.word	0x00000000
    4874:	2000e4a4 	.word	0x2000e4a4
    4878:	00000004 	.word	0x00000004
    487c:	00000000 	.word	0x00000000
    4880:	2000de80 	.word	0x2000de80
    4884:	00000064 	.word	0x00000064
    4888:	00000000 	.word	0x00000000
    488c:	2000e4a8 	.word	0x2000e4a8
    4890:	00000004 	.word	0x00000004
    4894:	00000000 	.word	0x00000000
    4898:	2000e4ac 	.word	0x2000e4ac
    489c:	00000004 	.word	0x00000004
    48a0:	00000000 	.word	0x00000000
    48a4:	2000e4b0 	.word	0x2000e4b0
    48a8:	00000004 	.word	0x00000004
    48ac:	00000000 	.word	0x00000000
    48b0:	2000e4b4 	.word	0x2000e4b4
    48b4:	00000004 	.word	0x00000004
    48b8:	00000000 	.word	0x00000000
    48bc:	2000e4b8 	.word	0x2000e4b8
    48c0:	00000004 	.word	0x00000004
    48c4:	00000000 	.word	0x00000000
    48c8:	2000e28c 	.word	0x2000e28c
    48cc:	00000014 	.word	0x00000014
    48d0:	00000000 	.word	0x00000000
    48d4:	2000e2a0 	.word	0x2000e2a0
    48d8:	00000014 	.word	0x00000014
    48dc:	00000000 	.word	0x00000000
    48e0:	2000e4bc 	.word	0x2000e4bc
    48e4:	00000004 	.word	0x00000004
    48e8:	00000000 	.word	0x00000000
    48ec:	2000e4c0 	.word	0x2000e4c0
    48f0:	00000004 	.word	0x00000004
    48f4:	00000000 	.word	0x00000000
    48f8:	2000e4c4 	.word	0x2000e4c4
    48fc:	00000004 	.word	0x00000004
    4900:	00000000 	.word	0x00000000
    4904:	2000e4c8 	.word	0x2000e4c8
    4908:	00000004 	.word	0x00000004
    490c:	00000000 	.word	0x00000000
    4910:	2000e2b4 	.word	0x2000e2b4
    4914:	00000014 	.word	0x00000014
    4918:	00000000 	.word	0x00000000
    491c:	2000e4cc 	.word	0x2000e4cc
    4920:	00000004 	.word	0x00000004
    4924:	00000000 	.word	0x00000000
    4928:	2000e2c8 	.word	0x2000e2c8
    492c:	00000014 	.word	0x00000014
    4930:	00000000 	.word	0x00000000
    4934:	2000e2dc 	.word	0x2000e2dc
    4938:	00000014 	.word	0x00000014
    493c:	00000000 	.word	0x00000000
    4940:	2000e4d0 	.word	0x2000e4d0
    4944:	00000004 	.word	0x00000004
    4948:	00000000 	.word	0x00000000
    494c:	2000e4d4 	.word	0x2000e4d4
    4950:	00000004 	.word	0x00000004
    4954:	00000000 	.word	0x00000000
    4958:	2000dee4 	.word	0x2000dee4
    495c:	00000060 	.word	0x00000060
    4960:	00000000 	.word	0x00000000
    4964:	2000e4f4 	.word	0x2000e4f4
    4968:	00000001 	.word	0x00000001
    496c:	00000000 	.word	0x00000000
    4970:	2000e2f0 	.word	0x2000e2f0
    4974:	00000014 	.word	0x00000014
    4978:	00000000 	.word	0x00000000
    497c:	2000e36e 	.word	0x2000e36e
    4980:	00000002 	.word	0x00000002
    4984:	00000000 	.word	0x00000000
    4988:	2000e4d8 	.word	0x2000e4d8
    498c:	00000004 	.word	0x00000004
    4990:	00000000 	.word	0x00000000
    4994:	2000e510 	.word	0x2000e510
    4998:	00000001 	.word	0x00000001
    499c:	00000000 	.word	0x00000000
    49a0:	2000e09c 	.word	0x2000e09c
    49a4:	0000002c 	.word	0x0000002c
    49a8:	00000000 	.word	0x00000000
    49ac:	2000e4dc 	.word	0x2000e4dc
    49b0:	00000004 	.word	0x00000004
    49b4:	00000000 	.word	0x00000000
    49b8:	2000d444 	.word	0x2000d444
    49bc:	00000200 	.word	0x00000200
    49c0:	00000000 	.word	0x00000000
    49c4:	2000e34c 	.word	0x2000e34c
    49c8:	0000000c 	.word	0x0000000c
    49cc:	00000001 	.word	0x00000001
    49d0:	00000000 	.word	0x00000000
    49d4:	000034f4 	.word	0x000034f4
    49d8:	7d20100a 	.word	0x7d20100a
    49dc:	2000e4e0 	.word	0x2000e4e0
    49e0:	00000004 	.word	0x00000004
    49e4:	00000000 	.word	0x00000000
    49e8:	2000e4e4 	.word	0x2000e4e4
    49ec:	00000004 	.word	0x00000004
    49f0:	00000001 	.word	0x00000001
    49f4:	2000df44 	.word	0x2000df44
    49f8:	2000df44 	.word	0x2000df44
    49fc:	00000060 	.word	0x00000060
    4a00:	00000001 	.word	0x00000001
    4a04:	00000000 	.word	0x00000000
    4a08:	2000e130 	.word	0x2000e130
    4a0c:	2000e150 	.word	0x2000e150
    4a10:	2000e110 	.word	0x2000e110
	...
    4a64:	2000e4e8 	.word	0x2000e4e8
    4a68:	00000004 	.word	0x00000004
    4a6c:	00000000 	.word	0x00000000
    4a70:	2000e4ec 	.word	0x2000e4ec
    4a74:	00000004 	.word	0x00000004
    4a78:	00000000 	.word	0x00000000
    4a7c:	2000e110 	.word	0x2000e110
    4a80:	00000020 	.word	0x00000020
    4a84:	00000000 	.word	0x00000000
    4a88:	2000e130 	.word	0x2000e130
    4a8c:	00000020 	.word	0x00000020
    4a90:	00000000 	.word	0x00000000
    4a94:	2000e150 	.word	0x2000e150
    4a98:	00000020 	.word	0x00000020
    4a9c:	00000000 	.word	0x00000000
    4aa0:	2000d644 	.word	0x2000d644
    4aa4:	0000016c 	.word	0x0000016c
    4aa8:	00000001 	.word	0x00000001
    4aac:	00000043 	.word	0x00000043
	...
    4acc:	00000043 	.word	0x00000043
	...
    4aec:	00000043 	.word	0x00000043
	...
    4b0c:	00000043 	.word	0x00000043
	...
    4b2c:	00000043 	.word	0x00000043
	...
    4b4c:	00000043 	.word	0x00000043
	...
    4b6c:	00000043 	.word	0x00000043
	...
    4b8c:	00021391 	.word	0x00021391
    4b90:	000206a9 	.word	0x000206a9
    4b94:	00000000 	.word	0x00000000
    4b98:	00014194 	.word	0x00014194
    4b9c:	000220dd 	.word	0x000220dd
    4ba0:	000220dc 	.word	0x000220dc
    4ba4:	000220dc 	.word	0x000220dc
    4ba8:	000220dc 	.word	0x000220dc
    4bac:	000220dc 	.word	0x000220dc
    4bb0:	000220dc 	.word	0x000220dc
    4bb4:	000220dc 	.word	0x000220dc
    4bb8:	000220dc 	.word	0x000220dc
    4bbc:	000220dc 	.word	0x000220dc
    4bc0:	000220dc 	.word	0x000220dc
    4bc4:	ffffffff 	.word	0xffffffff
    4bc8:	ffffffff 	.word	0xffffffff
    4bcc:	ffffffff 	.word	0xffffffff
    4bd0:	0000ffff 	.word	0x0000ffff
    4bd4:	53410001 	.word	0x53410001
    4bd8:	00494943 	.word	0x00494943
	...
    4bf4:	53410000 	.word	0x53410000
    4bf8:	00494943 	.word	0x00494943
	...
    4c18:	20000000 	.word	0x20000000
    4c1c:	00000004 	.word	0x00000004
    4c20:	00000000 	.word	0x00000000
    4c24:	2000e4f0 	.word	0x2000e4f0
    4c28:	00000004 	.word	0x00000004
	...
    4c38:	22222222 	.word	0x22222222
    4c3c:	22222222 	.word	0x22222222
    4c40:	22222222 	.word	0x22222222

Disassembly of section .text._dtoa_r%185:

00004c48 <_dtoa_r>:
    4c48:	e92d 4ff0 	stmdb	sp!, {r4, r5, r6, r7, r8, r9, sl, fp, lr}
    4c4c:	ec55 4b10 	vmov	r4, r5, d0
    4c50:	b099      	sub	sp, #100	; 0x64
    4c52:	6a47      	ldr	r7, [r0, #36]	; 0x24
    4c54:	9108      	str	r1, [sp, #32]
    4c56:	4683      	mov	fp, r0
    4c58:	920d      	str	r2, [sp, #52]	; 0x34
    4c5a:	9314      	str	r3, [sp, #80]	; 0x50
    4c5c:	9e22      	ldr	r6, [sp, #136]	; 0x88
    4c5e:	e9cd 4504 	strd	r4, r5, [sp, #16]
    4c62:	b947      	cbnz	r7, 4c76 <_dtoa_r+0x2e>
    4c64:	2010      	movs	r0, #16
    4c66:	f01d f801 	bl	21c6c <malloc>
    4c6a:	e9c0 7701 	strd	r7, r7, [r0, #4]
    4c6e:	f8cb 0024 	str.w	r0, [fp, #36]	; 0x24
    4c72:	6007      	str	r7, [r0, #0]
    4c74:	60c7      	str	r7, [r0, #12]
    4c76:	f8db 3024 	ldr.w	r3, [fp, #36]	; 0x24
    4c7a:	6819      	ldr	r1, [r3, #0]
    4c7c:	b159      	cbz	r1, 4c96 <_dtoa_r+0x4e>
    4c7e:	685a      	ldr	r2, [r3, #4]
    4c80:	604a      	str	r2, [r1, #4]
    4c82:	2301      	movs	r3, #1
    4c84:	4093      	lsls	r3, r2
    4c86:	608b      	str	r3, [r1, #8]
    4c88:	4658      	mov	r0, fp
    4c8a:	f01a fdae 	bl	1f7ea <_Bfree>
    4c8e:	f8db 3024 	ldr.w	r3, [fp, #36]	; 0x24
    4c92:	2200      	movs	r2, #0
    4c94:	601a      	str	r2, [r3, #0]
    4c96:	2d00      	cmp	r5, #0
    4c98:	bfbf      	itttt	lt
    4c9a:	2301      	movlt	r3, #1
    4c9c:	6033      	strlt	r3, [r6, #0]
    4c9e:	f025 4300 	biclt.w	r3, r5, #2147483648	; 0x80000000
    4ca2:	9305      	strlt	r3, [sp, #20]
    4ca4:	bfa4      	itt	ge
    4ca6:	2300      	movge	r3, #0
    4ca8:	6033      	strge	r3, [r6, #0]
    4caa:	9c05      	ldr	r4, [sp, #20]
    4cac:	4bb2      	ldr	r3, [pc, #712]	; (4f78 <_dtoa_r+0x330>)
    4cae:	43a3      	bics	r3, r4
    4cb0:	d11a      	bne.n	4ce8 <_dtoa_r+0xa0>
    4cb2:	9a14      	ldr	r2, [sp, #80]	; 0x50
    4cb4:	f242 730f 	movw	r3, #9999	; 0x270f
    4cb8:	6013      	str	r3, [r2, #0]
    4cba:	9b04      	ldr	r3, [sp, #16]
    4cbc:	f3c4 0413 	ubfx	r4, r4, #0, #20
    4cc0:	4323      	orrs	r3, r4
    4cc2:	f000 854f 	beq.w	5764 <_dtoa_r+0xb1c>
    4cc6:	9b23      	ldr	r3, [sp, #140]	; 0x8c
    4cc8:	b953      	cbnz	r3, 4ce0 <_dtoa_r+0x98>
    4cca:	4bac      	ldr	r3, [pc, #688]	; (4f7c <_dtoa_r+0x334>)
    4ccc:	e023      	b.n	4d16 <_dtoa_r+0xce>
    4cce:	4bac      	ldr	r3, [pc, #688]	; (4f80 <_dtoa_r+0x338>)
    4cd0:	9301      	str	r3, [sp, #4]
    4cd2:	3308      	adds	r3, #8
    4cd4:	9a23      	ldr	r2, [sp, #140]	; 0x8c
    4cd6:	6013      	str	r3, [r2, #0]
    4cd8:	9801      	ldr	r0, [sp, #4]
    4cda:	b019      	add	sp, #100	; 0x64
    4cdc:	e8bd 8ff0 	ldmia.w	sp!, {r4, r5, r6, r7, r8, r9, sl, fp, pc}
    4ce0:	4ba6      	ldr	r3, [pc, #664]	; (4f7c <_dtoa_r+0x334>)
    4ce2:	9301      	str	r3, [sp, #4]
    4ce4:	3303      	adds	r3, #3
    4ce6:	e7f5      	b.n	4cd4 <_dtoa_r+0x8c>
    4ce8:	ed9d 7b04 	vldr	d7, [sp, #16]
    4cec:	2200      	movs	r2, #0
    4cee:	2300      	movs	r3, #0
    4cf0:	ec51 0b17 	vmov	r0, r1, d7
    4cf4:	ed8d 7b0e 	vstr	d7, [sp, #56]	; 0x38
    4cf8:	f00e ff84 	bl	13c04 <__aeabi_dcmpeq>
    4cfc:	4607      	mov	r7, r0
    4cfe:	b160      	cbz	r0, 4d1a <_dtoa_r+0xd2>
    4d00:	9a14      	ldr	r2, [sp, #80]	; 0x50
    4d02:	2301      	movs	r3, #1
    4d04:	6013      	str	r3, [r2, #0]
    4d06:	9b23      	ldr	r3, [sp, #140]	; 0x8c
    4d08:	2b00      	cmp	r3, #0
    4d0a:	f000 8528 	beq.w	575e <_dtoa_r+0xb16>
    4d0e:	4b9d      	ldr	r3, [pc, #628]	; (4f84 <_dtoa_r+0x33c>)
    4d10:	9a23      	ldr	r2, [sp, #140]	; 0x8c
    4d12:	6013      	str	r3, [r2, #0]
    4d14:	3b01      	subs	r3, #1
    4d16:	9301      	str	r3, [sp, #4]
    4d18:	e7de      	b.n	4cd8 <_dtoa_r+0x90>
    4d1a:	aa16      	add	r2, sp, #88	; 0x58
    4d1c:	a917      	add	r1, sp, #92	; 0x5c
    4d1e:	ed9d 0b0e 	vldr	d0, [sp, #56]	; 0x38
    4d22:	4658      	mov	r0, fp
    4d24:	f013 f80b 	bl	17d3e <__d2b>
    4d28:	f3c4 560a 	ubfx	r6, r4, #20, #11
    4d2c:	4680      	mov	r8, r0
    4d2e:	2e00      	cmp	r6, #0
    4d30:	d07f      	beq.n	4e32 <_dtoa_r+0x1ea>
    4d32:	9b0f      	ldr	r3, [sp, #60]	; 0x3c
    4d34:	9715      	str	r7, [sp, #84]	; 0x54
    4d36:	f3c3 0313 	ubfx	r3, r3, #0, #20
    4d3a:	e9dd 450e 	ldrd	r4, r5, [sp, #56]	; 0x38
    4d3e:	f043 557f 	orr.w	r5, r3, #1069547520	; 0x3fc00000
    4d42:	f445 1540 	orr.w	r5, r5, #3145728	; 0x300000
    4d46:	f2a6 36ff 	subw	r6, r6, #1023	; 0x3ff
    4d4a:	2200      	movs	r2, #0
    4d4c:	4b8e      	ldr	r3, [pc, #568]	; (4f88 <_dtoa_r+0x340>)
    4d4e:	4620      	mov	r0, r4
    4d50:	4629      	mov	r1, r5
    4d52:	f006 f9cd 	bl	b0f0 <__aeabi_dsub>
    4d56:	a382      	add	r3, pc, #520	; (adr r3, 4f60 <_dtoa_r+0x318>)
    4d58:	e9d3 2300 	ldrd	r2, r3, [r3]
    4d5c:	f005 f828 	bl	9db0 <__aeabi_dmul>
    4d60:	a381      	add	r3, pc, #516	; (adr r3, 4f68 <_dtoa_r+0x320>)
    4d62:	e9d3 2300 	ldrd	r2, r3, [r3]
    4d66:	f006 f9c5 	bl	b0f4 <__adddf3>
    4d6a:	4604      	mov	r4, r0
    4d6c:	4630      	mov	r0, r6
    4d6e:	460d      	mov	r5, r1
    4d70:	f006 fb0c 	bl	b38c <__aeabi_i2d>
    4d74:	a37e      	add	r3, pc, #504	; (adr r3, 4f70 <_dtoa_r+0x328>)
    4d76:	e9d3 2300 	ldrd	r2, r3, [r3]
    4d7a:	f005 f819 	bl	9db0 <__aeabi_dmul>
    4d7e:	4602      	mov	r2, r0
    4d80:	460b      	mov	r3, r1
    4d82:	4620      	mov	r0, r4
    4d84:	4629      	mov	r1, r5
    4d86:	f006 f9b5 	bl	b0f4 <__adddf3>
    4d8a:	4604      	mov	r4, r0
    4d8c:	460d      	mov	r5, r1
    4d8e:	f017 fd25 	bl	1c7dc <__aeabi_d2iz>
    4d92:	2200      	movs	r2, #0
    4d94:	4682      	mov	sl, r0
    4d96:	2300      	movs	r3, #0
    4d98:	4620      	mov	r0, r4
    4d9a:	4629      	mov	r1, r5
    4d9c:	f00e ff3c 	bl	13c18 <__aeabi_dcmplt>
    4da0:	b148      	cbz	r0, 4db6 <_dtoa_r+0x16e>
    4da2:	4650      	mov	r0, sl
    4da4:	f006 faf2 	bl	b38c <__aeabi_i2d>
    4da8:	4622      	mov	r2, r4
    4daa:	462b      	mov	r3, r5
    4dac:	f00e ff2a 	bl	13c04 <__aeabi_dcmpeq>
    4db0:	b908      	cbnz	r0, 4db6 <_dtoa_r+0x16e>
    4db2:	f10a 3aff 	add.w	sl, sl, #4294967295
    4db6:	f1ba 0f16 	cmp.w	sl, #22
    4dba:	d859      	bhi.n	4e70 <_dtoa_r+0x228>
    4dbc:	4b73      	ldr	r3, [pc, #460]	; (4f8c <_dtoa_r+0x344>)
    4dbe:	eb03 03ca 	add.w	r3, r3, sl, lsl #3
    4dc2:	e9d3 2300 	ldrd	r2, r3, [r3]
    4dc6:	e9dd 010e 	ldrd	r0, r1, [sp, #56]	; 0x38
    4dca:	f00e ff25 	bl	13c18 <__aeabi_dcmplt>
    4dce:	2800      	cmp	r0, #0
    4dd0:	d050      	beq.n	4e74 <_dtoa_r+0x22c>
    4dd2:	f10a 3aff 	add.w	sl, sl, #4294967295
    4dd6:	2300      	movs	r3, #0
    4dd8:	9311      	str	r3, [sp, #68]	; 0x44
    4dda:	9b16      	ldr	r3, [sp, #88]	; 0x58
    4ddc:	1b9e      	subs	r6, r3, r6
    4dde:	1e73      	subs	r3, r6, #1
    4de0:	9307      	str	r3, [sp, #28]
    4de2:	bf45      	ittet	mi
    4de4:	f1c6 0301 	rsbmi	r3, r6, #1
    4de8:	9306      	strmi	r3, [sp, #24]
    4dea:	2300      	movpl	r3, #0
    4dec:	2300      	movmi	r3, #0
    4dee:	bf4c      	ite	mi
    4df0:	9307      	strmi	r3, [sp, #28]
    4df2:	9306      	strpl	r3, [sp, #24]
    4df4:	f1ba 0f00 	cmp.w	sl, #0
    4df8:	db3e      	blt.n	4e78 <_dtoa_r+0x230>
    4dfa:	9b07      	ldr	r3, [sp, #28]
    4dfc:	f8cd a040 	str.w	sl, [sp, #64]	; 0x40
    4e00:	4453      	add	r3, sl
    4e02:	9307      	str	r3, [sp, #28]
    4e04:	2300      	movs	r3, #0
    4e06:	9309      	str	r3, [sp, #36]	; 0x24
    4e08:	9b08      	ldr	r3, [sp, #32]
    4e0a:	2b09      	cmp	r3, #9
    4e0c:	f200 808e 	bhi.w	4f2c <_dtoa_r+0x2e4>
    4e10:	2b05      	cmp	r3, #5
    4e12:	bfc4      	itt	gt
    4e14:	3b04      	subgt	r3, #4
    4e16:	9308      	strgt	r3, [sp, #32]
    4e18:	9b08      	ldr	r3, [sp, #32]
    4e1a:	f1a3 0302 	sub.w	r3, r3, #2
    4e1e:	bfcc      	ite	gt
    4e20:	2400      	movgt	r4, #0
    4e22:	2401      	movle	r4, #1
    4e24:	2b03      	cmp	r3, #3
    4e26:	f200 808c 	bhi.w	4f42 <_dtoa_r+0x2fa>
    4e2a:	e8df f003 	tbb	[pc, r3]
    4e2e:	712f      	.short	0x712f
    4e30:	7d6f      	.short	0x7d6f
    4e32:	e9dd 6316 	ldrd	r6, r3, [sp, #88]	; 0x58
    4e36:	441e      	add	r6, r3
    4e38:	f206 4032 	addw	r0, r6, #1074	; 0x432
    4e3c:	2820      	cmp	r0, #32
    4e3e:	dd11      	ble.n	4e64 <_dtoa_r+0x21c>
    4e40:	f1c0 0040 	rsb	r0, r0, #64	; 0x40
    4e44:	9b04      	ldr	r3, [sp, #16]
    4e46:	4084      	lsls	r4, r0
    4e48:	f206 4012 	addw	r0, r6, #1042	; 0x412
    4e4c:	fa23 f000 	lsr.w	r0, r3, r0
    4e50:	4320      	orrs	r0, r4
    4e52:	f006 fa8b 	bl	b36c <__aeabi_ui2d>
    4e56:	2301      	movs	r3, #1
    4e58:	4604      	mov	r4, r0
    4e5a:	f1a1 75f8 	sub.w	r5, r1, #32505856	; 0x1f00000
    4e5e:	3e01      	subs	r6, #1
    4e60:	9315      	str	r3, [sp, #84]	; 0x54
    4e62:	e772      	b.n	4d4a <_dtoa_r+0x102>
    4e64:	9b04      	ldr	r3, [sp, #16]
    4e66:	f1c0 0020 	rsb	r0, r0, #32
    4e6a:	fa03 f000 	lsl.w	r0, r3, r0
    4e6e:	e7f0      	b.n	4e52 <_dtoa_r+0x20a>
    4e70:	2301      	movs	r3, #1
    4e72:	e7b1      	b.n	4dd8 <_dtoa_r+0x190>
    4e74:	9011      	str	r0, [sp, #68]	; 0x44
    4e76:	e7b0      	b.n	4dda <_dtoa_r+0x192>
    4e78:	9b06      	ldr	r3, [sp, #24]
    4e7a:	eba3 030a 	sub.w	r3, r3, sl
    4e7e:	9306      	str	r3, [sp, #24]
    4e80:	f1ca 0300 	rsb	r3, sl, #0
    4e84:	9309      	str	r3, [sp, #36]	; 0x24
    4e86:	2300      	movs	r3, #0
    4e88:	9310      	str	r3, [sp, #64]	; 0x40
    4e8a:	e7bd      	b.n	4e08 <_dtoa_r+0x1c0>
    4e8c:	2300      	movs	r3, #0
    4e8e:	930c      	str	r3, [sp, #48]	; 0x30
    4e90:	9b0d      	ldr	r3, [sp, #52]	; 0x34
    4e92:	2b00      	cmp	r3, #0
    4e94:	dc59      	bgt.n	4f4a <_dtoa_r+0x302>
    4e96:	2301      	movs	r3, #1
    4e98:	9302      	str	r3, [sp, #8]
    4e9a:	4699      	mov	r9, r3
    4e9c:	930d      	str	r3, [sp, #52]	; 0x34
    4e9e:	f8db 5024 	ldr.w	r5, [fp, #36]	; 0x24
    4ea2:	2200      	movs	r2, #0
    4ea4:	606a      	str	r2, [r5, #4]
    4ea6:	2204      	movs	r2, #4
    4ea8:	f102 0014 	add.w	r0, r2, #20
    4eac:	4298      	cmp	r0, r3
    4eae:	6869      	ldr	r1, [r5, #4]
    4eb0:	d94f      	bls.n	4f52 <_dtoa_r+0x30a>
    4eb2:	4658      	mov	r0, fp
    4eb4:	f016 f89e 	bl	1aff4 <_Balloc>
    4eb8:	f8db 3024 	ldr.w	r3, [fp, #36]	; 0x24
    4ebc:	6028      	str	r0, [r5, #0]
    4ebe:	681b      	ldr	r3, [r3, #0]
    4ec0:	9301      	str	r3, [sp, #4]
    4ec2:	f1b9 0f0e 	cmp.w	r9, #14
    4ec6:	f200 80e6 	bhi.w	5096 <_dtoa_r+0x44e>
    4eca:	2c00      	cmp	r4, #0
    4ecc:	f000 80e3 	beq.w	5096 <_dtoa_r+0x44e>
    4ed0:	f1ba 0f00 	cmp.w	sl, #0
    4ed4:	dd78      	ble.n	4fc8 <_dtoa_r+0x380>
    4ed6:	4a2d      	ldr	r2, [pc, #180]	; (4f8c <_dtoa_r+0x344>)
    4ed8:	f00a 030f 	and.w	r3, sl, #15
    4edc:	eb02 03c3 	add.w	r3, r2, r3, lsl #3
    4ee0:	ed93 7b00 	vldr	d7, [r3]
    4ee4:	ea4f 142a 	mov.w	r4, sl, asr #4
    4ee8:	06e2      	lsls	r2, r4, #27
    4eea:	ed8d 7b0a 	vstr	d7, [sp, #40]	; 0x28
    4eee:	d569      	bpl.n	4fc4 <_dtoa_r+0x37c>
    4ef0:	4b27      	ldr	r3, [pc, #156]	; (4f90 <_dtoa_r+0x348>)
    4ef2:	e9dd 010e 	ldrd	r0, r1, [sp, #56]	; 0x38
    4ef6:	e9d3 2308 	ldrd	r2, r3, [r3, #32]
    4efa:	f005 f883 	bl	a004 <__aeabi_ddiv>
    4efe:	e9cd 0104 	strd	r0, r1, [sp, #16]
    4f02:	f004 040f 	and.w	r4, r4, #15
    4f06:	2603      	movs	r6, #3
    4f08:	4d21      	ldr	r5, [pc, #132]	; (4f90 <_dtoa_r+0x348>)
    4f0a:	e050      	b.n	4fae <_dtoa_r+0x366>
    4f0c:	2301      	movs	r3, #1
    4f0e:	e7be      	b.n	4e8e <_dtoa_r+0x246>
    4f10:	2300      	movs	r3, #0
    4f12:	930c      	str	r3, [sp, #48]	; 0x30
    4f14:	9b0d      	ldr	r3, [sp, #52]	; 0x34
    4f16:	4453      	add	r3, sl
    4f18:	f103 0901 	add.w	r9, r3, #1
    4f1c:	9302      	str	r3, [sp, #8]
    4f1e:	464b      	mov	r3, r9
    4f20:	2b01      	cmp	r3, #1
    4f22:	bfb8      	it	lt
    4f24:	2301      	movlt	r3, #1
    4f26:	e7ba      	b.n	4e9e <_dtoa_r+0x256>
    4f28:	2301      	movs	r3, #1
    4f2a:	e7f2      	b.n	4f12 <_dtoa_r+0x2ca>
    4f2c:	2300      	movs	r3, #0
    4f2e:	2401      	movs	r4, #1
    4f30:	9308      	str	r3, [sp, #32]
    4f32:	940c      	str	r4, [sp, #48]	; 0x30
    4f34:	3b01      	subs	r3, #1
    4f36:	2200      	movs	r2, #0
    4f38:	9302      	str	r3, [sp, #8]
    4f3a:	4699      	mov	r9, r3
    4f3c:	920d      	str	r2, [sp, #52]	; 0x34
    4f3e:	2312      	movs	r3, #18
    4f40:	e7ad      	b.n	4e9e <_dtoa_r+0x256>
    4f42:	2301      	movs	r3, #1
    4f44:	930c      	str	r3, [sp, #48]	; 0x30
    4f46:	3b02      	subs	r3, #2
    4f48:	e7f5      	b.n	4f36 <_dtoa_r+0x2ee>
    4f4a:	9b0d      	ldr	r3, [sp, #52]	; 0x34
    4f4c:	9302      	str	r3, [sp, #8]
    4f4e:	4699      	mov	r9, r3
    4f50:	e7a5      	b.n	4e9e <_dtoa_r+0x256>
    4f52:	3101      	adds	r1, #1
    4f54:	6069      	str	r1, [r5, #4]
    4f56:	0052      	lsls	r2, r2, #1
    4f58:	e7a6      	b.n	4ea8 <_dtoa_r+0x260>
    4f5a:	bf00      	nop
    4f5c:	f3af 8000 	nop.w
    4f60:	636f4361 	.word	0x636f4361
    4f64:	3fd287a7 	.word	0x3fd287a7
    4f68:	8b60c8b3 	.word	0x8b60c8b3
    4f6c:	3fc68a28 	.word	0x3fc68a28
    4f70:	509f79fb 	.word	0x509f79fb
    4f74:	3fd34413 	.word	0x3fd34413
    4f78:	7ff00000 	.word	0x7ff00000
    4f7c:	00021ce5 	.word	0x00021ce5
    4f80:	00021cdc 	.word	0x00021cdc
    4f84:	00021cea 	.word	0x00021cea
    4f88:	3ff80000 	.word	0x3ff80000
    4f8c:	00015e10 	.word	0x00015e10
    4f90:	000201e0 	.word	0x000201e0
    4f94:	07e3      	lsls	r3, r4, #31
    4f96:	d508      	bpl.n	4faa <_dtoa_r+0x362>
    4f98:	e9dd 010a 	ldrd	r0, r1, [sp, #40]	; 0x28
    4f9c:	e9d5 2300 	ldrd	r2, r3, [r5]
    4fa0:	f004 ff06 	bl	9db0 <__aeabi_dmul>
    4fa4:	e9cd 010a 	strd	r0, r1, [sp, #40]	; 0x28
    4fa8:	3601      	adds	r6, #1
    4faa:	1064      	asrs	r4, r4, #1
    4fac:	3508      	adds	r5, #8
    4fae:	2c00      	cmp	r4, #0
    4fb0:	d1f0      	bne.n	4f94 <_dtoa_r+0x34c>
    4fb2:	e9dd 230a 	ldrd	r2, r3, [sp, #40]	; 0x28
    4fb6:	e9dd 0104 	ldrd	r0, r1, [sp, #16]
    4fba:	f005 f823 	bl	a004 <__aeabi_ddiv>
    4fbe:	e9cd 0104 	strd	r0, r1, [sp, #16]
    4fc2:	e01a      	b.n	4ffa <_dtoa_r+0x3b2>
    4fc4:	2602      	movs	r6, #2
    4fc6:	e79f      	b.n	4f08 <_dtoa_r+0x2c0>
    4fc8:	f000 809f 	beq.w	510a <_dtoa_r+0x4c2>
    4fcc:	f1ca 0400 	rsb	r4, sl, #0
    4fd0:	4b9f      	ldr	r3, [pc, #636]	; (5250 <_dtoa_r+0x608>)
    4fd2:	4da0      	ldr	r5, [pc, #640]	; (5254 <_dtoa_r+0x60c>)
    4fd4:	f004 020f 	and.w	r2, r4, #15
    4fd8:	eb03 03c2 	add.w	r3, r3, r2, lsl #3
    4fdc:	e9d3 2300 	ldrd	r2, r3, [r3]
    4fe0:	e9dd 010e 	ldrd	r0, r1, [sp, #56]	; 0x38
    4fe4:	f004 fee4 	bl	9db0 <__aeabi_dmul>
    4fe8:	e9cd 0104 	strd	r0, r1, [sp, #16]
    4fec:	1124      	asrs	r4, r4, #4
    4fee:	2300      	movs	r3, #0
    4ff0:	2602      	movs	r6, #2
    4ff2:	2c00      	cmp	r4, #0
    4ff4:	d17e      	bne.n	50f4 <_dtoa_r+0x4ac>
    4ff6:	2b00      	cmp	r3, #0
    4ff8:	d1e1      	bne.n	4fbe <_dtoa_r+0x376>
    4ffa:	9b11      	ldr	r3, [sp, #68]	; 0x44
    4ffc:	2b00      	cmp	r3, #0
    4ffe:	f000 8086 	beq.w	510e <_dtoa_r+0x4c6>
    5002:	e9dd 4504 	ldrd	r4, r5, [sp, #16]
    5006:	2200      	movs	r2, #0
    5008:	4b93      	ldr	r3, [pc, #588]	; (5258 <_dtoa_r+0x610>)
    500a:	4620      	mov	r0, r4
    500c:	4629      	mov	r1, r5
    500e:	f00e fe03 	bl	13c18 <__aeabi_dcmplt>
    5012:	2800      	cmp	r0, #0
    5014:	d07b      	beq.n	510e <_dtoa_r+0x4c6>
    5016:	f1b9 0f00 	cmp.w	r9, #0
    501a:	d078      	beq.n	510e <_dtoa_r+0x4c6>
    501c:	9b02      	ldr	r3, [sp, #8]
    501e:	2b00      	cmp	r3, #0
    5020:	dd35      	ble.n	508e <_dtoa_r+0x446>
    5022:	f10a 33ff 	add.w	r3, sl, #4294967295
    5026:	930a      	str	r3, [sp, #40]	; 0x28
    5028:	4620      	mov	r0, r4
    502a:	2200      	movs	r2, #0
    502c:	4b8b      	ldr	r3, [pc, #556]	; (525c <_dtoa_r+0x614>)
    502e:	4629      	mov	r1, r5
    5030:	f004 febe 	bl	9db0 <__aeabi_dmul>
    5034:	e9cd 0104 	strd	r0, r1, [sp, #16]
    5038:	9c02      	ldr	r4, [sp, #8]
    503a:	3601      	adds	r6, #1
    503c:	4630      	mov	r0, r6
    503e:	f006 f9a5 	bl	b38c <__aeabi_i2d>
    5042:	e9dd 2304 	ldrd	r2, r3, [sp, #16]
    5046:	f004 feb3 	bl	9db0 <__aeabi_dmul>
    504a:	2200      	movs	r2, #0
    504c:	4b84      	ldr	r3, [pc, #528]	; (5260 <_dtoa_r+0x618>)
    504e:	f006 f851 	bl	b0f4 <__adddf3>
    5052:	4606      	mov	r6, r0
    5054:	f1a1 7750 	sub.w	r7, r1, #54525952	; 0x3400000
    5058:	2c00      	cmp	r4, #0
    505a:	d15c      	bne.n	5116 <_dtoa_r+0x4ce>
    505c:	2200      	movs	r2, #0
    505e:	4b81      	ldr	r3, [pc, #516]	; (5264 <_dtoa_r+0x61c>)
    5060:	e9dd 0104 	ldrd	r0, r1, [sp, #16]
    5064:	f006 f844 	bl	b0f0 <__aeabi_dsub>
    5068:	4632      	mov	r2, r6
    506a:	463b      	mov	r3, r7
    506c:	e9cd 0104 	strd	r0, r1, [sp, #16]
    5070:	f00e fdf0 	bl	13c54 <__aeabi_dcmpgt>
    5074:	2800      	cmp	r0, #0
    5076:	f040 8289 	bne.w	558c <_dtoa_r+0x944>
    507a:	4632      	mov	r2, r6
    507c:	f107 4300 	add.w	r3, r7, #2147483648	; 0x80000000
    5080:	e9dd 0104 	ldrd	r0, r1, [sp, #16]
    5084:	f00e fdc8 	bl	13c18 <__aeabi_dcmplt>
    5088:	2800      	cmp	r0, #0
    508a:	f040 827d 	bne.w	5588 <_dtoa_r+0x940>
    508e:	e9dd 340e 	ldrd	r3, r4, [sp, #56]	; 0x38
    5092:	e9cd 3404 	strd	r3, r4, [sp, #16]
    5096:	9b17      	ldr	r3, [sp, #92]	; 0x5c
    5098:	2b00      	cmp	r3, #0
    509a:	f2c0 814f 	blt.w	533c <_dtoa_r+0x6f4>
    509e:	f1ba 0f0e 	cmp.w	sl, #14
    50a2:	f300 814b 	bgt.w	533c <_dtoa_r+0x6f4>
    50a6:	4b6a      	ldr	r3, [pc, #424]	; (5250 <_dtoa_r+0x608>)
    50a8:	eb03 03ca 	add.w	r3, r3, sl, lsl #3
    50ac:	ed93 7b00 	vldr	d7, [r3]
    50b0:	9b0d      	ldr	r3, [sp, #52]	; 0x34
    50b2:	2b00      	cmp	r3, #0
    50b4:	ed8d 7b02 	vstr	d7, [sp, #8]
    50b8:	f280 80d8 	bge.w	526c <_dtoa_r+0x624>
    50bc:	f1b9 0f00 	cmp.w	r9, #0
    50c0:	f300 80d4 	bgt.w	526c <_dtoa_r+0x624>
    50c4:	f040 825f 	bne.w	5586 <_dtoa_r+0x93e>
    50c8:	2200      	movs	r2, #0
    50ca:	4b66      	ldr	r3, [pc, #408]	; (5264 <_dtoa_r+0x61c>)
    50cc:	ec51 0b17 	vmov	r0, r1, d7
    50d0:	f004 fe6e 	bl	9db0 <__aeabi_dmul>
    50d4:	e9dd 2304 	ldrd	r2, r3, [sp, #16]
    50d8:	f00e fdb2 	bl	13c40 <__aeabi_dcmpge>
    50dc:	464c      	mov	r4, r9
    50de:	464e      	mov	r6, r9
    50e0:	2800      	cmp	r0, #0
    50e2:	f040 8238 	bne.w	5556 <_dtoa_r+0x90e>
    50e6:	9d01      	ldr	r5, [sp, #4]
    50e8:	2331      	movs	r3, #49	; 0x31
    50ea:	f805 3b01 	strb.w	r3, [r5], #1
    50ee:	f10a 0a01 	add.w	sl, sl, #1
    50f2:	e234      	b.n	555e <_dtoa_r+0x916>
    50f4:	07e7      	lsls	r7, r4, #31
    50f6:	d505      	bpl.n	5104 <_dtoa_r+0x4bc>
    50f8:	e9d5 2300 	ldrd	r2, r3, [r5]
    50fc:	f004 fe58 	bl	9db0 <__aeabi_dmul>
    5100:	3601      	adds	r6, #1
    5102:	2301      	movs	r3, #1
    5104:	1064      	asrs	r4, r4, #1
    5106:	3508      	adds	r5, #8
    5108:	e773      	b.n	4ff2 <_dtoa_r+0x3aa>
    510a:	2602      	movs	r6, #2
    510c:	e775      	b.n	4ffa <_dtoa_r+0x3b2>
    510e:	f8cd a028 	str.w	sl, [sp, #40]	; 0x28
    5112:	464c      	mov	r4, r9
    5114:	e792      	b.n	503c <_dtoa_r+0x3f4>
    5116:	4b4e      	ldr	r3, [pc, #312]	; (5250 <_dtoa_r+0x608>)
    5118:	eb03 03c4 	add.w	r3, r3, r4, lsl #3
    511c:	e953 0102 	ldrd	r0, r1, [r3, #-8]
    5120:	9b01      	ldr	r3, [sp, #4]
    5122:	441c      	add	r4, r3
    5124:	9b0c      	ldr	r3, [sp, #48]	; 0x30
    5126:	2b00      	cmp	r3, #0
    5128:	d046      	beq.n	51b8 <_dtoa_r+0x570>
    512a:	4602      	mov	r2, r0
    512c:	460b      	mov	r3, r1
    512e:	2000      	movs	r0, #0
    5130:	494d      	ldr	r1, [pc, #308]	; (5268 <_dtoa_r+0x620>)
    5132:	f004 ff67 	bl	a004 <__aeabi_ddiv>
    5136:	4632      	mov	r2, r6
    5138:	463b      	mov	r3, r7
    513a:	f005 ffd9 	bl	b0f0 <__aeabi_dsub>
    513e:	9d01      	ldr	r5, [sp, #4]
    5140:	4606      	mov	r6, r0
    5142:	460f      	mov	r7, r1
    5144:	e9dd 0104 	ldrd	r0, r1, [sp, #16]
    5148:	f017 fb48 	bl	1c7dc <__aeabi_d2iz>
    514c:	9012      	str	r0, [sp, #72]	; 0x48
    514e:	f006 f91d 	bl	b38c <__aeabi_i2d>
    5152:	4602      	mov	r2, r0
    5154:	460b      	mov	r3, r1
    5156:	e9dd 0104 	ldrd	r0, r1, [sp, #16]
    515a:	f005 ffc9 	bl	b0f0 <__aeabi_dsub>
    515e:	9b12      	ldr	r3, [sp, #72]	; 0x48
    5160:	3330      	adds	r3, #48	; 0x30
    5162:	f805 3b01 	strb.w	r3, [r5], #1
    5166:	4632      	mov	r2, r6
    5168:	463b      	mov	r3, r7
    516a:	e9cd 0104 	strd	r0, r1, [sp, #16]
    516e:	f00e fd53 	bl	13c18 <__aeabi_dcmplt>
    5172:	2800      	cmp	r0, #0
    5174:	d160      	bne.n	5238 <_dtoa_r+0x5f0>
    5176:	e9dd 2304 	ldrd	r2, r3, [sp, #16]
    517a:	2000      	movs	r0, #0
    517c:	4936      	ldr	r1, [pc, #216]	; (5258 <_dtoa_r+0x610>)
    517e:	f005 ffb7 	bl	b0f0 <__aeabi_dsub>
    5182:	4632      	mov	r2, r6
    5184:	463b      	mov	r3, r7
    5186:	f00e fd47 	bl	13c18 <__aeabi_dcmplt>
    518a:	2800      	cmp	r0, #0
    518c:	f040 80b4 	bne.w	52f8 <_dtoa_r+0x6b0>
    5190:	42a5      	cmp	r5, r4
    5192:	f43f af7c 	beq.w	508e <_dtoa_r+0x446>
    5196:	2200      	movs	r2, #0
    5198:	4b30      	ldr	r3, [pc, #192]	; (525c <_dtoa_r+0x614>)
    519a:	4630      	mov	r0, r6
    519c:	4639      	mov	r1, r7
    519e:	f004 fe07 	bl	9db0 <__aeabi_dmul>
    51a2:	2200      	movs	r2, #0
    51a4:	4606      	mov	r6, r0
    51a6:	460f      	mov	r7, r1
    51a8:	4b2c      	ldr	r3, [pc, #176]	; (525c <_dtoa_r+0x614>)
    51aa:	e9dd 0104 	ldrd	r0, r1, [sp, #16]
    51ae:	f004 fdff 	bl	9db0 <__aeabi_dmul>
    51b2:	e9cd 0104 	strd	r0, r1, [sp, #16]
    51b6:	e7c5      	b.n	5144 <_dtoa_r+0x4fc>
    51b8:	4632      	mov	r2, r6
    51ba:	463b      	mov	r3, r7
    51bc:	f004 fdf8 	bl	9db0 <__aeabi_dmul>
    51c0:	e9cd 0112 	strd	r0, r1, [sp, #72]	; 0x48
    51c4:	9e01      	ldr	r6, [sp, #4]
    51c6:	4625      	mov	r5, r4
    51c8:	e9dd 0104 	ldrd	r0, r1, [sp, #16]
    51cc:	f017 fb06 	bl	1c7dc <__aeabi_d2iz>
    51d0:	4607      	mov	r7, r0
    51d2:	f006 f8db 	bl	b38c <__aeabi_i2d>
    51d6:	3730      	adds	r7, #48	; 0x30
    51d8:	4602      	mov	r2, r0
    51da:	460b      	mov	r3, r1
    51dc:	e9dd 0104 	ldrd	r0, r1, [sp, #16]
    51e0:	f005 ff86 	bl	b0f0 <__aeabi_dsub>
    51e4:	f806 7b01 	strb.w	r7, [r6], #1
    51e8:	42a6      	cmp	r6, r4
    51ea:	e9cd 0104 	strd	r0, r1, [sp, #16]
    51ee:	f04f 0200 	mov.w	r2, #0
    51f2:	d126      	bne.n	5242 <_dtoa_r+0x5fa>
    51f4:	4b1c      	ldr	r3, [pc, #112]	; (5268 <_dtoa_r+0x620>)
    51f6:	e9dd 0112 	ldrd	r0, r1, [sp, #72]	; 0x48
    51fa:	f005 ff7b 	bl	b0f4 <__adddf3>
    51fe:	4602      	mov	r2, r0
    5200:	460b      	mov	r3, r1
    5202:	e9dd 0104 	ldrd	r0, r1, [sp, #16]
    5206:	f00e fd25 	bl	13c54 <__aeabi_dcmpgt>
    520a:	2800      	cmp	r0, #0
    520c:	d174      	bne.n	52f8 <_dtoa_r+0x6b0>
    520e:	e9dd 2312 	ldrd	r2, r3, [sp, #72]	; 0x48
    5212:	2000      	movs	r0, #0
    5214:	4914      	ldr	r1, [pc, #80]	; (5268 <_dtoa_r+0x620>)
    5216:	f005 ff6b 	bl	b0f0 <__aeabi_dsub>
    521a:	4602      	mov	r2, r0
    521c:	460b      	mov	r3, r1
    521e:	e9dd 0104 	ldrd	r0, r1, [sp, #16]
    5222:	f00e fcf9 	bl	13c18 <__aeabi_dcmplt>
    5226:	2800      	cmp	r0, #0
    5228:	f43f af31 	beq.w	508e <_dtoa_r+0x446>
    522c:	f815 3c01 	ldrb.w	r3, [r5, #-1]
    5230:	2b30      	cmp	r3, #48	; 0x30
    5232:	f105 32ff 	add.w	r2, r5, #4294967295
    5236:	d002      	beq.n	523e <_dtoa_r+0x5f6>
    5238:	f8dd a028 	ldr.w	sl, [sp, #40]	; 0x28
    523c:	e04a      	b.n	52d4 <_dtoa_r+0x68c>
    523e:	4615      	mov	r5, r2
    5240:	e7f4      	b.n	522c <_dtoa_r+0x5e4>
    5242:	4b06      	ldr	r3, [pc, #24]	; (525c <_dtoa_r+0x614>)
    5244:	f004 fdb4 	bl	9db0 <__aeabi_dmul>
    5248:	e9cd 0104 	strd	r0, r1, [sp, #16]
    524c:	e7bc      	b.n	51c8 <_dtoa_r+0x580>
    524e:	bf00      	nop
    5250:	00015e10 	.word	0x00015e10
    5254:	000201e0 	.word	0x000201e0
    5258:	3ff00000 	.word	0x3ff00000
    525c:	40240000 	.word	0x40240000
    5260:	401c0000 	.word	0x401c0000
    5264:	40140000 	.word	0x40140000
    5268:	3fe00000 	.word	0x3fe00000
    526c:	e9dd 6704 	ldrd	r6, r7, [sp, #16]
    5270:	9d01      	ldr	r5, [sp, #4]
    5272:	e9dd 2302 	ldrd	r2, r3, [sp, #8]
    5276:	4630      	mov	r0, r6
    5278:	4639      	mov	r1, r7
    527a:	f004 fec3 	bl	a004 <__aeabi_ddiv>
    527e:	f017 faad 	bl	1c7dc <__aeabi_d2iz>
    5282:	4604      	mov	r4, r0
    5284:	f006 f882 	bl	b38c <__aeabi_i2d>
    5288:	e9dd 2302 	ldrd	r2, r3, [sp, #8]
    528c:	f004 fd90 	bl	9db0 <__aeabi_dmul>
    5290:	4602      	mov	r2, r0
    5292:	460b      	mov	r3, r1
    5294:	4630      	mov	r0, r6
    5296:	4639      	mov	r1, r7
    5298:	f104 0630 	add.w	r6, r4, #48	; 0x30
    529c:	f005 ff28 	bl	b0f0 <__aeabi_dsub>
    52a0:	f805 6b01 	strb.w	r6, [r5], #1
    52a4:	9e01      	ldr	r6, [sp, #4]
    52a6:	1bae      	subs	r6, r5, r6
    52a8:	45b1      	cmp	r9, r6
    52aa:	4602      	mov	r2, r0
    52ac:	460b      	mov	r3, r1
    52ae:	d138      	bne.n	5322 <_dtoa_r+0x6da>
    52b0:	f005 ff20 	bl	b0f4 <__adddf3>
    52b4:	e9dd 2302 	ldrd	r2, r3, [sp, #8]
    52b8:	4606      	mov	r6, r0
    52ba:	460f      	mov	r7, r1
    52bc:	f00e fcca 	bl	13c54 <__aeabi_dcmpgt>
    52c0:	b9c0      	cbnz	r0, 52f4 <_dtoa_r+0x6ac>
    52c2:	e9dd 2302 	ldrd	r2, r3, [sp, #8]
    52c6:	4630      	mov	r0, r6
    52c8:	4639      	mov	r1, r7
    52ca:	f00e fc9b 	bl	13c04 <__aeabi_dcmpeq>
    52ce:	b108      	cbz	r0, 52d4 <_dtoa_r+0x68c>
    52d0:	07e1      	lsls	r1, r4, #31
    52d2:	d40f      	bmi.n	52f4 <_dtoa_r+0x6ac>
    52d4:	4641      	mov	r1, r8
    52d6:	4658      	mov	r0, fp
    52d8:	f01a fa87 	bl	1f7ea <_Bfree>
    52dc:	2300      	movs	r3, #0
    52de:	9a14      	ldr	r2, [sp, #80]	; 0x50
    52e0:	702b      	strb	r3, [r5, #0]
    52e2:	f10a 0301 	add.w	r3, sl, #1
    52e6:	6013      	str	r3, [r2, #0]
    52e8:	9b23      	ldr	r3, [sp, #140]	; 0x8c
    52ea:	2b00      	cmp	r3, #0
    52ec:	f43f acf4 	beq.w	4cd8 <_dtoa_r+0x90>
    52f0:	601d      	str	r5, [r3, #0]
    52f2:	e4f1      	b.n	4cd8 <_dtoa_r+0x90>
    52f4:	f8cd a028 	str.w	sl, [sp, #40]	; 0x28
    52f8:	f815 2c01 	ldrb.w	r2, [r5, #-1]
    52fc:	2a39      	cmp	r2, #57	; 0x39
    52fe:	f105 33ff 	add.w	r3, r5, #4294967295
    5302:	d108      	bne.n	5316 <_dtoa_r+0x6ce>
    5304:	9a01      	ldr	r2, [sp, #4]
    5306:	429a      	cmp	r2, r3
    5308:	d109      	bne.n	531e <_dtoa_r+0x6d6>
    530a:	9a0a      	ldr	r2, [sp, #40]	; 0x28
    530c:	9901      	ldr	r1, [sp, #4]
    530e:	3201      	adds	r2, #1
    5310:	920a      	str	r2, [sp, #40]	; 0x28
    5312:	2230      	movs	r2, #48	; 0x30
    5314:	700a      	strb	r2, [r1, #0]
    5316:	781a      	ldrb	r2, [r3, #0]
    5318:	3201      	adds	r2, #1
    531a:	701a      	strb	r2, [r3, #0]
    531c:	e78c      	b.n	5238 <_dtoa_r+0x5f0>
    531e:	461d      	mov	r5, r3
    5320:	e7ea      	b.n	52f8 <_dtoa_r+0x6b0>
    5322:	2200      	movs	r2, #0
    5324:	4b9b      	ldr	r3, [pc, #620]	; (5594 <_dtoa_r+0x94c>)
    5326:	f004 fd43 	bl	9db0 <__aeabi_dmul>
    532a:	2200      	movs	r2, #0
    532c:	2300      	movs	r3, #0
    532e:	4606      	mov	r6, r0
    5330:	460f      	mov	r7, r1
    5332:	f00e fc67 	bl	13c04 <__aeabi_dcmpeq>
    5336:	2800      	cmp	r0, #0
    5338:	d09b      	beq.n	5272 <_dtoa_r+0x62a>
    533a:	e7cb      	b.n	52d4 <_dtoa_r+0x68c>
    533c:	9a0c      	ldr	r2, [sp, #48]	; 0x30
    533e:	2a00      	cmp	r2, #0
    5340:	f000 80cb 	beq.w	54da <_dtoa_r+0x892>
    5344:	9a08      	ldr	r2, [sp, #32]
    5346:	2a01      	cmp	r2, #1
    5348:	f300 80ae 	bgt.w	54a8 <_dtoa_r+0x860>
    534c:	9a15      	ldr	r2, [sp, #84]	; 0x54
    534e:	2a00      	cmp	r2, #0
    5350:	f000 80a6 	beq.w	54a0 <_dtoa_r+0x858>
    5354:	f203 4333 	addw	r3, r3, #1075	; 0x433
    5358:	9c09      	ldr	r4, [sp, #36]	; 0x24
    535a:	9d06      	ldr	r5, [sp, #24]
    535c:	9a06      	ldr	r2, [sp, #24]
    535e:	441a      	add	r2, r3
    5360:	9206      	str	r2, [sp, #24]
    5362:	9a07      	ldr	r2, [sp, #28]
    5364:	2101      	movs	r1, #1
    5366:	441a      	add	r2, r3
    5368:	4658      	mov	r0, fp
    536a:	9207      	str	r2, [sp, #28]
    536c:	f01c fbc4 	bl	21af8 <__i2b>
    5370:	4606      	mov	r6, r0
    5372:	2d00      	cmp	r5, #0
    5374:	dd0c      	ble.n	5390 <_dtoa_r+0x748>
    5376:	9b07      	ldr	r3, [sp, #28]
    5378:	2b00      	cmp	r3, #0
    537a:	dd09      	ble.n	5390 <_dtoa_r+0x748>
    537c:	42ab      	cmp	r3, r5
    537e:	9a06      	ldr	r2, [sp, #24]
    5380:	bfa8      	it	ge
    5382:	462b      	movge	r3, r5
    5384:	1ad2      	subs	r2, r2, r3
    5386:	9206      	str	r2, [sp, #24]
    5388:	9a07      	ldr	r2, [sp, #28]
    538a:	1aed      	subs	r5, r5, r3
    538c:	1ad3      	subs	r3, r2, r3
    538e:	9307      	str	r3, [sp, #28]
    5390:	9b09      	ldr	r3, [sp, #36]	; 0x24
    5392:	b1f3      	cbz	r3, 53d2 <_dtoa_r+0x78a>
    5394:	9b0c      	ldr	r3, [sp, #48]	; 0x30
    5396:	2b00      	cmp	r3, #0
    5398:	f000 80a3 	beq.w	54e2 <_dtoa_r+0x89a>
    539c:	2c00      	cmp	r4, #0
    539e:	dd10      	ble.n	53c2 <_dtoa_r+0x77a>
    53a0:	4631      	mov	r1, r6
    53a2:	4622      	mov	r2, r4
    53a4:	4658      	mov	r0, fp
    53a6:	f012 fe03 	bl	17fb0 <__pow5mult>
    53aa:	4642      	mov	r2, r8
    53ac:	4601      	mov	r1, r0
    53ae:	4606      	mov	r6, r0
    53b0:	4658      	mov	r0, fp
    53b2:	f00d fa35 	bl	12820 <__multiply>
    53b6:	4641      	mov	r1, r8
    53b8:	4607      	mov	r7, r0
    53ba:	4658      	mov	r0, fp
    53bc:	f01a fa15 	bl	1f7ea <_Bfree>
    53c0:	46b8      	mov	r8, r7
    53c2:	9b09      	ldr	r3, [sp, #36]	; 0x24
    53c4:	1b1a      	subs	r2, r3, r4
    53c6:	d004      	beq.n	53d2 <_dtoa_r+0x78a>
    53c8:	4641      	mov	r1, r8
    53ca:	4658      	mov	r0, fp
    53cc:	f012 fdf0 	bl	17fb0 <__pow5mult>
    53d0:	4680      	mov	r8, r0
    53d2:	2101      	movs	r1, #1
    53d4:	4658      	mov	r0, fp
    53d6:	f01c fb8f 	bl	21af8 <__i2b>
    53da:	9b10      	ldr	r3, [sp, #64]	; 0x40
    53dc:	2b00      	cmp	r3, #0
    53de:	4604      	mov	r4, r0
    53e0:	f340 8081 	ble.w	54e6 <_dtoa_r+0x89e>
    53e4:	461a      	mov	r2, r3
    53e6:	4601      	mov	r1, r0
    53e8:	4658      	mov	r0, fp
    53ea:	f012 fde1 	bl	17fb0 <__pow5mult>
    53ee:	9b08      	ldr	r3, [sp, #32]
    53f0:	2b01      	cmp	r3, #1
    53f2:	4604      	mov	r4, r0
    53f4:	dd7a      	ble.n	54ec <_dtoa_r+0x8a4>
    53f6:	2700      	movs	r7, #0
    53f8:	6923      	ldr	r3, [r4, #16]
    53fa:	eb04 0383 	add.w	r3, r4, r3, lsl #2
    53fe:	6918      	ldr	r0, [r3, #16]
    5400:	f018 fd18 	bl	1de34 <__hi0bits>
    5404:	f1c0 0020 	rsb	r0, r0, #32
    5408:	9b07      	ldr	r3, [sp, #28]
    540a:	4418      	add	r0, r3
    540c:	f010 001f 	ands.w	r0, r0, #31
    5410:	f000 8088 	beq.w	5524 <_dtoa_r+0x8dc>
    5414:	f1c0 0320 	rsb	r3, r0, #32
    5418:	2b04      	cmp	r3, #4
    541a:	f340 8081 	ble.w	5520 <_dtoa_r+0x8d8>
    541e:	f1c0 001c 	rsb	r0, r0, #28
    5422:	9b06      	ldr	r3, [sp, #24]
    5424:	4403      	add	r3, r0
    5426:	9306      	str	r3, [sp, #24]
    5428:	9b07      	ldr	r3, [sp, #28]
    542a:	4403      	add	r3, r0
    542c:	4405      	add	r5, r0
    542e:	9307      	str	r3, [sp, #28]
    5430:	9b06      	ldr	r3, [sp, #24]
    5432:	2b00      	cmp	r3, #0
    5434:	dd05      	ble.n	5442 <_dtoa_r+0x7fa>
    5436:	4641      	mov	r1, r8
    5438:	461a      	mov	r2, r3
    543a:	4658      	mov	r0, fp
    543c:	f012 f950 	bl	176e0 <__lshift>
    5440:	4680      	mov	r8, r0
    5442:	9b07      	ldr	r3, [sp, #28]
    5444:	2b00      	cmp	r3, #0
    5446:	dd05      	ble.n	5454 <_dtoa_r+0x80c>
    5448:	4621      	mov	r1, r4
    544a:	461a      	mov	r2, r3
    544c:	4658      	mov	r0, fp
    544e:	f012 f947 	bl	176e0 <__lshift>
    5452:	4604      	mov	r4, r0
    5454:	9b11      	ldr	r3, [sp, #68]	; 0x44
    5456:	2b00      	cmp	r3, #0
    5458:	d066      	beq.n	5528 <_dtoa_r+0x8e0>
    545a:	4621      	mov	r1, r4
    545c:	4640      	mov	r0, r8
    545e:	f019 fd33 	bl	1eec8 <__mcmp>
    5462:	2800      	cmp	r0, #0
    5464:	da60      	bge.n	5528 <_dtoa_r+0x8e0>
    5466:	2300      	movs	r3, #0
    5468:	4641      	mov	r1, r8
    546a:	220a      	movs	r2, #10
    546c:	4658      	mov	r0, fp
    546e:	f014 f996 	bl	1979e <__multadd>
    5472:	9b0c      	ldr	r3, [sp, #48]	; 0x30
    5474:	f10a 3aff 	add.w	sl, sl, #4294967295
    5478:	4680      	mov	r8, r0
    547a:	2b00      	cmp	r3, #0
    547c:	f000 8179 	beq.w	5772 <_dtoa_r+0xb2a>
    5480:	2300      	movs	r3, #0
    5482:	4631      	mov	r1, r6
    5484:	220a      	movs	r2, #10
    5486:	4658      	mov	r0, fp
    5488:	f014 f989 	bl	1979e <__multadd>
    548c:	9b02      	ldr	r3, [sp, #8]
    548e:	2b00      	cmp	r3, #0
    5490:	4606      	mov	r6, r0
    5492:	f300 8089 	bgt.w	55a8 <_dtoa_r+0x960>
    5496:	9b08      	ldr	r3, [sp, #32]
    5498:	2b02      	cmp	r3, #2
    549a:	f340 8085 	ble.w	55a8 <_dtoa_r+0x960>
    549e:	e04b      	b.n	5538 <_dtoa_r+0x8f0>
    54a0:	9b16      	ldr	r3, [sp, #88]	; 0x58
    54a2:	f1c3 0336 	rsb	r3, r3, #54	; 0x36
    54a6:	e757      	b.n	5358 <_dtoa_r+0x710>
    54a8:	9b09      	ldr	r3, [sp, #36]	; 0x24
    54aa:	f109 34ff 	add.w	r4, r9, #4294967295
    54ae:	42a3      	cmp	r3, r4
    54b0:	bfbf      	itttt	lt
    54b2:	9b09      	ldrlt	r3, [sp, #36]	; 0x24
    54b4:	9409      	strlt	r4, [sp, #36]	; 0x24
    54b6:	1ae2      	sublt	r2, r4, r3
    54b8:	9b10      	ldrlt	r3, [sp, #64]	; 0x40
    54ba:	bfbb      	ittet	lt
    54bc:	189b      	addlt	r3, r3, r2
    54be:	9310      	strlt	r3, [sp, #64]	; 0x40
    54c0:	1b1c      	subge	r4, r3, r4
    54c2:	2400      	movlt	r4, #0
    54c4:	f1b9 0f00 	cmp.w	r9, #0
    54c8:	bfb5      	itete	lt
    54ca:	9b06      	ldrlt	r3, [sp, #24]
    54cc:	9d06      	ldrge	r5, [sp, #24]
    54ce:	eba3 0509 	sublt.w	r5, r3, r9
    54d2:	464b      	movge	r3, r9
    54d4:	bfb8      	it	lt
    54d6:	2300      	movlt	r3, #0
    54d8:	e740      	b.n	535c <_dtoa_r+0x714>
    54da:	9c09      	ldr	r4, [sp, #36]	; 0x24
    54dc:	9d06      	ldr	r5, [sp, #24]
    54de:	9e0c      	ldr	r6, [sp, #48]	; 0x30
    54e0:	e747      	b.n	5372 <_dtoa_r+0x72a>
    54e2:	9a09      	ldr	r2, [sp, #36]	; 0x24
    54e4:	e770      	b.n	53c8 <_dtoa_r+0x780>
    54e6:	9b08      	ldr	r3, [sp, #32]
    54e8:	2b01      	cmp	r3, #1
    54ea:	dc15      	bgt.n	5518 <_dtoa_r+0x8d0>
    54ec:	9b04      	ldr	r3, [sp, #16]
    54ee:	b99b      	cbnz	r3, 5518 <_dtoa_r+0x8d0>
    54f0:	9b05      	ldr	r3, [sp, #20]
    54f2:	f3c3 0213 	ubfx	r2, r3, #0, #20
    54f6:	b98a      	cbnz	r2, 551c <_dtoa_r+0x8d4>
    54f8:	4f27      	ldr	r7, [pc, #156]	; (5598 <_dtoa_r+0x950>)
    54fa:	401f      	ands	r7, r3
    54fc:	b137      	cbz	r7, 550c <_dtoa_r+0x8c4>
    54fe:	9b06      	ldr	r3, [sp, #24]
    5500:	3301      	adds	r3, #1
    5502:	9306      	str	r3, [sp, #24]
    5504:	9b07      	ldr	r3, [sp, #28]
    5506:	3301      	adds	r3, #1
    5508:	9307      	str	r3, [sp, #28]
    550a:	2701      	movs	r7, #1
    550c:	9b10      	ldr	r3, [sp, #64]	; 0x40
    550e:	2b00      	cmp	r3, #0
    5510:	f47f af72 	bne.w	53f8 <_dtoa_r+0x7b0>
    5514:	2001      	movs	r0, #1
    5516:	e777      	b.n	5408 <_dtoa_r+0x7c0>
    5518:	2700      	movs	r7, #0
    551a:	e7f7      	b.n	550c <_dtoa_r+0x8c4>
    551c:	9f04      	ldr	r7, [sp, #16]
    551e:	e7f5      	b.n	550c <_dtoa_r+0x8c4>
    5520:	d086      	beq.n	5430 <_dtoa_r+0x7e8>
    5522:	4618      	mov	r0, r3
    5524:	301c      	adds	r0, #28
    5526:	e77c      	b.n	5422 <_dtoa_r+0x7da>
    5528:	f1b9 0f00 	cmp.w	r9, #0
    552c:	dc36      	bgt.n	559c <_dtoa_r+0x954>
    552e:	9b08      	ldr	r3, [sp, #32]
    5530:	2b02      	cmp	r3, #2
    5532:	dd33      	ble.n	559c <_dtoa_r+0x954>
    5534:	f8cd 9008 	str.w	r9, [sp, #8]
    5538:	9b02      	ldr	r3, [sp, #8]
    553a:	b963      	cbnz	r3, 5556 <_dtoa_r+0x90e>
    553c:	4621      	mov	r1, r4
    553e:	2205      	movs	r2, #5
    5540:	4658      	mov	r0, fp
    5542:	f014 f92c 	bl	1979e <__multadd>
    5546:	4601      	mov	r1, r0
    5548:	4604      	mov	r4, r0
    554a:	4640      	mov	r0, r8
    554c:	f019 fcbc 	bl	1eec8 <__mcmp>
    5550:	2800      	cmp	r0, #0
    5552:	f73f adc8 	bgt.w	50e6 <_dtoa_r+0x49e>
    5556:	9b0d      	ldr	r3, [sp, #52]	; 0x34
    5558:	9d01      	ldr	r5, [sp, #4]
    555a:	ea6f 0a03 	mvn.w	sl, r3
    555e:	2700      	movs	r7, #0
    5560:	4621      	mov	r1, r4
    5562:	4658      	mov	r0, fp
    5564:	f01a f941 	bl	1f7ea <_Bfree>
    5568:	2e00      	cmp	r6, #0
    556a:	f43f aeb3 	beq.w	52d4 <_dtoa_r+0x68c>
    556e:	b12f      	cbz	r7, 557c <_dtoa_r+0x934>
    5570:	42b7      	cmp	r7, r6
    5572:	d003      	beq.n	557c <_dtoa_r+0x934>
    5574:	4639      	mov	r1, r7
    5576:	4658      	mov	r0, fp
    5578:	f01a f937 	bl	1f7ea <_Bfree>
    557c:	4631      	mov	r1, r6
    557e:	4658      	mov	r0, fp
    5580:	f01a f933 	bl	1f7ea <_Bfree>
    5584:	e6a6      	b.n	52d4 <_dtoa_r+0x68c>
    5586:	2400      	movs	r4, #0
    5588:	4626      	mov	r6, r4
    558a:	e7e4      	b.n	5556 <_dtoa_r+0x90e>
    558c:	f8dd a028 	ldr.w	sl, [sp, #40]	; 0x28
    5590:	4626      	mov	r6, r4
    5592:	e5a8      	b.n	50e6 <_dtoa_r+0x49e>
    5594:	40240000 	.word	0x40240000
    5598:	7ff00000 	.word	0x7ff00000
    559c:	9b0c      	ldr	r3, [sp, #48]	; 0x30
    559e:	f8cd 9008 	str.w	r9, [sp, #8]
    55a2:	2b00      	cmp	r3, #0
    55a4:	f000 80ec 	beq.w	5780 <_dtoa_r+0xb38>
    55a8:	2d00      	cmp	r5, #0
    55aa:	dd05      	ble.n	55b8 <_dtoa_r+0x970>
    55ac:	4631      	mov	r1, r6
    55ae:	462a      	mov	r2, r5
    55b0:	4658      	mov	r0, fp
    55b2:	f012 f895 	bl	176e0 <__lshift>
    55b6:	4606      	mov	r6, r0
    55b8:	2f00      	cmp	r7, #0
    55ba:	d056      	beq.n	566a <_dtoa_r+0xa22>
    55bc:	6871      	ldr	r1, [r6, #4]
    55be:	4658      	mov	r0, fp
    55c0:	f015 fd18 	bl	1aff4 <_Balloc>
    55c4:	6932      	ldr	r2, [r6, #16]
    55c6:	3202      	adds	r2, #2
    55c8:	4605      	mov	r5, r0
    55ca:	0092      	lsls	r2, r2, #2
    55cc:	f106 010c 	add.w	r1, r6, #12
    55d0:	300c      	adds	r0, #12
    55d2:	f01b fdd5 	bl	21180 <memcpy>
    55d6:	2201      	movs	r2, #1
    55d8:	4629      	mov	r1, r5
    55da:	4658      	mov	r0, fp
    55dc:	f012 f880 	bl	176e0 <__lshift>
    55e0:	9b01      	ldr	r3, [sp, #4]
    55e2:	f103 0901 	add.w	r9, r3, #1
    55e6:	e9dd 2301 	ldrd	r2, r3, [sp, #4]
    55ea:	4413      	add	r3, r2
    55ec:	9309      	str	r3, [sp, #36]	; 0x24
    55ee:	9b04      	ldr	r3, [sp, #16]
    55f0:	f003 0301 	and.w	r3, r3, #1
    55f4:	4637      	mov	r7, r6
    55f6:	9307      	str	r3, [sp, #28]
    55f8:	4606      	mov	r6, r0
    55fa:	f109 33ff 	add.w	r3, r9, #4294967295
    55fe:	4621      	mov	r1, r4
    5600:	4640      	mov	r0, r8
    5602:	9302      	str	r3, [sp, #8]
    5604:	f00d f9a4 	bl	12950 <quorem>
    5608:	4603      	mov	r3, r0
    560a:	3330      	adds	r3, #48	; 0x30
    560c:	9004      	str	r0, [sp, #16]
    560e:	4639      	mov	r1, r7
    5610:	4640      	mov	r0, r8
    5612:	930a      	str	r3, [sp, #40]	; 0x28
    5614:	f019 fc58 	bl	1eec8 <__mcmp>
    5618:	4632      	mov	r2, r6
    561a:	9006      	str	r0, [sp, #24]
    561c:	4621      	mov	r1, r4
    561e:	4658      	mov	r0, fp
    5620:	f010 fb92 	bl	15d48 <__mdiff>
    5624:	68c2      	ldr	r2, [r0, #12]
    5626:	9b0a      	ldr	r3, [sp, #40]	; 0x28
    5628:	4605      	mov	r5, r0
    562a:	bb02      	cbnz	r2, 566e <_dtoa_r+0xa26>
    562c:	4601      	mov	r1, r0
    562e:	4640      	mov	r0, r8
    5630:	f019 fc4a 	bl	1eec8 <__mcmp>
    5634:	9b0a      	ldr	r3, [sp, #40]	; 0x28
    5636:	4602      	mov	r2, r0
    5638:	4629      	mov	r1, r5
    563a:	4658      	mov	r0, fp
    563c:	920c      	str	r2, [sp, #48]	; 0x30
    563e:	930a      	str	r3, [sp, #40]	; 0x28
    5640:	f01a f8d3 	bl	1f7ea <_Bfree>
    5644:	9b08      	ldr	r3, [sp, #32]
    5646:	9a0c      	ldr	r2, [sp, #48]	; 0x30
    5648:	ea43 0102 	orr.w	r1, r3, r2
    564c:	9b07      	ldr	r3, [sp, #28]
    564e:	430b      	orrs	r3, r1
    5650:	464d      	mov	r5, r9
    5652:	9b0a      	ldr	r3, [sp, #40]	; 0x28
    5654:	d10d      	bne.n	5672 <_dtoa_r+0xa2a>
    5656:	2b39      	cmp	r3, #57	; 0x39
    5658:	d027      	beq.n	56aa <_dtoa_r+0xa62>
    565a:	9a06      	ldr	r2, [sp, #24]
    565c:	2a00      	cmp	r2, #0
    565e:	dd01      	ble.n	5664 <_dtoa_r+0xa1c>
    5660:	9b04      	ldr	r3, [sp, #16]
    5662:	3331      	adds	r3, #49	; 0x31
    5664:	9a02      	ldr	r2, [sp, #8]
    5666:	7013      	strb	r3, [r2, #0]
    5668:	e77a      	b.n	5560 <_dtoa_r+0x918>
    566a:	4630      	mov	r0, r6
    566c:	e7b8      	b.n	55e0 <_dtoa_r+0x998>
    566e:	2201      	movs	r2, #1
    5670:	e7e2      	b.n	5638 <_dtoa_r+0x9f0>
    5672:	9906      	ldr	r1, [sp, #24]
    5674:	2900      	cmp	r1, #0
    5676:	db04      	blt.n	5682 <_dtoa_r+0xa3a>
    5678:	9808      	ldr	r0, [sp, #32]
    567a:	4301      	orrs	r1, r0
    567c:	9807      	ldr	r0, [sp, #28]
    567e:	4301      	orrs	r1, r0
    5680:	d11e      	bne.n	56c0 <_dtoa_r+0xa78>
    5682:	2a00      	cmp	r2, #0
    5684:	ddee      	ble.n	5664 <_dtoa_r+0xa1c>
    5686:	4641      	mov	r1, r8
    5688:	2201      	movs	r2, #1
    568a:	4658      	mov	r0, fp
    568c:	9306      	str	r3, [sp, #24]
    568e:	f012 f827 	bl	176e0 <__lshift>
    5692:	4621      	mov	r1, r4
    5694:	4680      	mov	r8, r0
    5696:	f019 fc17 	bl	1eec8 <__mcmp>
    569a:	2800      	cmp	r0, #0
    569c:	9b06      	ldr	r3, [sp, #24]
    569e:	dc02      	bgt.n	56a6 <_dtoa_r+0xa5e>
    56a0:	d1e0      	bne.n	5664 <_dtoa_r+0xa1c>
    56a2:	07da      	lsls	r2, r3, #31
    56a4:	d5de      	bpl.n	5664 <_dtoa_r+0xa1c>
    56a6:	2b39      	cmp	r3, #57	; 0x39
    56a8:	d1da      	bne.n	5660 <_dtoa_r+0xa18>
    56aa:	9a02      	ldr	r2, [sp, #8]
    56ac:	2339      	movs	r3, #57	; 0x39
    56ae:	7013      	strb	r3, [r2, #0]
    56b0:	f815 3c01 	ldrb.w	r3, [r5, #-1]
    56b4:	2b39      	cmp	r3, #57	; 0x39
    56b6:	f105 32ff 	add.w	r2, r5, #4294967295
    56ba:	d046      	beq.n	574a <_dtoa_r+0xb02>
    56bc:	3301      	adds	r3, #1
    56be:	e7d2      	b.n	5666 <_dtoa_r+0xa1e>
    56c0:	2a00      	cmp	r2, #0
    56c2:	dd03      	ble.n	56cc <_dtoa_r+0xa84>
    56c4:	2b39      	cmp	r3, #57	; 0x39
    56c6:	d0f0      	beq.n	56aa <_dtoa_r+0xa62>
    56c8:	3301      	adds	r3, #1
    56ca:	e7cb      	b.n	5664 <_dtoa_r+0xa1c>
    56cc:	9a09      	ldr	r2, [sp, #36]	; 0x24
    56ce:	f809 3c01 	strb.w	r3, [r9, #-1]
    56d2:	4591      	cmp	r9, r2
    56d4:	d020      	beq.n	5718 <_dtoa_r+0xad0>
    56d6:	4641      	mov	r1, r8
    56d8:	2300      	movs	r3, #0
    56da:	220a      	movs	r2, #10
    56dc:	4658      	mov	r0, fp
    56de:	f014 f85e 	bl	1979e <__multadd>
    56e2:	42b7      	cmp	r7, r6
    56e4:	4680      	mov	r8, r0
    56e6:	f04f 0300 	mov.w	r3, #0
    56ea:	f04f 020a 	mov.w	r2, #10
    56ee:	4639      	mov	r1, r7
    56f0:	4658      	mov	r0, fp
    56f2:	d106      	bne.n	5702 <_dtoa_r+0xaba>
    56f4:	f014 f853 	bl	1979e <__multadd>
    56f8:	4607      	mov	r7, r0
    56fa:	4606      	mov	r6, r0
    56fc:	f109 0901 	add.w	r9, r9, #1
    5700:	e77b      	b.n	55fa <_dtoa_r+0x9b2>
    5702:	f014 f84c 	bl	1979e <__multadd>
    5706:	2300      	movs	r3, #0
    5708:	4607      	mov	r7, r0
    570a:	220a      	movs	r2, #10
    570c:	4631      	mov	r1, r6
    570e:	4658      	mov	r0, fp
    5710:	f014 f845 	bl	1979e <__multadd>
    5714:	e7f1      	b.n	56fa <_dtoa_r+0xab2>
    5716:	2700      	movs	r7, #0
    5718:	4641      	mov	r1, r8
    571a:	2201      	movs	r2, #1
    571c:	4658      	mov	r0, fp
    571e:	9302      	str	r3, [sp, #8]
    5720:	f011 ffde 	bl	176e0 <__lshift>
    5724:	4621      	mov	r1, r4
    5726:	4680      	mov	r8, r0
    5728:	f019 fbce 	bl	1eec8 <__mcmp>
    572c:	2800      	cmp	r0, #0
    572e:	dcbf      	bgt.n	56b0 <_dtoa_r+0xa68>
    5730:	d102      	bne.n	5738 <_dtoa_r+0xaf0>
    5732:	9b02      	ldr	r3, [sp, #8]
    5734:	07db      	lsls	r3, r3, #31
    5736:	d4bb      	bmi.n	56b0 <_dtoa_r+0xa68>
    5738:	f815 3c01 	ldrb.w	r3, [r5, #-1]
    573c:	2b30      	cmp	r3, #48	; 0x30
    573e:	f105 32ff 	add.w	r2, r5, #4294967295
    5742:	f47f af0d 	bne.w	5560 <_dtoa_r+0x918>
    5746:	4615      	mov	r5, r2
    5748:	e7f6      	b.n	5738 <_dtoa_r+0xaf0>
    574a:	9b01      	ldr	r3, [sp, #4]
    574c:	4293      	cmp	r3, r2
    574e:	d104      	bne.n	575a <_dtoa_r+0xb12>
    5750:	f10a 0a01 	add.w	sl, sl, #1
    5754:	2331      	movs	r3, #49	; 0x31
    5756:	9a01      	ldr	r2, [sp, #4]
    5758:	e785      	b.n	5666 <_dtoa_r+0xa1e>
    575a:	4615      	mov	r5, r2
    575c:	e7a8      	b.n	56b0 <_dtoa_r+0xa68>
    575e:	4b13      	ldr	r3, [pc, #76]	; (57ac <_dtoa_r+0xb64>)
    5760:	f7ff bad9 	b.w	4d16 <_dtoa_r+0xce>
    5764:	9b23      	ldr	r3, [sp, #140]	; 0x8c
    5766:	2b00      	cmp	r3, #0
    5768:	f47f aab1 	bne.w	4cce <_dtoa_r+0x86>
    576c:	4b10      	ldr	r3, [pc, #64]	; (57b0 <_dtoa_r+0xb68>)
    576e:	f7ff bad2 	b.w	4d16 <_dtoa_r+0xce>
    5772:	9b02      	ldr	r3, [sp, #8]
    5774:	2b00      	cmp	r3, #0
    5776:	dc03      	bgt.n	5780 <_dtoa_r+0xb38>
    5778:	9b08      	ldr	r3, [sp, #32]
    577a:	2b02      	cmp	r3, #2
    577c:	f73f aedc 	bgt.w	5538 <_dtoa_r+0x8f0>
    5780:	9d01      	ldr	r5, [sp, #4]
    5782:	4621      	mov	r1, r4
    5784:	4640      	mov	r0, r8
    5786:	f00d f8e3 	bl	12950 <quorem>
    578a:	f100 0330 	add.w	r3, r0, #48	; 0x30
    578e:	f805 3b01 	strb.w	r3, [r5], #1
    5792:	9a01      	ldr	r2, [sp, #4]
    5794:	9902      	ldr	r1, [sp, #8]
    5796:	1aaa      	subs	r2, r5, r2
    5798:	4291      	cmp	r1, r2
    579a:	ddbc      	ble.n	5716 <_dtoa_r+0xace>
    579c:	4641      	mov	r1, r8
    579e:	2300      	movs	r3, #0
    57a0:	220a      	movs	r2, #10
    57a2:	4658      	mov	r0, fp
    57a4:	f013 fffb 	bl	1979e <__multadd>
    57a8:	4680      	mov	r8, r0
    57aa:	e7ea      	b.n	5782 <_dtoa_r+0xb3a>
    57ac:	00021ce9 	.word	0x00021ce9
    57b0:	00021cdc 	.word	0x00021cdc

Disassembly of section .text.Transform%188:

00006960 <Transform>:

#define MD5STEP(f, w, x, y, z, data, s) \
        w = rotlFixed(w + f(x, y, z) + data, s) + x

static int Transform(wc_Md5* md5, const byte* data)
{
    6960:	e92d 4ff0 	stmdb	sp!, {r4, r5, r6, r7, r8, r9, sl, fp, lr}
    6964:	b08d      	sub	sp, #52	; 0x34
    word32* buffer = (word32*)data;
    /* Copy context->state[] to working vars  */
    word32 a = md5->digest[0];
    word32 b = md5->digest[1];
    6966:	f8d0 a050 	ldr.w	sl, [r0, #80]	; 0x50
    word32 c = md5->digest[2];
    word32 d = md5->digest[3];

    MD5STEP(F1, a, b, c, d, buffer[0]  + 0xd76aa478,  7);
    696a:	680a      	ldr	r2, [r1, #0]
    696c:	6d43      	ldr	r3, [r0, #84]	; 0x54
    696e:	6d84      	ldr	r4, [r0, #88]	; 0x58
    6970:	ea83 0e04 	eor.w	lr, r3, r4
    6974:	ea0e 0e0a 	and.w	lr, lr, sl
    6978:	ea8e 0e04 	eor.w	lr, lr, r4
    697c:	4bd8      	ldr	r3, [pc, #864]	; (6ce0 <Transform+0x380>)
    697e:	6cc4      	ldr	r4, [r0, #76]	; 0x4c
    6980:	4423      	add	r3, r4
    6982:	920a      	str	r2, [sp, #40]	; 0x28
    6984:	4413      	add	r3, r2
    6986:	449e      	add	lr, r3
    6988:	eb0a 6e7e 	add.w	lr, sl, lr, ror #25
    MD5STEP(F1, d, a, b, c, buffer[1]  + 0xe8c7b756, 12);
    698c:	684e      	ldr	r6, [r1, #4]
    698e:	6d43      	ldr	r3, [r0, #84]	; 0x54
    6990:	ea8a 0703 	eor.w	r7, sl, r3
    6994:	ea07 070e 	and.w	r7, r7, lr
    6998:	405f      	eors	r7, r3
    699a:	4bd2      	ldr	r3, [pc, #840]	; (6ce4 <Transform+0x384>)
    699c:	6d85      	ldr	r5, [r0, #88]	; 0x58
    699e:	442b      	add	r3, r5
    69a0:	9600      	str	r6, [sp, #0]
    69a2:	4433      	add	r3, r6
    69a4:	441f      	add	r7, r3
    69a6:	eb0e 5737 	add.w	r7, lr, r7, ror #20
    MD5STEP(F1, c, d, a, b, buffer[2]  + 0x242070db, 17);
    69aa:	688b      	ldr	r3, [r1, #8]
    69ac:	461a      	mov	r2, r3
    69ae:	ea8a 050e 	eor.w	r5, sl, lr
    69b2:	403d      	ands	r5, r7
    69b4:	ea85 050a 	eor.w	r5, r5, sl
    69b8:	4bcb      	ldr	r3, [pc, #812]	; (6ce8 <Transform+0x388>)
    69ba:	6d44      	ldr	r4, [r0, #84]	; 0x54
    69bc:	4423      	add	r3, r4
    69be:	9201      	str	r2, [sp, #4]
    69c0:	4413      	add	r3, r2
    69c2:	441d      	add	r5, r3
    69c4:	eb07 35f5 	add.w	r5, r7, r5, ror #15
    MD5STEP(F1, b, c, d, a, buffer[3]  + 0xc1bdceee, 22);
    69c8:	68cb      	ldr	r3, [r1, #12]
    69ca:	461c      	mov	r4, r3
    69cc:	ea8e 0607 	eor.w	r6, lr, r7
    69d0:	402e      	ands	r6, r5
    69d2:	ea86 060e 	eor.w	r6, r6, lr
    69d6:	4bc5      	ldr	r3, [pc, #788]	; (6cec <Transform+0x38c>)
    69d8:	4453      	add	r3, sl
    69da:	9402      	str	r4, [sp, #8]
    69dc:	4423      	add	r3, r4
    69de:	441e      	add	r6, r3
    69e0:	eb05 26b6 	add.w	r6, r5, r6, ror #10
    MD5STEP(F1, a, b, c, d, buffer[4]  + 0xf57c0faf,  7);
    69e4:	690b      	ldr	r3, [r1, #16]
    69e6:	461c      	mov	r4, r3
    69e8:	ea87 0305 	eor.w	r3, r7, r5
    69ec:	4033      	ands	r3, r6
    69ee:	407b      	eors	r3, r7
    69f0:	4abf      	ldr	r2, [pc, #764]	; (6cf0 <Transform+0x390>)
    69f2:	9403      	str	r4, [sp, #12]
    69f4:	4422      	add	r2, r4
    69f6:	4496      	add	lr, r2
    69f8:	4473      	add	r3, lr
    69fa:	eb06 6973 	add.w	r9, r6, r3, ror #25
    MD5STEP(F1, d, a, b, c, buffer[5]  + 0x4787c62a, 12);
    69fe:	694a      	ldr	r2, [r1, #20]
    6a00:	4613      	mov	r3, r2
    6a02:	ea85 0406 	eor.w	r4, r5, r6
    6a06:	ea04 0409 	and.w	r4, r4, r9
    6a0a:	406c      	eors	r4, r5
    6a0c:	4ab9      	ldr	r2, [pc, #740]	; (6cf4 <Transform+0x394>)
    6a0e:	9304      	str	r3, [sp, #16]
    6a10:	441a      	add	r2, r3
    6a12:	4417      	add	r7, r2
    6a14:	443c      	add	r4, r7
    6a16:	eb09 5434 	add.w	r4, r9, r4, ror #20
    MD5STEP(F1, c, d, a, b, buffer[6]  + 0xa8304613, 17);
    6a1a:	698b      	ldr	r3, [r1, #24]
    6a1c:	ea86 0209 	eor.w	r2, r6, r9
    6a20:	4022      	ands	r2, r4
    6a22:	4072      	eors	r2, r6
    6a24:	4fb4      	ldr	r7, [pc, #720]	; (6cf8 <Transform+0x398>)
    6a26:	9305      	str	r3, [sp, #20]
    6a28:	441f      	add	r7, r3
    6a2a:	443d      	add	r5, r7
    6a2c:	442a      	add	r2, r5
    6a2e:	eb04 32f2 	add.w	r2, r4, r2, ror #15
    MD5STEP(F1, b, c, d, a, buffer[7]  + 0xfd469501, 22);
    6a32:	69cf      	ldr	r7, [r1, #28]
    6a34:	ea89 0804 	eor.w	r8, r9, r4
    6a38:	ea08 0802 	and.w	r8, r8, r2
    6a3c:	ea88 0809 	eor.w	r8, r8, r9
    6a40:	4dae      	ldr	r5, [pc, #696]	; (6cfc <Transform+0x39c>)
    6a42:	9706      	str	r7, [sp, #24]
    6a44:	443d      	add	r5, r7
    6a46:	442e      	add	r6, r5
    6a48:	44b0      	add	r8, r6
    6a4a:	eb02 28b8 	add.w	r8, r2, r8, ror #10
    MD5STEP(F1, a, b, c, d, buffer[8]  + 0x698098d8,  7);
    6a4e:	6a0f      	ldr	r7, [r1, #32]
    6a50:	ea84 0c02 	eor.w	ip, r4, r2
    6a54:	ea0c 0c08 	and.w	ip, ip, r8
    6a58:	ea8c 0c04 	eor.w	ip, ip, r4
    6a5c:	4da8      	ldr	r5, [pc, #672]	; (6d00 <Transform+0x3a0>)
    6a5e:	9707      	str	r7, [sp, #28]
    6a60:	443d      	add	r5, r7
    6a62:	eb09 0305 	add.w	r3, r9, r5
    6a66:	449c      	add	ip, r3
    6a68:	eb08 6c7c 	add.w	ip, r8, ip, ror #25
    MD5STEP(F1, d, a, b, c, buffer[9]  + 0x8b44f7af, 12);
    6a6c:	6a4d      	ldr	r5, [r1, #36]	; 0x24
    6a6e:	ea82 0908 	eor.w	r9, r2, r8
    6a72:	ea09 090c 	and.w	r9, r9, ip
    6a76:	ea89 0902 	eor.w	r9, r9, r2
    6a7a:	4ba2      	ldr	r3, [pc, #648]	; (6d04 <Transform+0x3a4>)
    6a7c:	9508      	str	r5, [sp, #32]
    6a7e:	442b      	add	r3, r5
    6a80:	441c      	add	r4, r3
    6a82:	44a1      	add	r9, r4
    6a84:	eb0c 5939 	add.w	r9, ip, r9, ror #20
    MD5STEP(F1, c, d, a, b, buffer[10] + 0xffff5bb1, 17);
    6a88:	6a8b      	ldr	r3, [r1, #40]	; 0x28
    6a8a:	ea88 0e0c 	eor.w	lr, r8, ip
    6a8e:	ea0e 0e09 	and.w	lr, lr, r9
    6a92:	ea8e 0e08 	eor.w	lr, lr, r8
    6a96:	9309      	str	r3, [sp, #36]	; 0x24
    6a98:	f5a3 4324 	sub.w	r3, r3, #41984	; 0xa400
    6a9c:	3b4f      	subs	r3, #79	; 0x4f
    6a9e:	441a      	add	r2, r3
    6aa0:	4496      	add	lr, r2
    6aa2:	eb09 3efe 	add.w	lr, r9, lr, ror #15
    MD5STEP(F1, b, c, d, a, buffer[11] + 0x895cd7be, 22);
    6aa6:	6aca      	ldr	r2, [r1, #44]	; 0x2c
    6aa8:	4616      	mov	r6, r2
    6aaa:	ea8c 0509 	eor.w	r5, ip, r9
    6aae:	ea05 050e 	and.w	r5, r5, lr
    6ab2:	ea85 050c 	eor.w	r5, r5, ip
    6ab6:	4b94      	ldr	r3, [pc, #592]	; (6d08 <Transform+0x3a8>)
    6ab8:	4413      	add	r3, r2
    6aba:	4498      	add	r8, r3
    6abc:	4445      	add	r5, r8
    6abe:	eb0e 25b5 	add.w	r5, lr, r5, ror #10
    MD5STEP(F1, a, b, c, d, buffer[12] + 0x6b901122,  7);
    6ac2:	f8d1 8030 	ldr.w	r8, [r1, #48]	; 0x30
    6ac6:	ea89 070e 	eor.w	r7, r9, lr
    6aca:	402f      	ands	r7, r5
    6acc:	ea87 0709 	eor.w	r7, r7, r9
    6ad0:	4b8e      	ldr	r3, [pc, #568]	; (6d0c <Transform+0x3ac>)
    6ad2:	4443      	add	r3, r8
    6ad4:	449c      	add	ip, r3
    6ad6:	4467      	add	r7, ip
    6ad8:	eb05 6777 	add.w	r7, r5, r7, ror #25
    MD5STEP(F1, d, a, b, c, buffer[13] + 0xfd987193, 12);
    6adc:	f8d1 c034 	ldr.w	ip, [r1, #52]	; 0x34
    6ae0:	ea8e 0305 	eor.w	r3, lr, r5
    6ae4:	403b      	ands	r3, r7
    6ae6:	ea83 030e 	eor.w	r3, r3, lr
    6aea:	4a89      	ldr	r2, [pc, #548]	; (6d10 <Transform+0x3b0>)
    6aec:	4462      	add	r2, ip
    6aee:	4491      	add	r9, r2
    6af0:	444b      	add	r3, r9
    6af2:	eb07 5333 	add.w	r3, r7, r3, ror #20
    MD5STEP(F1, c, d, a, b, buffer[14] + 0xa679438e, 17);
    6af6:	f8d1 9038 	ldr.w	r9, [r1, #56]	; 0x38
    6afa:	ea85 0407 	eor.w	r4, r5, r7
    6afe:	401c      	ands	r4, r3
    6b00:	406c      	eors	r4, r5
    6b02:	4a84      	ldr	r2, [pc, #528]	; (6d14 <Transform+0x3b4>)
    6b04:	444a      	add	r2, r9
    6b06:	4496      	add	lr, r2
    6b08:	4474      	add	r4, lr
    6b0a:	eb03 34f4 	add.w	r4, r3, r4, ror #15
    MD5STEP(F1, b, c, d, a, buffer[15] + 0x49b40821, 22);
    6b0e:	f8d1 e03c 	ldr.w	lr, [r1, #60]	; 0x3c
    6b12:	ea87 0203 	eor.w	r2, r7, r3
    6b16:	4022      	ands	r2, r4
    6b18:	407a      	eors	r2, r7
    6b1a:	497f      	ldr	r1, [pc, #508]	; (6d18 <Transform+0x3b8>)
    6b1c:	4471      	add	r1, lr
    6b1e:	440d      	add	r5, r1
    6b20:	442a      	add	r2, r5
    6b22:	eb04 22b2 	add.w	r2, r4, r2, ror #10

    MD5STEP(F2, a, b, c, d, buffer[1]  + 0xf61e2562,  5);
    6b26:	ea84 0b02 	eor.w	fp, r4, r2
    6b2a:	ea0b 0b03 	and.w	fp, fp, r3
    6b2e:	ea8b 0b04 	eor.w	fp, fp, r4
    6b32:	497a      	ldr	r1, [pc, #488]	; (6d1c <Transform+0x3bc>)
    6b34:	9d00      	ldr	r5, [sp, #0]
    6b36:	4429      	add	r1, r5
    6b38:	440f      	add	r7, r1
    6b3a:	44bb      	add	fp, r7
    6b3c:	eb02 6bfb 	add.w	fp, r2, fp, ror #27
    MD5STEP(F2, d, a, b, c, buffer[6]  + 0xc040b340,  9);
    6b40:	ea82 070b 	eor.w	r7, r2, fp
    6b44:	4027      	ands	r7, r4
    6b46:	4057      	eors	r7, r2
    6b48:	4975      	ldr	r1, [pc, #468]	; (6d20 <Transform+0x3c0>)
    6b4a:	9d05      	ldr	r5, [sp, #20]
    6b4c:	4429      	add	r1, r5
    6b4e:	440b      	add	r3, r1
    6b50:	441f      	add	r7, r3
    6b52:	eb0b 57f7 	add.w	r7, fp, r7, ror #23
    MD5STEP(F2, c, d, a, b, buffer[11] + 0x265e5a51, 14);
    6b56:	ea8b 0307 	eor.w	r3, fp, r7
    6b5a:	4013      	ands	r3, r2
    6b5c:	ea83 030b 	eor.w	r3, r3, fp
    6b60:	4970      	ldr	r1, [pc, #448]	; (6d24 <Transform+0x3c4>)
    6b62:	960b      	str	r6, [sp, #44]	; 0x2c
    6b64:	4431      	add	r1, r6
    6b66:	440c      	add	r4, r1
    6b68:	4423      	add	r3, r4
    6b6a:	eb07 43b3 	add.w	r3, r7, r3, ror #18
    MD5STEP(F2, b, c, d, a, buffer[0]  + 0xe9b6c7aa, 20);
    6b6e:	ea87 0503 	eor.w	r5, r7, r3
    6b72:	ea05 050b 	and.w	r5, r5, fp
    6b76:	407d      	eors	r5, r7
    6b78:	496b      	ldr	r1, [pc, #428]	; (6d28 <Transform+0x3c8>)
    6b7a:	9c0a      	ldr	r4, [sp, #40]	; 0x28
    6b7c:	4421      	add	r1, r4
    6b7e:	440a      	add	r2, r1
    6b80:	4415      	add	r5, r2
    6b82:	eb03 3535 	add.w	r5, r3, r5, ror #12
    MD5STEP(F2, a, b, c, d, buffer[5]  + 0xd62f105d,  5);
    6b86:	ea83 0205 	eor.w	r2, r3, r5
    6b8a:	403a      	ands	r2, r7
    6b8c:	405a      	eors	r2, r3
    6b8e:	4967      	ldr	r1, [pc, #412]	; (6d2c <Transform+0x3cc>)
    6b90:	9e04      	ldr	r6, [sp, #16]
    6b92:	4431      	add	r1, r6
    6b94:	448b      	add	fp, r1
    6b96:	445a      	add	r2, fp
    6b98:	eb05 62f2 	add.w	r2, r5, r2, ror #27
    MD5STEP(F2, d, a, b, c, buffer[10] + 0x02441453,  9);
    6b9c:	ea85 0102 	eor.w	r1, r5, r2
    6ba0:	4019      	ands	r1, r3
    6ba2:	4069      	eors	r1, r5
    6ba4:	4c62      	ldr	r4, [pc, #392]	; (6d30 <Transform+0x3d0>)
    6ba6:	9e09      	ldr	r6, [sp, #36]	; 0x24
    6ba8:	4434      	add	r4, r6
    6baa:	4427      	add	r7, r4
    6bac:	4439      	add	r1, r7
    6bae:	eb02 51f1 	add.w	r1, r2, r1, ror #23
    MD5STEP(F2, c, d, a, b, buffer[15] + 0xd8a1e681, 14);
    6bb2:	ea82 0401 	eor.w	r4, r2, r1
    6bb6:	402c      	ands	r4, r5
    6bb8:	4054      	eors	r4, r2
    6bba:	4f5e      	ldr	r7, [pc, #376]	; (6d34 <Transform+0x3d4>)
    6bbc:	4477      	add	r7, lr
    6bbe:	443b      	add	r3, r7
    6bc0:	441c      	add	r4, r3
    6bc2:	eb01 44b4 	add.w	r4, r1, r4, ror #18
    MD5STEP(F2, b, c, d, a, buffer[4]  + 0xe7d3fbc8, 20);
    6bc6:	ea81 0304 	eor.w	r3, r1, r4
    6bca:	4013      	ands	r3, r2
    6bcc:	404b      	eors	r3, r1
    6bce:	4f5a      	ldr	r7, [pc, #360]	; (6d38 <Transform+0x3d8>)
    6bd0:	9e03      	ldr	r6, [sp, #12]
    6bd2:	4437      	add	r7, r6
    6bd4:	443d      	add	r5, r7
    6bd6:	442b      	add	r3, r5
    6bd8:	eb04 3333 	add.w	r3, r4, r3, ror #12
    MD5STEP(F2, a, b, c, d, buffer[9]  + 0x21e1cde6,  5);
    6bdc:	ea84 0b03 	eor.w	fp, r4, r3
    6be0:	ea0b 0b01 	and.w	fp, fp, r1
    6be4:	ea8b 0b04 	eor.w	fp, fp, r4
    6be8:	4d54      	ldr	r5, [pc, #336]	; (6d3c <Transform+0x3dc>)
    6bea:	9e08      	ldr	r6, [sp, #32]
    6bec:	4435      	add	r5, r6
    6bee:	442a      	add	r2, r5
    6bf0:	4493      	add	fp, r2
    6bf2:	eb03 6bfb 	add.w	fp, r3, fp, ror #27
    MD5STEP(F2, d, a, b, c, buffer[14] + 0xc33707d6,  9);
    6bf6:	ea83 070b 	eor.w	r7, r3, fp
    6bfa:	4027      	ands	r7, r4
    6bfc:	405f      	eors	r7, r3
    6bfe:	4a50      	ldr	r2, [pc, #320]	; (6d40 <Transform+0x3e0>)
    6c00:	444a      	add	r2, r9
    6c02:	4411      	add	r1, r2
    6c04:	440f      	add	r7, r1
    6c06:	eb0b 57f7 	add.w	r7, fp, r7, ror #23
    MD5STEP(F2, c, d, a, b, buffer[3]  + 0xf4d50d87, 14);
    6c0a:	ea8b 0507 	eor.w	r5, fp, r7
    6c0e:	401d      	ands	r5, r3
    6c10:	ea85 050b 	eor.w	r5, r5, fp
    6c14:	4a4b      	ldr	r2, [pc, #300]	; (6d44 <Transform+0x3e4>)
    6c16:	9902      	ldr	r1, [sp, #8]
    6c18:	440a      	add	r2, r1
    6c1a:	4414      	add	r4, r2
    6c1c:	4425      	add	r5, r4
    6c1e:	eb07 45b5 	add.w	r5, r7, r5, ror #18
    MD5STEP(F2, b, c, d, a, buffer[8]  + 0x455a14ed, 20);
    6c22:	ea87 0205 	eor.w	r2, r7, r5
    6c26:	ea02 020b 	and.w	r2, r2, fp
    6c2a:	407a      	eors	r2, r7
    6c2c:	4946      	ldr	r1, [pc, #280]	; (6d48 <Transform+0x3e8>)
    6c2e:	9e07      	ldr	r6, [sp, #28]
    6c30:	4431      	add	r1, r6
    6c32:	440b      	add	r3, r1
    6c34:	441a      	add	r2, r3
    6c36:	eb05 3232 	add.w	r2, r5, r2, ror #12
    MD5STEP(F2, a, b, c, d, buffer[13] + 0xa9e3e905,  5);
    6c3a:	ea85 0302 	eor.w	r3, r5, r2
    6c3e:	403b      	ands	r3, r7
    6c40:	406b      	eors	r3, r5
    6c42:	4942      	ldr	r1, [pc, #264]	; (6d4c <Transform+0x3ec>)
    6c44:	4461      	add	r1, ip
    6c46:	448b      	add	fp, r1
    6c48:	445b      	add	r3, fp
    6c4a:	eb02 63f3 	add.w	r3, r2, r3, ror #27
    MD5STEP(F2, d, a, b, c, buffer[2]  + 0xfcefa3f8,  9);
    6c4e:	ea82 0103 	eor.w	r1, r2, r3
    6c52:	4029      	ands	r1, r5
    6c54:	4051      	eors	r1, r2
    6c56:	4c3e      	ldr	r4, [pc, #248]	; (6d50 <Transform+0x3f0>)
    6c58:	9e01      	ldr	r6, [sp, #4]
    6c5a:	4434      	add	r4, r6
    6c5c:	4427      	add	r7, r4
    6c5e:	4439      	add	r1, r7
    6c60:	eb03 51f1 	add.w	r1, r3, r1, ror #23
    MD5STEP(F2, c, d, a, b, buffer[7]  + 0x676f02d9, 14);
    6c64:	ea83 0401 	eor.w	r4, r3, r1
    6c68:	4014      	ands	r4, r2
    6c6a:	405c      	eors	r4, r3
    6c6c:	4f39      	ldr	r7, [pc, #228]	; (6d54 <Transform+0x3f4>)
    6c6e:	9e06      	ldr	r6, [sp, #24]
    6c70:	4437      	add	r7, r6
    6c72:	443d      	add	r5, r7
    6c74:	442c      	add	r4, r5
    6c76:	eb01 44b4 	add.w	r4, r1, r4, ror #18
    MD5STEP(F2, b, c, d, a, buffer[12] + 0x8d2a4c8a, 20);
    6c7a:	ea81 0b04 	eor.w	fp, r1, r4
    6c7e:	ea0b 0503 	and.w	r5, fp, r3
    6c82:	404d      	eors	r5, r1
    6c84:	4f34      	ldr	r7, [pc, #208]	; (6d58 <Transform+0x3f8>)
    6c86:	4447      	add	r7, r8
    6c88:	443a      	add	r2, r7
    6c8a:	4415      	add	r5, r2
    6c8c:	eb04 3535 	add.w	r5, r4, r5, ror #12

    MD5STEP(F3, a, b, c, d, buffer[5]  + 0xfffa3942,  4);
    6c90:	9f04      	ldr	r7, [sp, #16]
    6c92:	f5a7 22b8 	sub.w	r2, r7, #376832	; 0x5c000
    6c96:	f2a2 62be 	subw	r2, r2, #1726	; 0x6be
    6c9a:	4413      	add	r3, r2
    6c9c:	ea8b 0b05 	eor.w	fp, fp, r5
    6ca0:	445b      	add	r3, fp
    6ca2:	eb05 7333 	add.w	r3, r5, r3, ror #28
    MD5STEP(F3, d, a, b, c, buffer[8]  + 0x8771f681, 11);
    6ca6:	ea84 0205 	eor.w	r2, r4, r5
    6caa:	405a      	eors	r2, r3
    6cac:	4f2b      	ldr	r7, [pc, #172]	; (6d5c <Transform+0x3fc>)
    6cae:	9e07      	ldr	r6, [sp, #28]
    6cb0:	4437      	add	r7, r6
    6cb2:	4439      	add	r1, r7
    6cb4:	4411      	add	r1, r2
    6cb6:	eb03 5171 	add.w	r1, r3, r1, ror #21
    MD5STEP(F3, c, d, a, b, buffer[11] + 0x6d9d6122, 16);
    6cba:	ea85 0b03 	eor.w	fp, r5, r3
    6cbe:	ea8b 0b01 	eor.w	fp, fp, r1
    6cc2:	4a27      	ldr	r2, [pc, #156]	; (6d60 <Transform+0x400>)
    6cc4:	9f0b      	ldr	r7, [sp, #44]	; 0x2c
    6cc6:	443a      	add	r2, r7
    6cc8:	4414      	add	r4, r2
    6cca:	445c      	add	r4, fp
    6ccc:	eb01 4434 	add.w	r4, r1, r4, ror #16
    MD5STEP(F3, b, c, d, a, buffer[14] + 0xfde5380c, 23);
    6cd0:	ea83 0701 	eor.w	r7, r3, r1
    6cd4:	4067      	eors	r7, r4
    6cd6:	4a23      	ldr	r2, [pc, #140]	; (6d64 <Transform+0x404>)
    6cd8:	444a      	add	r2, r9
    6cda:	4415      	add	r5, r2
    6cdc:	442f      	add	r7, r5
    6cde:	e043      	b.n	6d68 <Transform+0x408>
    6ce0:	d76aa478 	.word	0xd76aa478
    6ce4:	e8c7b756 	.word	0xe8c7b756
    6ce8:	242070db 	.word	0x242070db
    6cec:	c1bdceee 	.word	0xc1bdceee
    6cf0:	f57c0faf 	.word	0xf57c0faf
    6cf4:	4787c62a 	.word	0x4787c62a
    6cf8:	a8304613 	.word	0xa8304613
    6cfc:	fd469501 	.word	0xfd469501
    6d00:	698098d8 	.word	0x698098d8
    6d04:	8b44f7af 	.word	0x8b44f7af
    6d08:	895cd7be 	.word	0x895cd7be
    6d0c:	6b901122 	.word	0x6b901122
    6d10:	fd987193 	.word	0xfd987193
    6d14:	a679438e 	.word	0xa679438e
    6d18:	49b40821 	.word	0x49b40821
    6d1c:	f61e2562 	.word	0xf61e2562
    6d20:	c040b340 	.word	0xc040b340
    6d24:	265e5a51 	.word	0x265e5a51
    6d28:	e9b6c7aa 	.word	0xe9b6c7aa
    6d2c:	d62f105d 	.word	0xd62f105d
    6d30:	02441453 	.word	0x02441453
    6d34:	d8a1e681 	.word	0xd8a1e681
    6d38:	e7d3fbc8 	.word	0xe7d3fbc8
    6d3c:	21e1cde6 	.word	0x21e1cde6
    6d40:	c33707d6 	.word	0xc33707d6
    6d44:	f4d50d87 	.word	0xf4d50d87
    6d48:	455a14ed 	.word	0x455a14ed
    6d4c:	a9e3e905 	.word	0xa9e3e905
    6d50:	fcefa3f8 	.word	0xfcefa3f8
    6d54:	676f02d9 	.word	0x676f02d9
    6d58:	8d2a4c8a 	.word	0x8d2a4c8a
    6d5c:	8771f681 	.word	0x8771f681
    6d60:	6d9d6122 	.word	0x6d9d6122
    6d64:	fde5380c 	.word	0xfde5380c
    6d68:	eb04 2777 	add.w	r7, r4, r7, ror #9
    MD5STEP(F3, a, b, c, d, buffer[1]  + 0xa4beea44,  4);
    6d6c:	ea81 0204 	eor.w	r2, r1, r4
    6d70:	407a      	eors	r2, r7
    6d72:	4d94      	ldr	r5, [pc, #592]	; (6fc4 <Transform+0x664>)
    6d74:	9e00      	ldr	r6, [sp, #0]
    6d76:	4435      	add	r5, r6
    6d78:	442b      	add	r3, r5
    6d7a:	4413      	add	r3, r2
    6d7c:	eb07 7333 	add.w	r3, r7, r3, ror #28
    MD5STEP(F3, d, a, b, c, buffer[4]  + 0x4bdecfa9, 11);
    6d80:	ea84 0207 	eor.w	r2, r4, r7
    6d84:	405a      	eors	r2, r3
    6d86:	4d90      	ldr	r5, [pc, #576]	; (6fc8 <Transform+0x668>)
    6d88:	9e03      	ldr	r6, [sp, #12]
    6d8a:	4435      	add	r5, r6
