Archive member included to satisfy reference by file (symbol)

c:/program files/microchip/xc32/v3.01/bin/bin/../../lib/gcc/pic32c/8.3.1/../../../../pic32c/lib/thumb/v7e-m+fp/hard\libpic32c.a(data_init.o)
                              build/FreeRTOS/production/_ext/161576091/startup_xc32.o (__pic32c_data_initialization)
c:/program files/microchip/xc32/v3.01/bin/bin/../../lib/gcc/pic32c/8.3.1/thumb/v7e-m+fp/hard\libgcc.a(_arm_addsubdf3.o)
                              build/FreeRTOS/production/_ext/540595297/iperf.o (__aeabi_dsub)
c:/program files/microchip/xc32/v3.01/bin/bin/../../lib/gcc/pic32c/8.3.1/thumb/v7e-m+fp/hard\libgcc.a(_arm_muldivdf3.o)
                              build/FreeRTOS/production/_ext/540595297/iperf.o (__aeabi_dmul)
c:/program files/microchip/xc32/v3.01/bin/bin/../../lib/gcc/pic32c/8.3.1/thumb/v7e-m+fp/hard\libgcc.a(_arm_cmpdf2.o)
                              build/FreeRTOS/production/_ext/540595297/iperf.o (__aeabi_dcmpgt)
c:/program files/microchip/xc32/v3.01/bin/bin/../../lib/gcc/pic32c/8.3.1/thumb/v7e-m+fp/hard\libgcc.a(_arm_fixunsdfsi.o)
                              build/FreeRTOS/production/_ext/540595297/iperf.o (__aeabi_d2uiz)
c:/program files/microchip/xc32/v3.01/bin/bin/../../lib/gcc/pic32c/8.3.1/thumb/v7e-m+fp/hard\libgcc.a(_aeabi_uldivmod.o)
                              build/FreeRTOS/production/_ext/540595297/tcp.o (__aeabi_uldivmod)
c:/program files/microchip/xc32/v3.01/bin/bin/../../lib/gcc/pic32c/8.3.1/thumb/v7e-m+fp/hard\libgcc.a(_udivmoddi4.o)
                              c:/program files/microchip/xc32/v3.01/bin/bin/../../lib/gcc/pic32c/8.3.1/thumb/v7e-m+fp/hard\libgcc.a(_aeabi_uldivmod.o) (__udivmoddi4)
c:/program files/microchip/xc32/v3.01/bin/bin/../../lib/gcc/pic32c/8.3.1/thumb/v7e-m+fp/hard\libgcc.a(_dvmd_tls.o)
                              c:/program files/microchip/xc32/v3.01/bin/bin/../../lib/gcc/pic32c/8.3.1/thumb/v7e-m+fp/hard\libgcc.a(_aeabi_uldivmod.o) (__aeabi_ldiv0)
c:/program files/microchip/xc32/v3.01/bin/bin/../../lib/gcc/pic32c/8.3.1/../../../../pic32c/lib/thumb/v7e-m+fp/hard\libc_nano.a(lib_a-assert.o)
                              build/FreeRTOS/production/_ext/1434865757/gfx_mono_text.o (__assert_func)
c:/program files/microchip/xc32/v3.01/bin/bin/../../lib/gcc/pic32c/8.3.1/../../../../pic32c/lib/thumb/v7e-m+fp/hard\libc_nano.a(lib_a-atoi.o)
                              build/FreeRTOS/production/_ext/540595297/tcpip_commands.o (atoi)
c:/program files/microchip/xc32/v3.01/bin/bin/../../lib/gcc/pic32c/8.3.1/../../../../pic32c/lib/thumb/v7e-m+fp/hard\libc_nano.a(lib_a-calloc.o)
                              build/FreeRTOS/production/_ext/161576091/initialization.o (calloc)
c:/program files/microchip/xc32/v3.01/bin/bin/../../lib/gcc/pic32c/8.3.1/../../../../pic32c/lib/thumb/v7e-m+fp/hard\libc_nano.a(lib_a-ctype_.o)
                              build/FreeRTOS/production/_ext/540595297/helpers.o (_ctype_)
c:/program files/microchip/xc32/v3.01/bin/bin/../../lib/gcc/pic32c/8.3.1/../../../../pic32c/lib/thumb/v7e-m+fp/hard\libc_nano.a(lib_a-fprintf.o)
                              c:/program files/microchip/xc32/v3.01/bin/bin/../../lib/gcc/pic32c/8.3.1/../../../../pic32c/lib/thumb/v7e-m+fp/hard\libc_nano.a(lib_a-assert.o) (fiprintf)
c:/program files/microchip/xc32/v3.01/bin/bin/../../lib/gcc/pic32c/8.3.1/../../../../pic32c/lib/thumb/v7e-m+fp/hard\libc_nano.a(lib_a-gmtime.o)
                              build/FreeRTOS/production/_ext/1664057780/asn.o (gmtime)
c:/program files/microchip/xc32/v3.01/bin/bin/../../lib/gcc/pic32c/8.3.1/../../../../pic32c/lib/thumb/v7e-m+fp/hard\libc_nano.a(lib_a-gmtime_r.o)
                              c:/program files/microchip/xc32/v3.01/bin/bin/../../lib/gcc/pic32c/8.3.1/../../../../pic32c/lib/thumb/v7e-m+fp/hard\libc_nano.a(lib_a-gmtime.o) (gmtime_r)
c:/program files/microchip/xc32/v3.01/bin/bin/../../lib/gcc/pic32c/8.3.1/../../../../pic32c/lib/thumb/v7e-m+fp/hard\libc_nano.a(lib_a-impure.o)
                              c:/program files/microchip/xc32/v3.01/bin/bin/../../lib/gcc/pic32c/8.3.1/../../../../pic32c/lib/thumb/v7e-m+fp/hard\libc_nano.a(lib_a-assert.o) (_impure_ptr)
c:/program files/microchip/xc32/v3.01/bin/bin/../../lib/gcc/pic32c/8.3.1/../../../../pic32c/lib/thumb/v7e-m+fp/hard\libc_nano.a(lib_a-init.o)
                              build/FreeRTOS/production/_ext/161576091/startup_xc32.o (__libc_init_array)
c:/program files/microchip/xc32/v3.01/bin/bin/../../lib/gcc/pic32c/8.3.1/../../../../pic32c/lib/thumb/v7e-m+fp/hard\libc_nano.a(lib_a-malloc.o)
                              build/FreeRTOS/production/_ext/1609394304/crypto.o (malloc)
c:/program files/microchip/xc32/v3.01/bin/bin/../../lib/gcc/pic32c/8.3.1/../../../../pic32c/lib/thumb/v7e-m+fp/hard\libc_nano.a(lib_a-memcmp.o)
                              build/FreeRTOS/production/_ext/41526634/drv_gmac.o (memcmp)
c:/program files/microchip/xc32/v3.01/bin/bin/../../lib/gcc/pic32c/8.3.1/../../../../pic32c/lib/thumb/v7e-m+fp/hard\libc_nano.a(lib_a-memcpy-stub.o)
                              build/FreeRTOS/production/_ext/540595297/icmp.o (memcpy)
c:/program files/microchip/xc32/v3.01/bin/bin/../../lib/gcc/pic32c/8.3.1/../../../../pic32c/lib/thumb/v7e-m+fp/hard\libc_nano.a(lib_a-memmove.o)
                              build/FreeRTOS/production/_ext/1664057780/asn.o (memmove)
c:/program files/microchip/xc32/v3.01/bin/bin/../../lib/gcc/pic32c/8.3.1/../../../../pic32c/lib/thumb/v7e-m+fp/hard\libc_nano.a(lib_a-memset.o)
                              build/FreeRTOS/production/_ext/1231519722/drv_ethphy.o (memset)
c:/program files/microchip/xc32/v3.01/bin/bin/../../lib/gcc/pic32c/8.3.1/../../../../pic32c/lib/thumb/v7e-m+fp/hard\libc_nano.a(lib_a-nano-callocr.o)
                              c:/program files/microchip/xc32/v3.01/bin/bin/../../lib/gcc/pic32c/8.3.1/../../../../pic32c/lib/thumb/v7e-m+fp/hard\libc_nano.a(lib_a-calloc.o) (_calloc_r)
c:/program files/microchip/xc32/v3.01/bin/bin/../../lib/gcc/pic32c/8.3.1/../../../../pic32c/lib/thumb/v7e-m+fp/hard\libc_nano.a(lib_a-nano-freer.o)
                              c:/program files/microchip/xc32/v3.01/bin/bin/../../lib/gcc/pic32c/8.3.1/../../../../pic32c/lib/thumb/v7e-m+fp/hard\libc_nano.a(lib_a-malloc.o) (_free_r)
c:/program files/microchip/xc32/v3.01/bin/bin/../../lib/gcc/pic32c/8.3.1/../../../../pic32c/lib/thumb/v7e-m+fp/hard\libc_nano.a(lib_a-nano-mallocr.o)
                              c:/program files/microchip/xc32/v3.01/bin/bin/../../lib/gcc/pic32c/8.3.1/../../../../pic32c/lib/thumb/v7e-m+fp/hard\libc_nano.a(lib_a-malloc.o) (_malloc_r)
c:/program files/microchip/xc32/v3.01/bin/bin/../../lib/gcc/pic32c/8.3.1/../../../../pic32c/lib/thumb/v7e-m+fp/hard\libc_nano.a(lib_a-nano-vfprintf.o)
                              c:/program files/microchip/xc32/v3.01/bin/bin/../../lib/gcc/pic32c/8.3.1/../../../../pic32c/lib/thumb/v7e-m+fp/hard\libc_nano.a(lib_a-fprintf.o) (_vfprintf_r)
c:/program files/microchip/xc32/v3.01/bin/bin/../../lib/gcc/pic32c/8.3.1/../../../../pic32c/lib/thumb/v7e-m+fp/hard\libc_nano.a(lib_a-nano-vfprintf_float.o)
                              c:/program files/microchip/xc32/v3.01/bin/bin/../../lib/gcc/pic32c/8.3.1/../../../../pic32c/lib/thumb/v7e-m+fp/hard\libc_nano.a(lib_a-nano-vfprintf.o) (_printf_float)
c:/program files/microchip/xc32/v3.01/bin/bin/../../lib/gcc/pic32c/8.3.1/../../../../pic32c/lib/thumb/v7e-m+fp/hard\libc_nano.a(lib_a-nano-vfprintf_i.o)
                              c:/program files/microchip/xc32/v3.01/bin/bin/../../lib/gcc/pic32c/8.3.1/../../../../pic32c/lib/thumb/v7e-m+fp/hard\libc_nano.a(lib_a-nano-vfprintf_float.o) (_printf_common)
c:/program files/microchip/xc32/v3.01/bin/bin/../../lib/gcc/pic32c/8.3.1/../../../../pic32c/lib/thumb/v7e-m+fp/hard\libc_nano.a(lib_a-rand.o)
                              build/FreeRTOS/production/_ext/1664057780/random.o (srand)
c:/program files/microchip/xc32/v3.01/bin/bin/../../lib/gcc/pic32c/8.3.1/../../../../pic32c/lib/thumb/v7e-m+fp/hard\libc_nano.a(lib_a-sbrkr.o)
                              c:/program files/microchip/xc32/v3.01/bin/bin/../../lib/gcc/pic32c/8.3.1/../../../../pic32c/lib/thumb/v7e-m+fp/hard\libc_nano.a(lib_a-nano-mallocr.o) (_sbrk_r)
c:/program files/microchip/xc32/v3.01/bin/bin/../../lib/gcc/pic32c/8.3.1/../../../../pic32c/lib/thumb/v7e-m+fp/hard\libc_nano.a(lib_a-snprintf.o)
                              (snprintf)
c:/program files/microchip/xc32/v3.01/bin/bin/../../lib/gcc/pic32c/8.3.1/../../../../pic32c/lib/thumb/v7e-m+fp/hard\libc_nano.a(lib_a-sprintf.o)
                              (sprintf)
c:/program files/microchip/xc32/v3.01/bin/bin/../../lib/gcc/pic32c/8.3.1/../../../../pic32c/lib/thumb/v7e-m+fp/hard\libc_nano.a(lib_a-strchr.o)
                              build/FreeRTOS/production/_ext/1005353002/sys_command.o (strchr)
c:/program files/microchip/xc32/v3.01/bin/bin/../../lib/gcc/pic32c/8.3.1/../../../../pic32c/lib/thumb/v7e-m+fp/hard\libc_nano.a(lib_a-strcmp.o)
                              build/FreeRTOS/production/_ext/540595297/tcpip_commands.o (strcmp)
c:/program files/microchip/xc32/v3.01/bin/bin/../../lib/gcc/pic32c/8.3.1/../../../../pic32c/lib/thumb/v7e-m+fp/hard\libc_nano.a(lib_a-strcpy.o)
                              build/FreeRTOS/production/_ext/540595297/tcpip_commands.o (strcpy)
c:/program files/microchip/xc32/v3.01/bin/bin/../../lib/gcc/pic32c/8.3.1/../../../../pic32c/lib/thumb/v7e-m+fp/hard\libc_nano.a(lib_a-strlen.o)
                              build/FreeRTOS/production/_ext/540595297/helpers.o (strlen)
c:/program files/microchip/xc32/v3.01/bin/bin/../../lib/gcc/pic32c/8.3.1/../../../../pic32c/lib/thumb/v7e-m+fp/hard\libc_nano.a(lib_a-strncmp.o)
                              build/FreeRTOS/production/_ext/1005353002/sys_command.o (strncmp)
c:/program files/microchip/xc32/v3.01/bin/bin/../../lib/gcc/pic32c/8.3.1/../../../../pic32c/lib/thumb/v7e-m+fp/hard\libc_nano.a(lib_a-strncpy.o)
                              build/FreeRTOS/production/_ext/1609394304/crypto.o (strncpy)
c:/program files/microchip/xc32/v3.01/bin/bin/../../lib/gcc/pic32c/8.3.1/../../../../pic32c/lib/thumb/v7e-m+fp/hard\libc_nano.a(lib_a-strtok.o)
                              build/FreeRTOS/production/_ext/1005353002/sys_command.o (strtok)
c:/program files/microchip/xc32/v3.01/bin/bin/../../lib/gcc/pic32c/8.3.1/../../../../pic32c/lib/thumb/v7e-m+fp/hard\libc_nano.a(lib_a-strtok_r.o)
                              c:/program files/microchip/xc32/v3.01/bin/bin/../../lib/gcc/pic32c/8.3.1/../../../../pic32c/lib/thumb/v7e-m+fp/hard\libc_nano.a(lib_a-strtok.o) (__strtok_r)
c:/program files/microchip/xc32/v3.01/bin/bin/../../lib/gcc/pic32c/8.3.1/../../../../pic32c/lib/thumb/v7e-m+fp/hard\libc_nano.a(lib_a-strtol.o)
                              c:/program files/microchip/xc32/v3.01/bin/bin/../../lib/gcc/pic32c/8.3.1/../../../../pic32c/lib/thumb/v7e-m+fp/hard\libc_nano.a(lib_a-atoi.o) (_strtol_r)
c:/program files/microchip/xc32/v3.01/bin/bin/../../lib/gcc/pic32c/8.3.1/../../../../pic32c/lib/thumb/v7e-m+fp/hard\libc_nano.a(lib_a-time.o)
                              build/FreeRTOS/production/_ext/1664057780/asn.o (time)
c:/program files/microchip/xc32/v3.01/bin/bin/../../lib/gcc/pic32c/8.3.1/../../../../pic32c/lib/thumb/v7e-m+fp/hard\libc_nano.a(lib_a-vsnprintf.o)
                              build/FreeRTOS/production/_ext/1005353002/sys_command.o (vsnprintf)
c:/program files/microchip/xc32/v3.01/bin/bin/../../lib/gcc/pic32c/8.3.1/../../../../pic32c/lib/thumb/v7e-m+fp/hard\libc_nano.a(lib_a-wsetup.o)
                              c:/program files/microchip/xc32/v3.01/bin/bin/../../lib/gcc/pic32c/8.3.1/../../../../pic32c/lib/thumb/v7e-m+fp/hard\libc_nano.a(lib_a-nano-vfprintf.o) (__swsetup_r)
c:/program files/microchip/xc32/v3.01/bin/bin/../../lib/gcc/pic32c/8.3.1/../../../../pic32c/lib/thumb/v7e-m+fp/hard\libc_nano.a(lib_a-__ssfputs.o)
                              c:/program files/microchip/xc32/v3.01/bin/bin/../../lib/gcc/pic32c/8.3.1/../../../../pic32c/lib/thumb/v7e-m+fp/hard\libc_nano.a(lib_a-nano-vfprintf.o) (__ssfputs_r)
c:/program files/microchip/xc32/v3.01/bin/bin/../../lib/gcc/pic32c/8.3.1/../../../../pic32c/lib/thumb/v7e-m+fp/hard\libc_nano.a(lib_a-abort.o)
                              c:/program files/microchip/xc32/v3.01/bin/bin/../../lib/gcc/pic32c/8.3.1/../../../../pic32c/lib/thumb/v7e-m+fp/hard\libc_nano.a(lib_a-assert.o) (abort)
c:/program files/microchip/xc32/v3.01/bin/bin/../../lib/gcc/pic32c/8.3.1/../../../../pic32c/lib/thumb/v7e-m+fp/hard\libc_nano.a(lib_a-dtoa.o)
                              c:/program files/microchip/xc32/v3.01/bin/bin/../../lib/gcc/pic32c/8.3.1/../../../../pic32c/lib/thumb/v7e-m+fp/hard\libc_nano.a(lib_a-nano-vfprintf_float.o) (_dtoa_r)
c:/program files/microchip/xc32/v3.01/bin/bin/../../lib/gcc/pic32c/8.3.1/../../../../pic32c/lib/thumb/v7e-m+fp/hard\libc_nano.a(lib_a-findfp.o)
                              c:/program files/microchip/xc32/v3.01/bin/bin/../../lib/gcc/pic32c/8.3.1/../../../../pic32c/lib/thumb/v7e-m+fp/hard\libc_nano.a(lib_a-nano-vfprintf.o) (__sinit)
c:/program files/microchip/xc32/v3.01/bin/bin/../../lib/gcc/pic32c/8.3.1/../../../../pic32c/lib/thumb/v7e-m+fp/hard\libc_nano.a(lib_a-fputwc.o)
                              c:/program files/microchip/xc32/v3.01/bin/bin/../../lib/gcc/pic32c/8.3.1/../../../../pic32c/lib/thumb/v7e-m+fp/hard\libc_nano.a(lib_a-__ssfputs.o) (_fputwc_r)
c:/program files/microchip/xc32/v3.01/bin/bin/../../lib/gcc/pic32c/8.3.1/../../../../pic32c/lib/thumb/v7e-m+fp/hard\libc_nano.a(lib_a-fwalk.o)
                              c:/program files/microchip/xc32/v3.01/bin/bin/../../lib/gcc/pic32c/8.3.1/../../../../pic32c/lib/thumb/v7e-m+fp/hard\libc_nano.a(lib_a-findfp.o) (_fwalk_reent)
c:/program files/microchip/xc32/v3.01/bin/bin/../../lib/gcc/pic32c/8.3.1/../../../../pic32c/lib/thumb/v7e-m+fp/hard\libc_nano.a(lib_a-gettimeofdayr.o)
                              c:/program files/microchip/xc32/v3.01/bin/bin/../../lib/gcc/pic32c/8.3.1/../../../../pic32c/lib/thumb/v7e-m+fp/hard\libc_nano.a(lib_a-time.o) (_gettimeofday_r)
c:/program files/microchip/xc32/v3.01/bin/bin/../../lib/gcc/pic32c/8.3.1/../../../../pic32c/lib/thumb/v7e-m+fp/hard\libc_nano.a(lib_a-locale.o)
                              c:/program files/microchip/xc32/v3.01/bin/bin/../../lib/gcc/pic32c/8.3.1/../../../../pic32c/lib/thumb/v7e-m+fp/hard\libc_nano.a(lib_a-fputwc.o) (__locale_mb_cur_max)
c:/program files/microchip/xc32/v3.01/bin/bin/../../lib/gcc/pic32c/8.3.1/../../../../pic32c/lib/thumb/v7e-m+fp/hard\libc_nano.a(lib_a-localeconv.o)
                              c:/program files/microchip/xc32/v3.01/bin/bin/../../lib/gcc/pic32c/8.3.1/../../../../pic32c/lib/thumb/v7e-m+fp/hard\libc_nano.a(lib_a-nano-vfprintf_float.o) (_localeconv_r)
c:/program files/microchip/xc32/v3.01/bin/bin/../../lib/gcc/pic32c/8.3.1/../../../../pic32c/lib/thumb/v7e-m+fp/hard\libc_nano.a(lib_a-makebuf.o)
                              c:/program files/microchip/xc32/v3.01/bin/bin/../../lib/gcc/pic32c/8.3.1/../../../../pic32c/lib/thumb/v7e-m+fp/hard\libc_nano.a(lib_a-wsetup.o) (__smakebuf_r)
c:/program files/microchip/xc32/v3.01/bin/bin/../../lib/gcc/pic32c/8.3.1/../../../../pic32c/lib/thumb/v7e-m+fp/hard\libc_nano.a(lib_a-mbtowc_r.o)
                              c:/program files/microchip/xc32/v3.01/bin/bin/../../lib/gcc/pic32c/8.3.1/../../../../pic32c/lib/thumb/v7e-m+fp/hard\libc_nano.a(lib_a-locale.o) (__ascii_mbtowc)
c:/program files/microchip/xc32/v3.01/bin/bin/../../lib/gcc/pic32c/8.3.1/../../../../pic32c/lib/thumb/v7e-m+fp/hard\libc_nano.a(lib_a-memchr.o)
                              c:/program files/microchip/xc32/v3.01/bin/bin/../../lib/gcc/pic32c/8.3.1/../../../../pic32c/lib/thumb/v7e-m+fp/hard\libc_nano.a(lib_a-nano-vfprintf.o) (memchr)
c:/program files/microchip/xc32/v3.01/bin/bin/../../lib/gcc/pic32c/8.3.1/../../../../pic32c/lib/thumb/v7e-m+fp/hard\libc_nano.a(lib_a-mlock.o)
                              c:/program files/microchip/xc32/v3.01/bin/bin/../../lib/gcc/pic32c/8.3.1/../../../../pic32c/lib/thumb/v7e-m+fp/hard\libc_nano.a(lib_a-nano-freer.o) (__malloc_lock)
c:/program files/microchip/xc32/v3.01/bin/bin/../../lib/gcc/pic32c/8.3.1/../../../../pic32c/lib/thumb/v7e-m+fp/hard\libc_nano.a(lib_a-mprec.o)
                              c:/program files/microchip/xc32/v3.01/bin/bin/../../lib/gcc/pic32c/8.3.1/../../../../pic32c/lib/thumb/v7e-m+fp/hard\libc_nano.a(lib_a-dtoa.o) (_Balloc)
c:/program files/microchip/xc32/v3.01/bin/bin/../../lib/gcc/pic32c/8.3.1/../../../../pic32c/lib/thumb/v7e-m+fp/hard\libc_nano.a(lib_a-nano-svfprintf.o)
                              c:/program files/microchip/xc32/v3.01/bin/bin/../../lib/gcc/pic32c/8.3.1/../../../../pic32c/lib/thumb/v7e-m+fp/hard\libc_nano.a(lib_a-snprintf.o) (_svfprintf_r)
c:/program files/microchip/xc32/v3.01/bin/bin/../../lib/gcc/pic32c/8.3.1/../../../../pic32c/lib/thumb/v7e-m+fp/hard\libc_nano.a(lib_a-reent.o)
                              c:/program files/microchip/xc32/v3.01/bin/bin/../../lib/gcc/pic32c/8.3.1/../../../../pic32c/lib/thumb/v7e-m+fp/hard\libc_nano.a(lib_a-sbrkr.o) (errno)
c:/program files/microchip/xc32/v3.01/bin/bin/../../lib/gcc/pic32c/8.3.1/../../../../pic32c/lib/thumb/v7e-m+fp/hard\libc_nano.a(lib_a-signal.o)
                              c:/program files/microchip/xc32/v3.01/bin/bin/../../lib/gcc/pic32c/8.3.1/../../../../pic32c/lib/thumb/v7e-m+fp/hard\libc_nano.a(lib_a-abort.o) (raise)
c:/program files/microchip/xc32/v3.01/bin/bin/../../lib/gcc/pic32c/8.3.1/../../../../pic32c/lib/thumb/v7e-m+fp/hard\libc_nano.a(lib_a-signalr.o)
                              c:/program files/microchip/xc32/v3.01/bin/bin/../../lib/gcc/pic32c/8.3.1/../../../../pic32c/lib/thumb/v7e-m+fp/hard\libc_nano.a(lib_a-signal.o) (_kill_r)
c:/program files/microchip/xc32/v3.01/bin/bin/../../lib/gcc/pic32c/8.3.1/../../../../pic32c/lib/thumb/v7e-m+fp/hard\libc_nano.a(lib_a-stdio.o)
                              c:/program files/microchip/xc32/v3.01/bin/bin/../../lib/gcc/pic32c/8.3.1/../../../../pic32c/lib/thumb/v7e-m+fp/hard\libc_nano.a(lib_a-findfp.o) (__sread)
c:/program files/microchip/xc32/v3.01/bin/bin/../../lib/gcc/pic32c/8.3.1/../../../../pic32c/lib/thumb/v7e-m+fp/hard\libc_nano.a(lib_a-wbuf.o)
                              c:/program files/microchip/xc32/v3.01/bin/bin/../../lib/gcc/pic32c/8.3.1/../../../../pic32c/lib/thumb/v7e-m+fp/hard\libc_nano.a(lib_a-__ssfputs.o) (__swbuf_r)
c:/program files/microchip/xc32/v3.01/bin/bin/../../lib/gcc/pic32c/8.3.1/../../../../pic32c/lib/thumb/v7e-m+fp/hard\libc_nano.a(lib_a-wcrtomb.o)
                              c:/program files/microchip/xc32/v3.01/bin/bin/../../lib/gcc/pic32c/8.3.1/../../../../pic32c/lib/thumb/v7e-m+fp/hard\libc_nano.a(lib_a-fputwc.o) (_wcrtomb_r)
c:/program files/microchip/xc32/v3.01/bin/bin/../../lib/gcc/pic32c/8.3.1/../../../../pic32c/lib/thumb/v7e-m+fp/hard\libc_nano.a(lib_a-wctomb_r.o)
                              c:/program files/microchip/xc32/v3.01/bin/bin/../../lib/gcc/pic32c/8.3.1/../../../../pic32c/lib/thumb/v7e-m+fp/hard\libc_nano.a(lib_a-locale.o) (__ascii_wctomb)
c:/program files/microchip/xc32/v3.01/bin/bin/../../lib/gcc/pic32c/8.3.1/../../../../pic32c/lib/thumb/v7e-m+fp/hard\libc_nano.a(lib_a-writer.o)
                              c:/program files/microchip/xc32/v3.01/bin/bin/../../lib/gcc/pic32c/8.3.1/../../../../pic32c/lib/thumb/v7e-m+fp/hard\libc_nano.a(lib_a-stdio.o) (_write_r)
c:/program files/microchip/xc32/v3.01/bin/bin/../../lib/gcc/pic32c/8.3.1/../../../../pic32c/lib/thumb/v7e-m+fp/hard\libc_nano.a(lib_a-__ssputs.o)
                              c:/program files/microchip/xc32/v3.01/bin/bin/../../lib/gcc/pic32c/8.3.1/../../../../pic32c/lib/thumb/v7e-m+fp/hard\libc_nano.a(lib_a-nano-svfprintf.o) (__ssputs_r)
c:/program files/microchip/xc32/v3.01/bin/bin/../../lib/gcc/pic32c/8.3.1/../../../../pic32c/lib/thumb/v7e-m+fp/hard\libc_nano.a(lib_a-closer.o)
                              c:/program files/microchip/xc32/v3.01/bin/bin/../../lib/gcc/pic32c/8.3.1/../../../../pic32c/lib/thumb/v7e-m+fp/hard\libc_nano.a(lib_a-stdio.o) (_close_r)
c:/program files/microchip/xc32/v3.01/bin/bin/../../lib/gcc/pic32c/8.3.1/../../../../pic32c/lib/thumb/v7e-m+fp/hard\libc_nano.a(lib_a-fflush.o)
                              c:/program files/microchip/xc32/v3.01/bin/bin/../../lib/gcc/pic32c/8.3.1/../../../../pic32c/lib/thumb/v7e-m+fp/hard\libc_nano.a(lib_a-findfp.o) (_fflush_r)
c:/program files/microchip/xc32/v3.01/bin/bin/../../lib/gcc/pic32c/8.3.1/../../../../pic32c/lib/thumb/v7e-m+fp/hard\libc_nano.a(lib_a-fstatr.o)
                              c:/program files/microchip/xc32/v3.01/bin/bin/../../lib/gcc/pic32c/8.3.1/../../../../pic32c/lib/thumb/v7e-m+fp/hard\libc_nano.a(lib_a-makebuf.o) (_fstat_r)
c:/program files/microchip/xc32/v3.01/bin/bin/../../lib/gcc/pic32c/8.3.1/../../../../pic32c/lib/thumb/v7e-m+fp/hard\libc_nano.a(lib_a-isattyr.o)
                              c:/program files/microchip/xc32/v3.01/bin/bin/../../lib/gcc/pic32c/8.3.1/../../../../pic32c/lib/thumb/v7e-m+fp/hard\libc_nano.a(lib_a-makebuf.o) (_isatty_r)
c:/program files/microchip/xc32/v3.01/bin/bin/../../lib/gcc/pic32c/8.3.1/../../../../pic32c/lib/thumb/v7e-m+fp/hard\libc_nano.a(lib_a-lseekr.o)
                              c:/program files/microchip/xc32/v3.01/bin/bin/../../lib/gcc/pic32c/8.3.1/../../../../pic32c/lib/thumb/v7e-m+fp/hard\libc_nano.a(lib_a-stdio.o) (_lseek_r)
c:/program files/microchip/xc32/v3.01/bin/bin/../../lib/gcc/pic32c/8.3.1/../../../../pic32c/lib/thumb/v7e-m+fp/hard\libc_nano.a(lib_a-nano-reallocr.o)
                              c:/program files/microchip/xc32/v3.01/bin/bin/../../lib/gcc/pic32c/8.3.1/../../../../pic32c/lib/thumb/v7e-m+fp/hard\libc_nano.a(lib_a-__ssputs.o) (_realloc_r)
c:/program files/microchip/xc32/v3.01/bin/bin/../../lib/gcc/pic32c/8.3.1/../../../../pic32c/lib/thumb/v7e-m+fp/hard\libc_nano.a(lib_a-readr.o)
                              c:/program files/microchip/xc32/v3.01/bin/bin/../../lib/gcc/pic32c/8.3.1/../../../../pic32c/lib/thumb/v7e-m+fp/hard\libc_nano.a(lib_a-stdio.o) (_read_r)
c:/program files/microchip/xc32/v3.01/bin/bin/../../lib/gcc/pic32c/8.3.1/../../../../pic32c/lib/thumb/v7e-m+fp/hard\libc_nano.a(lib_a-nano-msizer.o)
                              c:/program files/microchip/xc32/v3.01/bin/bin/../../lib/gcc/pic32c/8.3.1/../../../../pic32c/lib/thumb/v7e-m+fp/hard\libc_nano.a(lib_a-nano-reallocr.o) (_malloc_usable_size_r)
c:/program files/microchip/xc32/v3.01/bin/bin/../../lib/gcc/pic32c/8.3.1/../../../../pic32c/lib/thumb/v7e-m+fp/hard\libpic32c.a(_close.o)
                              c:/program files/microchip/xc32/v3.01/bin/bin/../../lib/gcc/pic32c/8.3.1/../../../../pic32c/lib/thumb/v7e-m+fp/hard\libc_nano.a(lib_a-closer.o) (_close)
c:/program files/microchip/xc32/v3.01/bin/bin/../../lib/gcc/pic32c/8.3.1/../../../../pic32c/lib/thumb/v7e-m+fp/hard\libpic32c.a(_fstat.o)
                              c:/program files/microchip/xc32/v3.01/bin/bin/../../lib/gcc/pic32c/8.3.1/../../../../pic32c/lib/thumb/v7e-m+fp/hard\libc_nano.a(lib_a-fstatr.o) (_fstat)
c:/program files/microchip/xc32/v3.01/bin/bin/../../lib/gcc/pic32c/8.3.1/../../../../pic32c/lib/thumb/v7e-m+fp/hard\libpic32c.a(_getpid.o)
                              c:/program files/microchip/xc32/v3.01/bin/bin/../../lib/gcc/pic32c/8.3.1/../../../../pic32c/lib/thumb/v7e-m+fp/hard\libc_nano.a(lib_a-signalr.o) (_getpid)
c:/program files/microchip/xc32/v3.01/bin/bin/../../lib/gcc/pic32c/8.3.1/../../../../pic32c/lib/thumb/v7e-m+fp/hard\libpic32c.a(_isatty.o)
                              c:/program files/microchip/xc32/v3.01/bin/bin/../../lib/gcc/pic32c/8.3.1/../../../../pic32c/lib/thumb/v7e-m+fp/hard\libc_nano.a(lib_a-isattyr.o) (_isatty)
c:/program files/microchip/xc32/v3.01/bin/bin/../../lib/gcc/pic32c/8.3.1/../../../../pic32c/lib/thumb/v7e-m+fp/hard\libpic32c.a(_kill.o)
                              c:/program files/microchip/xc32/v3.01/bin/bin/../../lib/gcc/pic32c/8.3.1/../../../../pic32c/lib/thumb/v7e-m+fp/hard\libc_nano.a(lib_a-signalr.o) (_kill)
c:/program files/microchip/xc32/v3.01/bin/bin/../../lib/gcc/pic32c/8.3.1/../../../../pic32c/lib/thumb/v7e-m+fp/hard\libpic32c.a(_lseek.o)
                              c:/program files/microchip/xc32/v3.01/bin/bin/../../lib/gcc/pic32c/8.3.1/../../../../pic32c/lib/thumb/v7e-m+fp/hard\libc_nano.a(lib_a-lseekr.o) (_lseek)
c:/program files/microchip/xc32/v3.01/bin/bin/../../lib/gcc/pic32c/8.3.1/../../../../pic32c/lib/thumb/v7e-m+fp/hard\libpic32c.a(_read.o)
                              c:/program files/microchip/xc32/v3.01/bin/bin/../../lib/gcc/pic32c/8.3.1/../../../../pic32c/lib/thumb/v7e-m+fp/hard\libc_nano.a(lib_a-readr.o) (_read)
c:/program files/microchip/xc32/v3.01/bin/bin/../../lib/gcc/pic32c/8.3.1/../../../../pic32c/lib/thumb/v7e-m+fp/hard\libpic32c.a(sbrk.o)
                              c:/program files/microchip/xc32/v3.01/bin/bin/../../lib/gcc/pic32c/8.3.1/../../../../pic32c/lib/thumb/v7e-m+fp/hard\libc_nano.a(lib_a-sbrkr.o) (_sbrk)
c:/program files/microchip/xc32/v3.01/bin/bin/../../lib/gcc/pic32c/8.3.1/../../../../pic32c/lib/thumb/v7e-m+fp/hard\libpic32c.a(_write.o)
                              c:/program files/microchip/xc32/v3.01/bin/bin/../../lib/gcc/pic32c/8.3.1/../../../../pic32c/lib/thumb/v7e-m+fp/hard\libc_nano.a(lib_a-writer.o) (_write)
c:/program files/microchip/xc32/v3.01/bin/bin/../../lib/gcc/pic32c/8.3.1/../../../../pic32c/lib/thumb/v7e-m+fp/hard\libpic32c.a(close.o)
                              c:/program files/microchip/xc32/v3.01/bin/bin/../../lib/gcc/pic32c/8.3.1/../../../../pic32c/lib/thumb/v7e-m+fp/hard\libpic32c.a(_close.o) (close)
c:/program files/microchip/xc32/v3.01/bin/bin/../../lib/gcc/pic32c/8.3.1/../../../../pic32c/lib/thumb/v7e-m+fp/hard\libpic32c.a(fstat.o)
                              c:/program files/microchip/xc32/v3.01/bin/bin/../../lib/gcc/pic32c/8.3.1/../../../../pic32c/lib/thumb/v7e-m+fp/hard\libpic32c.a(_fstat.o) (fstat)
c:/program files/microchip/xc32/v3.01/bin/bin/../../lib/gcc/pic32c/8.3.1/../../../../pic32c/lib/thumb/v7e-m+fp/hard\libpic32c.a(getpid.o)
                              c:/program files/microchip/xc32/v3.01/bin/bin/../../lib/gcc/pic32c/8.3.1/../../../../pic32c/lib/thumb/v7e-m+fp/hard\libpic32c.a(_getpid.o) (getpid)
c:/program files/microchip/xc32/v3.01/bin/bin/../../lib/gcc/pic32c/8.3.1/../../../../pic32c/lib/thumb/v7e-m+fp/hard\libpic32c.a(isatty.o)
                              c:/program files/microchip/xc32/v3.01/bin/bin/../../lib/gcc/pic32c/8.3.1/../../../../pic32c/lib/thumb/v7e-m+fp/hard\libpic32c.a(_isatty.o) (isatty)
c:/program files/microchip/xc32/v3.01/bin/bin/../../lib/gcc/pic32c/8.3.1/../../../../pic32c/lib/thumb/v7e-m+fp/hard\libpic32c.a(kill.o)
                              c:/program files/microchip/xc32/v3.01/bin/bin/../../lib/gcc/pic32c/8.3.1/../../../../pic32c/lib/thumb/v7e-m+fp/hard\libpic32c.a(_kill.o) (kill)
c:/program files/microchip/xc32/v3.01/bin/bin/../../lib/gcc/pic32c/8.3.1/../../../../pic32c/lib/thumb/v7e-m+fp/hard\libpic32c.a(lseek.o)
                              c:/program files/microchip/xc32/v3.01/bin/bin/../../lib/gcc/pic32c/8.3.1/../../../../pic32c/lib/thumb/v7e-m+fp/hard\libpic32c.a(_lseek.o) (lseek)
c:/program files/microchip/xc32/v3.01/bin/bin/../../lib/gcc/pic32c/8.3.1/../../../../pic32c/lib/thumb/v7e-m+fp/hard\libpic32c.a(read.o)
                              c:/program files/microchip/xc32/v3.01/bin/bin/../../lib/gcc/pic32c/8.3.1/../../../../pic32c/lib/thumb/v7e-m+fp/hard\libpic32c.a(_read.o) (read)
c:/program files/microchip/xc32/v3.01/bin/bin/../../lib/gcc/pic32c/8.3.1/../../../../pic32c/lib/thumb/v7e-m+fp/hard\libpic32c.a(write.o)
                              c:/program files/microchip/xc32/v3.01/bin/bin/../../lib/gcc/pic32c/8.3.1/../../../../pic32c/lib/thumb/v7e-m+fp/hard\libpic32c.a(_write.o) (write)
c:/program files/microchip/xc32/v3.01/bin/bin/../../lib/gcc/pic32c/8.3.1/thumb/v7e-m+fp/hard\libgcc.a(_arm_unorddf2.o)
                              c:/program files/microchip/xc32/v3.01/bin/bin/../../lib/gcc/pic32c/8.3.1/../../../../pic32c/lib/thumb/v7e-m+fp/hard\libc_nano.a(lib_a-nano-vfprintf_float.o) (__aeabi_dcmpun)
c:/program files/microchip/xc32/v3.01/bin/bin/../../lib/gcc/pic32c/8.3.1/thumb/v7e-m+fp/hard\libgcc.a(_arm_fixdfsi.o)
                              c:/program files/microchip/xc32/v3.01/bin/bin/../../lib/gcc/pic32c/8.3.1/../../../../pic32c/lib/thumb/v7e-m+fp/hard\libc_nano.a(lib_a-dtoa.o) (__aeabi_d2iz)

Allocating common symbols
Common symbol       size              file

errno               0x4               c:/program files/microchip/xc32/v3.01/bin/bin/../../lib/gcc/pic32c/8.3.1/../../../../pic32c/lib/thumb/v7e-m+fp/hard\libc_nano.a(lib_a-reent.o)

Microchip PIC32 Memory-Usage Report

ROM Program-Memory Usage
section                    address  length [bytes]      (dec)  Description
-------                 ----------  -------------------------  -----------
.vectors                         0          0x264         612   
.text                        0x264           0x20          32  App's exec code 
.ARM.exidx                   0x284            0x8           8   
.rodata                      0x28c         0x16f4        5876  Read-only const 
.text.TCPIP_TCP_Task        0x1980          0xe40        3648   
.text.TCPIP_IPERF_Task      0x27c0          0xd34        3380   
.rodata.sysfont_glyphs      0x34f4          0xbc0        3008   
.dinit                      0x40b4          0xb90        2960   
.text.DRV_EXTPHY_MDIXCo     0x4c44            0x4           4   
.text._dtoa_r               0x4c48          0xb6c        2924   
.rodata                     0x57b4          0xaa4        2724  Read-only const 
.rodata.macPIC32CHwRegD     0x6258          0x708        1800   
.text.Transform             0x6960          0x6d0        1744   
.text.TCPIP_STACK_Task      0x7030          0x630        1584   
.text.CommandIperfStart     0x7660          0x5c4        1476   
.text._TcpSend              0x7c24          0x5b0        1456   
.text._printf_float         0x81d4          0x52c        1324   
.text._Command_DNS_Serv     0x8700          0x518        1304   
.text.TCPIP_DHCP_Task       0x8c18          0x4c0        1216   
.rodata                     0x90d8          0x490        1168  Read-only const 
.text._TCPIP_DoInitiali     0x9568          0x424        1060   
.text.SYS_CMD_Tasks         0x998c          0x424        1060   
.text                       0x9db0          0x424        1060  App's exec code 
.text._DNS_ProcessPacke     0xa1d4          0x3f8        1016   
.text.TCPIP_COMMAND_Tas     0xa5cc          0x3d0         976   
.text.GenericTxStart        0xa99c          0x3cc         972   
.text.DRV_PIC32CGMAC_Li     0xad68          0x380         896   
.text                       0xb0e8          0x378         888  App's exec code 
.text.TCPIP_Helper_Stri     0xb460          0x364         868   
.text.Transform_Sha256      0xb7c4          0x30c         780   
.text.DRV_GMAC_Initiali     0xbad0          0x308         776   
.text.TCPIP_TCP_FifoSiz     0xbdd8          0x2f0         752   
.text.Hash_DRBG_Generat     0xc0c8          0x2d0         720   
.text                       0xc398          0x2d0         720  App's exec code 
.text._TCP_Open             0xc668          0x2c0         704   
.text.TCPIP_ARP_Task        0xc928          0x2c0         704   
.text._DNS_Send_Query       0xcbe8          0x290         656   
.text._CommandDhcpOptio     0xce78          0x270         624   
.rodata                     0xd0e8          0x26c         620  Read-only const 
.text.ReportBW_Jitter_L     0xd354          0x25c         604   
.text._CommandPing          0xd5b0          0x254         596   
.text.TCPIP_UDP_Task        0xd804          0x24c         588   
.text.TCPIP_STACK_Bring     0xda50          0x23c         572   
.text.TCPIP_IPV4_Task       0xdc8c          0x234         564   
.text._printf_i             0xdec0          0x228         552   
.text.TCPIP_UDP_Flush       0xe0e8          0x220         544   
.text.TCPIP_IPV4_PktTx      0xe308          0x210         528   
.text._Command_NetInfo      0xe518          0x20c         524   
.text.TCPIP_DNS_ClientI     0xe724          0x20c         524   
.text.TCPIP_UDP_Options     0xe930          0x204         516   
.text._vfprintf_r           0xeb34          0x1f8         504   
.text.Lan867x_Miim_Task     0xed2c          0x1e8         488   
.text.TCPIP_ICMP_Task       0xef14          0x1e4         484   
.text.TCPIP_ARP_Initial     0xf0f8          0x1e4         484   
.text.xTaskCreate           0xf2dc          0x1e4         484   
.text._DHCPReceive          0xf4c0          0x1dc         476   
.text.GenericTxEnd          0xf69c          0x1cc         460   
.text._svfprintf_r          0xf868          0x1cc         460   
.text.DRV_EXTPHY_MIICon     0xfa34          0x1c4         452   
.text._DHCPSend             0xfbf8          0x1bc         444   
.text.DRV_GMAC_PacketRx     0xfdb4          0x1b0         432   
.text.DRV_PIC32CGMAC_Li     0xff64          0x1b0         432   
.text.SERCOM1_USART_Int    0x10114          0x1b0         432   
.text.APP_Tasks            0x102c4          0x1ac         428   
.text._DRV_ETHPHY_Defau    0x10470          0x1a6         422   
.text._DRV_ETHPHY_Clien    0x10616            0x2           2   
.text.CommandIperfSize     0x10618          0x190         400   
.text.TCPIP_DHCP_Initia    0x107a8          0x190         400   
.text._Command_MacInfo     0x10938          0x188         392   
.text.wc_Sha256Final       0x10ac0          0x188         392   
.text._InitRng             0x10c48          0x184         388   
.text._TcpCloseSocket      0x10dcc          0x172         370   
.text.DRV_GMAC_Reinitia    0x10f3e            0x2           2   
.text.TCPIP_TCP_ArrayPu    0x10f40          0x170         368   
.text.SERCOM0_SPI_Inter    0x110b0          0x170         368   
.text._DHCPOptionHostNa    0x11220          0x16c         364   
.text.DRV_PIC32CGMAC_Li    0x1138c          0x164         356   
.text._Command_NetworkO    0x114f0          0x164         356   
.text.CommandHelp          0x11654          0x164         356   
.text._UDPOpen             0x117b8          0x15c         348   
.text.TCPIP_DNS_EntryQu    0x11914          0x154         340   
.text.xQueueSemaphoreTa    0x11a68          0x154         340   
.text.DRV_MIIM_Tasks       0x11bbc          0x150         336   
.text.TCPIP_TCP_Initial    0x11d0c          0x150         336   
.text.wc_Sha256Update      0x11e5c          0x144         324   
.text.Hash_df              0x11fa0          0x13e         318   
.text.DRV_MIIM_Reinitia    0x120de            0x2           2   
.text._MACDeinit           0x120e0          0x13c         316   
.text.TCPIP_UDP_Deiniti    0x1221c          0x13c         316   
.text._LoadNetworkConfi    0x12358          0x138         312   
.text.CommandIperfNetIf    0x12490          0x130         304   
.text._DNS_Resolve         0x125c0          0x130         304   
.text.SERCOM0_SPI_Write    0x126f0          0x130         304   
.text.__multiply           0x12820          0x130         304   
.text.quorem               0x12950          0x12e         302   
.text._TCPIP_HEAP_Buffe    0x12a7e            0x2           2   
.text.TCPIP_IPV4_Initia    0x12a80          0x128         296   
.text.TCPIP_UDP_Options    0x12ba8          0x128         296   
.rodata                    0x12cd0          0x128         296  Read-only const 
.text.TCPIP_UDP_Bind       0x12df8          0x124         292   
.text.xQueueGenericSend    0x12f1c          0x124         292   
.text.DRV_GMAC_Tasks       0x13040          0x120         288   
.text.DRV_PIC32CGMAC_Li    0x13160          0x120         288   
.text._Command_StackOnO    0x13280          0x120         288   
.text.TCPIP_IPV4_Packet    0x133a0          0x120         288   
.text.TCPIP_Helper_Stri    0x134c0          0x120         288   
.text.DRV_GMAC_EventMas    0x135e0          0x11c         284   
.text._UDPv4TxAckFnc       0x136fc          0x11c         284   
.text.wc_RNG_GenerateBl    0x13818          0x11c         284   
.text.xTaskIncrementTic    0x13934          0x114         276   
.text.CommandPingHandle    0x13a48          0x110         272   
.text                      0x13b58          0x110         272  App's exec code 
.text._Tcpv4TxAckFnc       0x13c68          0x10c         268   
.text.__sflush_r           0x13d74          0x10c         268   
.text._TCPIP_HEAP_Free     0x13e80          0x10a         266   
.text.TCPIP_TCP_Options    0x13f8a          0x106         262   
.text.TCPIP_UDP_Initial    0x14090          0x104         260   
.rodata._ctype_            0x14194          0x101         257   
.rodata.K                  0x14298          0x100         256   
.text.wc_Md5Update         0x14398           0xfe         254   
.text.EVSYS_Initialize     0x14496            0x2           2   
.text.TCPIP_ICMP_EchoRe    0x14498           0xfc         252   
.text._Command_AddressS    0x14594           0xfc         252   
.text._Command_HeapInfo    0x14690           0xfc         252   
.text.CLOCK_Initialize     0x1478c           0xf8         248   
.text.TCPIP_TCP_Deiniti    0x14884           0xf0         240   
.text.TCPIP_ARP_EntryRe    0x14974           0xf0         240   
.text._DNS_IsNameResolv    0x14a64           0xf0         240   
.text.TCPIP_DNS_ClientT    0x14b54           0xf0         240   
.text._ARPProbeAddress     0x14c44           0xec         236   
.text._DNS_GetAddresses    0x14d30           0xec         236   
.text._strtol_l.isra.0     0x14e1c           0xec         236   
.text._printf_common       0x14f08           0xea         234   
.text._mon_putc            0x14ff2            0x2           2   
.text.DRV_PIC32CGMAC_Li    0x14ff4           0xe8         232   
.text._Command_IPAddres    0x150dc           0xe8         232   
.text.xTaskResumeAll       0x151c4           0xe4         228   
.text.TCPIP_UDP_ArrayGe    0x152a8           0xde         222   
.text.Console_UART_Task    0x15386            0x2           2   
.text.DRV_ETHPHY_Setup     0x15388           0xdc         220   
.text.__swsetup_r          0x15464           0xdc         220   
.text.SYS_TIME_PLIBCall    0x15540           0xd4         212   
.text.ssd1306_init         0x15614           0xd4         212   
.text._DRV_ETHPHY_NegRe    0x156e8           0xd2         210   
.text.DRV_ETHPHY_Detect    0x157ba           0xd0         208   
.text.Dummy_Handler        0x1588a            0x2           2   
.text.DRV_GMAC_PacketTx    0x1588c           0xcc         204   
.text.TCPIP_TCP_ArrayGe    0x15958           0xcc         204   
.text.TCPIP_HEAP_Create    0x15a24           0xcc         204   
.text.DRV_PIC32CGMAC_Li    0x15af0           0xc8         200   
.text._Command_DNSAddre    0x15bb8           0xc8         200   
.text.gfx_mono_generic_    0x15c80           0xc8         200   
.text.__mdiff              0x15d48           0xc8         200   
.rodata.__mprec_tens       0x15e10           0xc8         200   
.text._DRV_MIIM_StartOp    0x15ed8           0xc4         196   
.text.TCPIP_UDP_OpenSer    0x15f9c           0xc4         196   
.text.TCPIP_TCP_Bind       0x16060           0xc0         192   
.text._Command_DefaultI    0x16120           0xc0         192   
.rodata.tcpipCmdTbl        0x161e0           0xc0         192   
.text.TCPIP_Helper_Stri    0x162a0           0xc0         192   
.text._DRV_MIIM_ClientD    0x16360           0xbc         188   
.text.TCPIP_IPV4_DeInit    0x1641c           0xbc         188   
.text.TCPIP_STACK_KillS    0x164d8           0xbc         188   
.text.PORT_Initialize      0x16594           0xbc         188   
.text.__swbuf_r            0x16650           0xbc         188   
.text._GetMaxSegSizeOpt    0x1670c           0xba         186   
.text.NonMaskableInt_Ha    0x167c6            0x2           2   
.text.CommandIperfStop     0x167c8           0xb8         184   
.text.TCPIP_IPERF_Initi    0x16880           0xb8         184   
.text.TCPIP_IPV4_ArpHan    0x16938           0xb8         184   
.text.wc_Md5Final          0x169f0           0xb8         184   
.text.gfx_mono_draw_cha    0x16aa8           0xb8         184   
.text.__ssputs_r           0x16b60           0xb6         182   
.text.HardFault_Handler    0x16c16            0x2           2   
.text._ARPSendIfPkt        0x16c18           0xb4         180   
.text.SYS_TIME_HwTimerC    0x16ccc           0xb4         180   
.text._malloc_r            0x16d80           0xb4         180   
.text.TCPIP_STACK_NetUp    0x16e34           0xb0         176   
.text.SYS_TIME_TimerObj    0x16ee4           0xb0         176   
.text.SYS_TIME_Initiali    0x16f94           0xb0         176   
.text.TCPIP_Commands_In    0x17044           0xac         172   
.text._TcpDisconnect       0x170f0           0xaa         170   
.text._TCPIP_HEAP_Mallo    0x1719a           0xaa         170   
.text.Hash_DRBG_Reseed     0x17244           0xaa         170   
.text.DebugMonitor_Hand    0x172ee            0x2           2   
.text._DRV_ETHPHY_Setup    0x172f0           0xa8         168   
.text._TCP_SktSetSequen    0x17398           0xa8         168   
.text.TCPIP_TCP_ServerO    0x17440           0xa8         168   
.text.SERCOM1_USART_Wri    0x174e8           0xa8         168   
.text.vTaskSwitchContex    0x17590           0xa8         168   
.text.xTaskPriorityInhe    0x17638           0xa8         168   
.text.__lshift             0x176e0           0xa6         166   
.text.MemoryManagement_    0x17786            0x2           2   
.text._DHCPProcessRecei    0x17788           0xa4         164   
.text._DRV_ETHPHY_Setup    0x1782c           0xa2         162   
.text.TCPIP_Helper_IPv6    0x178ce           0xa2         162   
.text.wc_RNG_HealthTest    0x17970           0xa2         162   
.text.BusFault_Handler     0x17a12            0x2           2   
.text._ARPDeleteResourc    0x17a14           0xa0         160   
.text._UDPv4AllocateSkt    0x17ab4           0xa0         160   
.text.TCPIP_UDP_Disconn    0x17b54           0xa0         160   
.rodata._DRV_PHY_LinkSt    0x17bf4            0xc          12   
.text                      0x17c00           0xa0         160  App's exec code 
.text._DRV_PHY_SMITrans    0x17ca0           0x9e         158   
.text.__d2b                0x17d3e           0x9e         158   
.text.DRV_MIIM_Setup       0x17ddc           0x9c         156   
.text._Command_MACAddre    0x17e78           0x9c         156   
.text._free_r              0x17f14           0x9c         156   
.text.__pow5mult           0x17fb0           0x9c         156   
.text.Lan867x_Write_Bit    0x1804c           0x9a         154   
.text.UsageFault_Handle    0x180e6            0x2           2   
.text._DRV_ETHPHY_Setup    0x180e8           0x98         152   
.text.DRV_GMAC_Statisti    0x18180           0x98         152   
.text._DHCPEnable          0x18218           0x98         152   
.text.TCPIP_DHCP_Reques    0x182b0           0x98         152   
.text.TCPIP_DHCP_InfoGe    0x18348           0x98         152   
.text.DisplayNodeMsg       0x183e0           0x98         152   
.text.prvAddCurrentTask    0x18478           0x98         152   
.text.DRV_PIC32CGMAC_Li    0x18510           0x94         148   
.text.TCPIP_ARP_IsResol    0x185a4           0x94         148   
.text.ascii_to_u32s        0x18638           0x94         148   
.text.DRV_MIIM_Operatio    0x186cc           0x90         144   
.text._DHCPCleanup         0x1875c           0x90         144   
.text._TCPIPStackModule    0x187ec           0x90         144   
.text.NVIC_Initialize      0x1887c           0x90         144   
.text.SYS_TIME_AddToLis    0x1890c           0x90         144   
.text.Reset_Handler        0x1899c           0x90         144   
.text._DHCPClientClose     0x18a2c           0x8c         140   
.text.TCPIP_STACK_Initi    0x18ab8           0x8c         140   
.text._UDPsetPacketInfo    0x18b44           0x8c         140   
.text.__smakebuf_r         0x18bd0           0x8c         140   
.text._Command_GatewayA    0x18c5c           0x88         136   
.text._DHCPPacketFilter    0x18ce4           0x88         136   
.text._DHCPSetLeaseTime    0x18d6c           0x88         136   
.text._OAHashFindBkt       0x18df4           0x88         136   
.text.SYS_CMDIO_ADD        0x18e7c           0x88         136   
.text.__pic32c_data_ini    0x18f04           0x88         136   
.text.TCPIP_IPV4_MacPac    0x18f8c           0x84         132   
.text.TCPIP_STACK_NetAd    0x19010           0x84         132   
.text._TCPIP_PKT_Packet    0x19094           0x84         132   
.text.DRV_PIC32CGMAC_Li    0x19118           0x82         130   
.text._DNS_ValidateIf      0x1919a           0x82         130   
.text.TCPIP_Helper_Pack    0x1921c           0x82         130   
.text.__fputwc             0x1929e           0x82         130   
.text.DRV_ETHPHY_Vendor    0x19320           0x80         128   
.text.DRV_ETHPHY_Vendor    0x193a0           0x80         128   
.text.SERCOM1_USART_Ini    0x19420           0x80         128   
.text.SendCommandPrint     0x194a0           0x80         128   
.text.xTaskPriorityDisi    0x19520           0x80         128   
.text.vTaskPriorityDisi    0x195a0           0x80         128   
.rodata.outputA_data       0x19620           0x80         128   
.rodata.outputB_data       0x196a0           0x80         128   
.text.prvUnlockQueue       0x19720           0x7e         126   
.text.__multadd            0x1979e           0x7e         126   
.text.DRV_ETHPHY_Vendor    0x1981c           0x7c         124   
.text.DRV_PIC32CGMAC_Li    0x19898           0x7c         124   
.text.SYS_Tasks            0x19914           0x7c         124   
.text.SYS_Initialize       0x19990           0x7c         124   
.text.TCPIP_TCP_SocketI    0x19a0c           0x7a         122   
.text._DRV_ETHPHY_Setup    0x19a86           0x78         120   
.text.Dummy_App_Func       0x19afe            0x2           2   
.text.DRV_PIC32CGMAC_Li    0x19b00           0x78         120   
.text.DRV_MIIM_Open        0x19b78           0x78         120   
.text.DRV_MIIM_Initiali    0x19bf0           0x78         120   
.rodata                    0x19c68           0x78         120  Read-only const 
.text.TCPIP_Helper_Pack    0x19ce0           0x78         120   
.text.SERCOM1_USART_Rea    0x19d58           0x78         120   
.text.__sfp                0x19dd0           0x78         120   
.text._DRV_GMAC_LinkSta    0x19e48           0x76         118   
.text.prvCopyDataToQueu    0x19ebe           0x76         118   
.text.DRV_GMAC_Process     0x19f34           0x74         116   
.text._ARPUpdateEntry      0x19fa8           0x74         116   
.text.TCPIP_ARP_EntryRe    0x1a01c           0x74         116   
.text.GenericTxDone        0x1a090           0x74         116   
.text.TCPIP_DHCP_Connec    0x1a104           0x74         116   
.text.xTaskRemoveFromEv    0x1a178           0x74         116   
.text.wc_GenerateSeed      0x1a1ec           0x74         116   
.text.gfx_mono_draw_str    0x1a260           0x74         116   
.text._MacTxPendingPack    0x1a2d4           0x72         114   
.text._TCPIP_StackSyncF    0x1a346           0x72         114   
.text.TCPIP_PKT_DataSeg    0x1a3b8           0x72         114   
.text.Hash_DRBG_Instant    0x1a42a           0x72         114   
.text.DRV_GMAC_EventAck    0x1a49c           0x70         112   
.text.DRV_GMAC_Tasks_IS    0x1a50c           0x70         112   
.text.TCPIP_IPV4_Cleanu    0x1a57c           0x70         112   
.text.TCPIP_Helper_Calc    0x1a5ec           0x70         112   
.text.xQueueGenericRese    0x1a65c           0x70         112   
.text.prvIdleTask          0x1a6cc           0x70         112   
.text.DRV_PIC32CGMAC_Li    0x1a73c           0x6c         108   
.text._AllocateRxPacket    0x1a7a8           0x6c         108   
.text.TCPIP_ICMP_Initia    0x1a814           0x6c         108   
.text._TcpCleanup          0x1a880           0x6c         108   
.text._Command_BIOSName    0x1a8ec           0x6c         108   
.text.TCPIP_DNS_Disable    0x1a958           0x6c         108   
.rodata.TCPIP_STACK_MOD    0x1a9c4           0x6c         108   
.text.SYS_CMD_ADDGRP       0x1aa30           0x6c         108   
.text.SYS_CONSOLE_Print    0x1aa9c           0x6c         108   
.text.pvPortMalloc         0x1ab08           0x6c         108   
.text.snprintf             0x1ab74           0x6c         108   
.text.wc_CryptoCb_Sha25    0x1abe0           0x6a         106   
.text._exit                0x1ac4a            0x2           2   
.text.DRV_ETHPHY_Open      0x1ac4c           0x68         104   
.text._TcpSwapHeader       0x1acb4           0x68         104   
.text._DNS_AddSelection    0x1ad1c           0x68         104   
.text.TCPIP_OAHASH_Entr    0x1ad84           0x68         104   
.text._TCPIPStackInsert    0x1adec           0x68         104   
.text.SYS_CONSOLE_Initi    0x1ae54           0x68         104   
.rodata                    0x1aebc           0x68         104  Read-only const 
.text.wc_RNG_TestSeed      0x1af24           0x68         104   
.text.rand                 0x1af8c           0x68         104   
.text._Balloc              0x1aff4           0x68         104   
.text._DRV_ETHPHY_NegRe    0x1b05c           0x64         100   
.text._DRV_ETHPHY_Reset    0x1b0c0           0x64         100   
.text.DRV_GMAC_Register    0x1b124           0x64         100   
.text._MacRxPacketAck      0x1b188           0x64         100   
.text.TCPIP_OAHASH_Entr    0x1b1ec           0x64         100   
.text.TCPIP_STACK_Bring    0x1b250           0x64         100   
.text.TCPIP_UDP_SocketI    0x1b2b4           0x64         100   
.text.DRV_EXTPHY_SMIClo    0x1b318            0x8           8   
.text.xPortPendSVHandle    0x1b320           0x64         100   
.text.vTaskStartSchedul    0x1b384           0x64         100   
.text.wc_InitSha256_ex     0x1b3e8           0x64         100   
.text.TCPIP_ARP_EntryGe    0x1b44c           0x62          98   
.text.vPortFree            0x1b4ae            0x2           2   
.text._PingStop            0x1b4b0           0x60          96   
.text.Ipv4FilterSetActi    0x1b510           0x60          96   
.text._DHCPOptionProces    0x1b570           0x60          96   
.text.TCPIP_DHCP_Disabl    0x1b5d0           0x60          96   
.text.TCPIP_DNS_ClientD    0x1b630           0x60          96   
.text.TCPIP_DNS_GetIPAd    0x1b690           0x60          96   
.text._TCPIP_SelectDefa    0x1b6f0           0x60          96   
.text.gfx_mono_ssd1306_    0x1b750           0x60          96   
.text.__sinit              0x1b7b0           0x60          96   
.text.__lo0bits            0x1b810           0x60          96   
.rodata.DRV_ETHPHY_OBJE    0x1b870           0x5c          92   
.text._DRV_GMAC_LinkSta    0x1b8cc           0x5c          92   
.text._TcpClientSocketC    0x1b928           0x5c          92   
.text.TCPIP_ARP_Probe      0x1b984           0x5c          92   
.text.TCPIP_DHCP_Enable    0x1b9e0           0x5c          92   
.text._TCPIPStackIpAddF    0x1ba3c           0x5c          92   
.text.SYS_TIME_RemoveFr    0x1ba98           0x5c          92   
.text.xTaskCheckForTime    0x1baf4           0x5c          92   
.text.wc_CryptoCb_Rando    0x1bb50           0x5c          92   
.text._vsnprintf_r         0x1bbac           0x5c          92   
.text.DRV_PIC32CGMAC_Li    0x1bc08           0x5a          90   
.text.TCPIP_UDP_BcastIP    0x1bc62           0x5a          90   
.text.DRV_ETHPHY_Initia    0x1bcbc           0x58          88   
.text.DRV_GMAC_RxFilter    0x1bd14           0x58          88   
.rodata.DRV_GMAC_Object    0x1bd6c           0x58          88   
.text._DNS_Enable          0x1bdc4           0x58          88   
.text._TCPIPStackModule    0x1be1c           0x58          88   
.text.OSAL_SEM_Create      0x1be74           0x58          88   
.text.SYS_TIME_TimerSta    0x1becc           0x58          88   
.text.DRV_MIIM_Operatio    0x1bf24           0x56          86   
.text._DRV_PHY_SMITrans    0x1bf7a           0x54          84   
.text._DRV_ETHPHY_NegCo    0x1bfce           0x54          84   
.text.wc_Sha256Free        0x1c022            0x2           2   
.text._ARPNotifyClients    0x1c024           0x54          84   
.text.IperfSetState        0x1c078           0x54          84   
.text.TCPIP_IPERF_Deini    0x1c0cc           0x54          84   
.text.IPv4RegisterFilte    0x1c120           0x54          84   
.text._DHCPOptionWriteS    0x1c174           0x54          84   
.text._DNS_DeleteHash      0x1c1c8           0x54          84   
.text.TCPIP_DNS_RemoveA    0x1c21c           0x54          84   
.text.TCPIP_STACK_Strin    0x1c270           0x54          84   
.text._TCPIPStackAnyNet    0x1c2c4           0x54          84   
.text.SYS_TIME_Callback    0x1c318           0x54          84   
.text.strtok               0x1c36c           0x54          84   
.text._fflush_r            0x1c3c0           0x54          84   
.text._TcpAbort            0x1c414           0x52          82   
.text.TCPIP_TCP_RemoteB    0x1c466           0x52          82   
.text.__strtok_r           0x1c4b8           0x52          82   
.text.__malloc_lock        0x1c50a            0x2           2   
.text.DRV_ETHPHY_LinkSt    0x1c50c           0x50          80   
.text.DRV_GMAC_Paramete    0x1c55c           0x50          80   
.rodata                    0x1c5ac           0x50          80  Read-only const 
.text._DHCPOptionWriteI    0x1c5fc           0x50          80   
.text.TCPIP_DHCP_Renew     0x1c64c           0x50          80   
.text.TCPIP_DNS_OAHASH_    0x1c69c           0x50          80   
.text.TCPIP_Helper_Form    0x1c6ec           0x50          80   
.text.SYS_CONSOLE_Statu    0x1c73c           0x50          80   
.text._raise_r             0x1c78c           0x50          80   
.text                      0x1c7dc           0x50          80  App's exec code 
.text._DRV_ETHPHY_Setup    0x1c82c           0x4e          78   
.text._DRV_MIIM_GetClie    0x1c87a           0x4e          78   
.text.TCPIP_IPV4_Select    0x1c8c8           0x4e          78   
.text.TCPIP_UDP_PutIsRe    0x1c916           0x4e          78   
.text._DRV_ETHPHY_LinkS    0x1c964           0x4c          76   
.text._TcpSocketKill       0x1c9b0           0x4c          76   
.text.ResetIperfCounter    0x1c9fc           0x4c          76   
.text._DHCPSetRunFail      0x1ca48           0x4c          76   
.text.TCPIP_Helper_IPAd    0x1ca94           0x4c          76   
.text._TCPIP_MacEventCB    0x1cae0           0x4c          76   
.text._UDPClose            0x1cb2c           0x4c          76   
.text.gfx_mono_ssd1306_    0x1cb78           0x4c          76   
.text._realloc_r           0x1cbc4           0x4c          76   
.text.TCPIP_IPV4_Select    0x1cc10           0x4a          74   
.text.TCPIP_UDP_ArrayPu    0x1cc5a           0x4a          74   
.text.TCPIP_UDP_Destina    0x1cca4           0x4a          74   
.text.__ssfputs_r          0x1ccee           0x4a          74   
.text.DRV_ETHPHY_Negoti    0x1cd38           0x48          72   
.text._DRV_ETHPHY_NegCo    0x1cd80           0x48          72   
.text.DRV_GMAC_LinkChec    0x1cdc8           0x48          72   
.text._TCPSendWinIncUpd    0x1ce10           0x48          72   
.text.TCPIP_TCP_Destina    0x1ce58           0x48          72   
.text.TCPIP_ARP_Deiniti    0x1cea0           0x48          72   
.rodata._DHCPOptProcTbl    0x1cee8           0x48          72   
.text.TCPIP_STACK_MACId    0x1cf30           0x48          72   
.text.TCPIP_STACK_Match    0x1cf78           0x48          72   
.text._TCPIPStackSignal    0x1cfc0           0x48          72   
.rodata.keySeqTbl          0x1d008           0x48          72   
.rodata.TCPIP_STACK_MOD    0x1d050           0x48          72   
.text.xPortStartSchedul    0x1d098           0x48          72   
.text.wc_CryptoCb_FindD    0x1d0e0           0x48          72   
.text.__libc_init_array    0x1d128           0x48          72   
.text.srand                0x1d170           0x48          72   
.text.std                  0x1d1b8           0x48          72   
.text.__swhatbuf_r         0x1d200           0x48          72   
.text.Lan867x_Write_Reg    0x1d248           0x46          70   
.text._DRV_GMAC_LinkSta    0x1d28e           0x46          70   
.text.TCPIP_TCP_FifoTxF    0x1d2d4           0x46          70   
.text.TCPIP_ARP_Resolve    0x1d31a           0x46          70   
.text._TCPIP_HEAP_Delet    0x1d360           0x46          70   
.text.TCPIP_Helper_Sing    0x1d3a6           0x46          70   
.text.TCPIP_Notificatio    0x1d3ec           0x46          70   
.text.TCPIP_UDP_SignalH    0x1d432           0x46          70   
.text.DRV_GMAC_ConfigGe    0x1d478           0x44          68   
.text._MacTxDiscardQueu    0x1d4bc           0x44          68   
.text.Helper_SingleList    0x1d500           0x44          68   
.text.TCPIP_TCP_SignalH    0x1d544           0x44          68   
.text.TCPIP_Helper_MACA    0x1d588           0x44          68   
.text.TCPIP_STACK_NetBy    0x1d5cc           0x44          68   
.text.TCPIP_STACK_Addre    0x1d610           0x44          68   
.text._TCPIPStackModule    0x1d654           0x44          68   
.rodata                    0x1d698           0x44          68  Read-only const 
.text.SYS_INT_SourceDis    0x1d6dc           0x44          68   
.rodata                    0x1d720           0x44          68  Read-only const 
.text.gfx_mono_ssd1306_    0x1d764           0x44          68   
.text.sprintf              0x1d7a8           0x44          68   
.text._DRV_GMAC_LinkSta    0x1d7ec           0x42          66   
.text._TcpSocketSetSour    0x1d82e           0x42          66   
.text._UDPSetNewRxPacke    0x1d870           0x42          66   
.text.TCPIP_UDP_SourceI    0x1d8b2           0x42          66   
.text                      0x1d8f4           0x40          64  App's exec code 
.text.DRV_ETHPHY_Reset     0x1d934           0x40          64   
.text.DRV_ETHPHY_Negoti    0x1d974           0x40          64   
.text.DRV_ETHPHY_Restar    0x1d9b4           0x40          64   
.text._DRV_ETHPHY_Reset    0x1d9f4           0x40          64   
.rodata.DRV_MIIM_OBJECT    0x1da34           0x40          64   
.text._TCP_PortIsAvaila    0x1da74           0x40          64   
.text._DHCPSetBoundStat    0x1dab4           0x40          64   
.text.TCPIP_DHCP_Deinit    0x1daf4           0x40          64   
.text.TCPIP_DNS_RemoveE    0x1db34           0x40          64   
.rodata                    0x1db74           0x40          64  Read-only const 
.text.TCPIP_STACK_NetHa    0x1dbb4           0x40          64   
.text._TCPIP_PKT_Packet    0x1dbf4           0x40          64   
.text._UDPIsAvailablePo    0x1dc34           0x40          64   
.text.TCPIP_UDP_SocketN    0x1dc74           0x40          64   
.text.TC0_TimerInitiali    0x1dcb4           0x40          64   
.text.SYS_TIME_TimerAdd    0x1dcf4           0x40          64   
.rodata                    0x1dd34           0x40          64  Read-only const 
.text.ssd1306_write_com    0x1dd74           0x40          64   
.text.ssd1306_write_dat    0x1ddb4           0x40          64   
.text                      0x1ddf4           0x40          64  App's exec code 
.text.__hi0bits            0x1de34           0x40          64   
.text.write                0x1de74           0x40          64   
.text._TCPSetHalfFlushF    0x1deb4           0x3e          62   
.text._DHCPOptionProces    0x1def2           0x3e          62   
.text.TCPIP_STACK_Addre    0x1df30           0x3e          62   
.text.TCPIP_UDP_TxOffse    0x1df6e           0x3e          62   
.rodata                    0x1dfac           0x3d          61  Read-only const 
.text._DRV_ETHPHY_NegCo    0x1dfea           0x3c          60   
.text.Lan867x_Read_Regi    0x1e026           0x3c          60   
.text.DRV_MIIM_Register    0x1e062           0x3c          60   
.text.hexatob              0x1e09e           0x3c          60   
.text.TCPIP_TCP_Close      0x1e0da           0x3c          60   
.text._DHCPOptionProces    0x1e116           0x3c          60   
.text.__malloc_unlock      0x1e152            0x2           2   
.text._DHCPNotifyClient    0x1e154           0x3c          60   
.text.TCPIP_DHCP_IsEnab    0x1e190           0x3c          60   
.text._TCPIPStackModule    0x1e1cc           0x3c          60   
.text._TCPIP_PKT_Packet    0x1e208           0x3c          60   
.text.TCPIP_UDP_OpenCli    0x1e244           0x3c          60   
.text.Console_UART_Read    0x1e280           0x3c          60   
.text.Console_UART_Writ    0x1e2bc           0x3c          60   
.text.SYS_TIME_GetTimer    0x1e2f8           0x3c          60   
.text.SYS_TIME_Resource    0x1e334           0x3c          60   
.text.SYS_TIME_Counter6    0x1e370           0x3c          60   
.text.SYS_TIME_TimerDes    0x1e3ac           0x3c          60   
.text.wc_InitMd5_ex        0x1e3e8           0x3c          60   
.text.__assert_func        0x1e424           0x3c          60   
.text._fwalk_reent         0x1e460           0x3c          60   
.text._DRV_ETHPHY_Setup    0x1e49c           0x3a          58   
.text._DRV_ETHPHY_NegRe    0x1e4d6           0x3a          58   
.text._DRV_MIIM_Release    0x1e510           0x3a          58   
.text.DRV_MIIM_Deinitia    0x1e54a           0x3a          58   
.text._TCPIP_HEAP_MaxSi    0x1e584           0x3a          58   
.text._DHCPOptionProces    0x1e5be           0x3a          58   
.text.TCPIP_STACK_NetAl    0x1e5f8           0x3a          58   
.text.DRV_ETHPHY_HWConf    0x1e634           0x38          56   
.text._DRV_ETHPHY_Setup    0x1e66c           0x38          56   
.text.DRV_GMAC_Open        0x1e6a4           0x38          56   
.text.DRV_PIC32CGMAC_Li    0x1e6dc           0x38          56   
.text._TCP_EphemeralPor    0x1e714           0x38          56   
.text.TCPIP_Commands_De    0x1e74c           0x38          56   
.text.TCPIP_DNS_ClientI    0x1e784           0x38          56   
.text.TCPIP_PKT_PacketM    0x1e7bc           0x38          56   
.text._UDPAllocateEphem    0x1e7f4           0x38          56   
.text.SYS_CMD_Initializ    0x1e82c           0x38          56   
.text.SYS_TIME_Resource    0x1e864           0x38          56   
.rodata.TCPIP_HOSTS_CON    0x1e89c           0x38          56   
.text.SERCOM0_SPI_Initi    0x1e8d4           0x38          56   
.text.__swrite             0x1e90c           0x38          56   
.text._DRV_ETHPHY_NegCo    0x1e944           0x36          54   
.text._TCPSetSourceAddr    0x1e97a           0x36          54   
.text._DNS_NetIsValid      0x1e9b0           0x36          54   
.text._TCPIPStackSetCon    0x1e9e6           0x36          54   
.text._DRV_ETHPHY_Setup    0x1ea1c           0x34          52   
.text.DRV_PIC32CGMAC_Li    0x1ea50           0x34          52   
.text._TCP_SktFlagsGet     0x1ea84           0x34          52   
.text._ARPSetEntry         0x1eab8           0x34          52   
.text.TCPIP_ARP_Handler    0x1eaec           0x34          52   
.rodata                    0x1eb20           0x34          52  Read-only const 
.text._DNSGetData          0x1eb54           0x34          52   
.text.TCPIP_STACK_NetDo    0x1eb88           0x34          52   
.text.TCPIP_UDP_RxOffse    0x1ebbc           0x34          52   
.text.CommandQuit          0x1ebf0           0x34          52   
.text.Console_UART_Writ    0x1ec24           0x34          52   
.text.Console_UART_Writ    0x1ec58           0x34          52   
.text.Console_UART_Read    0x1ec8c           0x34          52   
.text.Console_UART_Read    0x1ecc0           0x34          52   
.text.SYS_CONSOLE_Read     0x1ecf4           0x34          52   
.text.SYS_CONSOLE_ReadC    0x1ed28           0x34          52   
.text.SYS_CONSOLE_Write    0x1ed5c           0x34          52   
.rodata.tcpipMACPIC32CI    0x1ed90           0x34          52   
.text.vListInsert          0x1edc4           0x34          52   
.text.vTaskDelay           0x1edf8           0x34          52   
.text.Hash_DRBG_Uninsta    0x1ee2c           0x34          52   
.text.gfx_mono_generic_    0x1ee60           0x34          52   
.text.memmove              0x1ee94           0x34          52   
.text.__mcmp               0x1eec8           0x34          52   
.text._DRV_PHY_SMIReadS    0x1eefc           0x32          50   
.text._DRV_PHY_SMIWrite    0x1ef2e           0x32          50   
.text._DRV_ETHPHY_Setup    0x1ef60           0x32          50   
.text.DRV_PIC32CGMAC_Li    0x1ef92           0x32          50   
.text.TCPIP_STACK_NetBi    0x1efc4           0x32          50   
.text._DRV_PHY_NegCompl    0x1eff6           0x30          48   
.text._DRV_ETHPHY_Setup    0x1f028           0x30          48   
.text.DRV_GMAC_Status      0x1f058           0x30          48   
.text.DRV_PIC32CGMAC_Li    0x1f088           0x30          48   
.text.GMAC_InterruptHan    0x1f0b8           0x30          48   
.text.TCPIP_ICMP_Cleanu    0x1f0e8           0x30          48   
.text._TCPSocketTxFreeS    0x1f118           0x30          48   
.text.TCPIP_ARP_HashEnt    0x1f148           0x30          48   
.rodata.iperfCmdTbl        0x1f178           0x30          48   
.text.TCPIP_IPV4_CheckP    0x1f1a8           0x30          48   
.text.fnv_32_hash          0x1f1d8           0x30          48   
.text.TCPIP_OAHASH_Entr    0x1f208           0x30          48   
.text.TCPIP_Helper_Stri    0x1f238           0x30          48   
.text.TCPIP_Helper_Prot    0x1f268           0x30          48   
.text.TCPIP_Helper_Prot    0x1f298           0x30          48   
.text.TCPIP_STACK_Initi    0x1f2c8           0x30          48   
.text.TCPIP_PKT_Initial    0x1f2f8           0x30          48   
.text.TCPIP_UDP_Close      0x1f328           0x30          48   
.text.SendCommandCharac    0x1f358           0x30          48   
.text._keyEndProcess       0x1f388           0x30          48   
.text._keyHomeProcess      0x1f3b8           0x30          48   
.text.SYS_CONSOLE_Messa    0x1f3e8           0x30          48   
.text.SYS_TIME_UpdateTi    0x1f418           0x30          48   
.text.xQueueGenericCrea    0x1f448           0x30          48   
.text.wc_CryptoCb_FindD    0x1f478           0x30          48   
.rodata.seedA_data         0x1f4a8           0x30          48   
.rodata.seedB_data         0x1f4d8           0x30          48   
.text                      0x1f508           0x30          48  App's exec code 
.text._XtlEventsTcp2Eth    0x1f538           0x2e          46   
.text._DRV_MIIM_GetObje    0x1f566           0x2e          46   
.text.DRV_MIIM_Deregist    0x1f594           0x2e          46   
.text.TCPIP_TCP_Connect    0x1f5c2           0x2e          46   
.text._DHCPOptionProces    0x1f5f0           0x2e          46   
.text._DHCPOptionProces    0x1f61e           0x2e          46   
.text._DHCPOptionProces    0x1f64c           0x2e          46   
.text._DHCPOptionClient    0x1f67a           0x2e          46   
.text._DHCPSetTimeout      0x1f6a8           0x2e          46   
.text._DNS_CleanCacheEn    0x1f6d6           0x2e          46   
.text._DNSClientCleanup    0x1f704           0x2e          46   
.text.TCPIP_STACK_DNSSe    0x1f732           0x2e          46   
.text._TxSktGetLockedV4    0x1f760           0x2e          46   
.text.wc_CryptoCb_Regis    0x1f78e           0x2e          46   
.text.__sfputc_r           0x1f7bc           0x2e          46   
.text._Bfree               0x1f7ea           0x2e          46   
.text.DRV_ETHPHY_Close     0x1f818           0x2c          44   
.text.DRV_ETHPHY_Vendor    0x1f844           0x2c          44   
.text.DRV_ETHPHY_Reinit    0x1f870           0x2c          44   
.text._DRV_ETHPHY_LinkS    0x1f89c           0x2c          44   
.text._ARPRemoveEntry      0x1f8c8           0x2c          44   
.text.TCPIP_Helper_Prot    0x1f8f4           0x2c          44   
.text.TCPIP_STACK_IsBca    0x1f920           0x2c          44   
.text._TCPIPStackModule    0x1f94c           0x2c          44   
.text._TCPIP_PKT_Socket    0x1f978           0x2c          44   
.text._UDPFreeTxResourc    0x1f9a4           0x2c          44   
.text.TC0_TimerInterrup    0x1f9d0           0x2c          44   
.rodata.sysConsoleUARTD    0x1f9fc           0x2c          44   
.text.TCPIP_STACK_Init     0x1fa28           0x2c          44   
.text.pxPortInitialiseS    0x1fa54           0x2c          44   
.text.xPortSysTickHandl    0x1fa80           0x2c          44   
.text.prvResetNextTaskU    0x1faac           0x2c          44   
.text.wc_RNG_HealthTest    0x1fad8           0x2c          44   
.text.SERCOM0_SPI_IsBus    0x1fb04           0x2c          44   
.text.__sfmoreglue         0x1fb30           0x2c          44   
.text._wcrtomb_r           0x1fb5c           0x2c          44   
.text._sbrk                0x1fb88           0x2c          44   
.text                      0x1fbb4           0x2c          44  App's exec code 
.text._DRV_GMAC_LinkSta    0x1fbe0           0x2a          42   
.text.TCPIP_TCP_WasRese    0x1fc0a           0x2a          42   
.text.TCPIP_DNS_OAHASH_    0x1fc34           0x2a          42   
.text.TCPIP_Helper_Prot    0x1fc5e           0x2a          42   
.text.TCPIP_Helper_Prot    0x1fc88           0x2a          42   
.text.TCPIP_Notificatio    0x1fcb2           0x2a          42   
.text.DRV_ETHPHY_Tasks     0x1fcdc           0x28          40   
.text.DRV_ETHPHY_PhyAdd    0x1fd04           0x28          40   
.text._DRV_PHY_SetOperD    0x1fd2c           0x28          40   
.text.DRV_ETHPHY_Client    0x1fd54           0x28          40   
.text.DRV_PIC32CGMAC_Li    0x1fd7c           0x28          40   
.text.DRV_PIC32CGMAC_Li    0x1fda4           0x28          40   
.text.DRV_MIIM_Status      0x1fdcc           0x28          40   
.text.TCPIP_ICMP_Deinit    0x1fdf4           0x28          40   
.text._TcpSocketChk        0x1fe1c           0x28          40   
.text._TcpFlush            0x1fe44           0x28          40   
.text._ARPRemoveCacheEn    0x1fe6c           0x28          40   
.text.Ipv4DeRegisterFil    0x1fe94           0x28          40   
.text._DHCPOptionWriteP    0x1febc           0x28          40   
.text.TCPIP_DHCP_IsActi    0x1fee4           0x28          40   
.text._TCPIP_STACK_Tick    0x1ff0c           0x28          40   
.text._TCPIPSignalEntry    0x1ff34           0x28          40   
.text.TCPIP_STACK_Index    0x1ff5c           0x28          40   
.text.TCPIP_STACK_NetMA    0x1ff84           0x28          40   
.text.TCPIP_STACK_NetMA    0x1ffac           0x28          40   
.text.TCPIP_STACK_NetIs    0x1ffd4           0x28          40   
.text._TCPIPStackSignal    0x1fffc           0x28          40   
.text._UDPSocketDcpt       0x20024           0x28          40   
.text._UDPUpdatePacketL    0x2004c           0x28          40   
.text.TCPIP_UDP_GetIsRe    0x20074           0x28          40   
.text.TC0_Timer16bitCou    0x2009c           0x28          40   
.text.Console_UART_Init    0x200c4           0x28          40   
.text.SYS_TMR_TickCount    0x200ec           0x28          40   
.text.SYS_TMR_TickCount    0x20114           0x28          40   
.text.SYS_TMR_TickCount    0x2013c           0x28          40   
.rodata.tcpipARPInitDat    0x20164           0x28          40   
.text.prvPortStartFirst    0x2018c           0x28          40   
.text.vPortSetupTimerIn    0x201b4           0x28          40   
.text.DRV_GMAC_PowerMod    0x201dc            0x4           4   
.rodata.__mprec_bigtens    0x201e0           0x28          40   
.text.read                 0x20208           0x28          40   
.text._DRV_ETHPHY_NegRe    0x20230           0x26          38   
.text._DRV_ETHPHY_NegRe    0x20256           0x26          38   
.text.TCPIP_TCP_IsConne    0x2027c           0x26          38   
.text.TCPIP_TCP_Flush      0x202a2           0x26          38   
.text.TCPIP_TCP_Discard    0x202c8           0x26          38   
.text.TCPIP_OAHASH_Init    0x202ee           0x26          38   
.text.TCPIP_STACK_DNSSe    0x20314           0x26          38   
.text.TCPIP_STACK_Addre    0x2033a           0x26          38   
.text.SYS_RANDOM_Crypto    0x20360           0x26          38   
.text.strncpy              0x20386           0x26          38   
.text.DRV_ETHPHY_Vendor    0x203ac           0x24          36   
.rodata                    0x203d0           0x24          36  Read-only const 
.text.DRV_PIC32CGMAC_Li    0x203f4           0x24          36   
.text._ICMPAllocateTxPa    0x20418           0x24          36   
.text.TCPIP_ICMP_EchoRe    0x2043c           0x24          36   
.text._ARPAllocateTxPac    0x20460           0x24          36   
.text.TCPIP_ARP_Handler    0x20484           0x24          36   
.rodata._tcpip_heap_obj    0x204a8           0x24          36   
.text._DHCPOptionProces    0x204cc           0x24          36   
.text._DHCPOptionWriteM    0x204f0           0x24          36   
.text.TCPIP_STACK_IPAdd    0x20514           0x24          36   
.text._UDPFreeRxQueue      0x20538           0x24          36   
.rodata._builtinCmdTbl     0x2055c           0x24          36   
.text.SYS_RESET_Softwar    0x20580           0x24          36   
.text.SYS_RANDOM_Crypto    0x205a4           0x24          36   
.text.TCPIP_HEAP_Malloc    0x205c8            0x8           8   
.text.vPortSVCHandler      0x205d0           0x24          36   
.text.uxListRemove         0x205f4           0x24          36   
.text.xQueueCreateMutex    0x20618           0x24          36   
.text.gfx_mono_framebuf    0x2063c           0x24          36   
.text.fprintf              0x20660           0x24          36   
.text.strncmp              0x20684           0x24          36   
.text.__ascii_mbtowc       0x206a8           0x24          36   
.text._kill_r              0x206cc           0x24          36   
.text.__sseek              0x206f0           0x24          36   
.text._write_r             0x20714           0x24          36   
.text._fstat_r             0x20738           0x24          36   
.text._lseek_r             0x2075c           0x24          36   
.text._read_r              0x20780           0x24          36   
.text._DRV_PHY_SMITrans    0x207a4           0x22          34   
.text.TCPIP_Helper_Prot    0x207c6           0x22          34   
.text.TCPIP_STACK_NetAd    0x207e8           0x22          34   
.text.TCPIP_UDP_Discard    0x2080a           0x22          34   
.rodata                    0x2082c           0x22          34  Read-only const 
.text.__sread              0x2084e           0x22          34   
.text.DRV_ETHPHY_Status    0x20870           0x20          32   
.text.DRV_ETHPHY_Client    0x20890           0x20          32   
.text.DRV_ETHPHY_Client    0x208b0           0x20          32   
.text._DRV_ETHPHY_Clien    0x208d0           0x20          32   
.text._DRV_ETHPHY_Clien    0x208f0           0x20          32   
.text._DRV_ETHPHY_Clien    0x20910           0x20          32   
.text._DRV_ETHPHY_Clien    0x20930           0x20          32   
.text._DRV_ETHPHY_Clien    0x20950           0x20          32   
.text._DRV_ETHPHY_Clien    0x20970           0x20          32   
.text._DRV_ETHPHY_Setup    0x20990           0x20          32   
.rodata                    0x209b0           0x20          32  Read-only const 
.rodata._DRV_PHY_SetupP    0x209d0           0x20          32   
.text.DRV_GMAC_Close       0x209f0           0x20          32   
.text.DRV_GMAC_Deinitia    0x20a10           0x20          32   
.text.DRV_PIC32CGMAC_Li    0x20a30           0x20          32   
.text.DRV_GMAC_LibDescr    0x20a50           0x20          32   
.text._SwapARPPacket       0x20a70           0x20          32   
.text.TCPIP_DNS_OAHASH_    0x20a90           0x20          32   
.text.TCPIP_Helper_Prot    0x20ab0           0x20          32   
.rodata.TCPIP_MAC_POWER    0x20ad0           0x20          32   
.text.TCPIP_STACK_NetDe    0x20af0           0x20          32   
.text._TCPIPStackHandle    0x20b10           0x20          32   
.text.TCPIP_Notificatio    0x20b30           0x20          32   
.rodata                    0x20b50           0x20          32  Read-only const 
.text.TCPIP_UDP_Destina    0x20b70           0x20          32   
.text._keyRightProcess     0x20b90           0x20          32   
.text.GetCommandCharact    0x20bb0           0x20          32   
.text.SYS_INT_SourceRes    0x20bd0           0x20          32   
.text.SYS_RANDOM_Crypto    0x20bf0           0x20          32   
.rodata.tcpipPhyInitDat    0x20c10           0x20          32   
.text.prvTaskExitError     0x20c30           0x20          32   
.text.vPortEnterCritica    0x20c50           0x20          32   
.rodata.reseedSeedA_dat    0x20c70           0x20          32   
.text._sbrk_r              0x20c90           0x20          32   
.text._close_r             0x20cb0           0x20          32   
.text._isatty_r            0x20cd0           0x20          32   
.text._DRV_GMAC_LinkSta    0x20cf0           0x1e          30   
.text._TCPIsGetReady       0x20d0e           0x1e          30   
.text.TCPIP_STACK_NetAd    0x20d2c           0x1e          30   
.text.TCPIP_STACK_NetAd    0x20d4a           0x1e          30   
.text.TCPIP_STACK_Netwo    0x20d68           0x1e          30   
.text.TCPIP_PKT_Payload    0x20d86           0x1e          30   
.text.OSAL_SEM_Pend        0x20da4           0x1e          30   
.text.OSAL_MUTEX_Lock      0x20dc2           0x1e          30   
.text._keyUpProcess        0x20de0           0x1e          30   
.text._DRV_ETHPHY_Reset    0x20dfe           0x1c          28   
.rodata._DRV_PHY_Client    0x20e1c           0x1c          28   
.text.DRV_GMAC_EventPen    0x20e38           0x1c          28   
.text.DRV_PIC32CGMAC_Li    0x20e54           0x1c          28   
.text.DRV_PIC32CGMAC_Si    0x20e70           0x1c          28   
.text.Helper_SingleList    0x20e8c           0x1c          28   
.text._ARPTxAckFnc         0x20ea8           0x1c          28   
.text.TCPIP_IPV4_MaxDat    0x20ec4           0x1c          28   
.text._TCPIP_HEAP_Callo    0x20ee0           0x1c          28   
.rodata._DHCPOptWriteTb    0x20efc           0x1c          28   
.text.TCPIP_Helper_Sing    0x20f18           0x1c          28   
.text.TCPIP_Helper_Prot    0x20f34           0x1c          28   
.text._TCPIPSignalEntry    0x20f50           0x1c          28   
.text.TCPIP_STACK_Statu    0x20f6c           0x1c          28   
.text.TCPIP_STACK_NetAd    0x20f88           0x1c          28   
.text.TCPIP_STACK_NetAd    0x20fa4           0x1c          28   
.text.TCPIP_STACK_NetAd    0x20fc0           0x1c          28   
.text.TCPIP_STACK_NetIs    0x20fdc           0x1c          28   
.text.TCPIP_STACK_NetMa    0x20ff8           0x1c          28   
.text.TCPIP_STACK_NetIs    0x21014           0x1c          28   
.text.TCPIP_STACK_Deini    0x21030           0x1c          28   
.text._keyLeftProcess      0x2104c           0x1c          28   
.text.SendCommandMessag    0x21068           0x1c          28   
.text.SYS_DEBUG_Initial    0x21084           0x1c          28   
.text.SYS_TIME_Counter6    0x210a0           0x1c          28   
.text.SYS_TIME_GetElaps    0x210bc           0x1c          28   
.text.SYS_TIME_MSToCoun    0x210d8           0x1c          28   
.text.SYS_TMR_CallbackP    0x210f4           0x1c          28   
.rodata.sysTimePlibAPI     0x21110           0x1c          28   
.text.vTaskPlaceOnEvent    0x2112c           0x1c          28   
.text.pvTaskIncrementMu    0x21148           0x1c          28   
.text.memcmp               0x21164           0x1c          28   
.text.memcpy               0x21180           0x1c          28   
.text._calloc_r            0x2119c           0x1c          28   
.text.vsnprintf            0x211b8           0x1c          28   
.text._fputwc_r            0x211d4           0x1c          28   
.text.DRV_PIC32CGMAC_Si    0x211f0           0x1a          26   
.text.Helper_SingleList    0x2120a           0x1a          26   
.text.DRV_MIIM_Read        0x21224           0x1a          26   
.text.DRV_MIIM_Write       0x2123e           0x1a          26   
.text.DRV_MIIM_Scan        0x21258           0x1a          26   
.text.TCPIP_TCP_ClientO    0x21272           0x1a          26   
.text.TCPIP_TCP_PutIsRe    0x2128c           0x1a          26   
.text.TCPIP_DNS_IsResol    0x212a6           0x1a          26   
.text.TCPIP_Helper_Sing    0x212c0           0x1a          26   
.text.TCPIP_Helper_Sing    0x212da           0x1a          26   
.text.TCPIP_STACK_NetIs    0x212f4           0x1a          26   
.text.TCPIP_Notificatio    0x2130e           0x1a          26   
.text._UDPTxPktValid       0x21328           0x1a          26   
.text.TCPIP_UDP_TxPoint    0x21342           0x1a          26   
.text.wc_InitRng           0x2135c           0x1a          26   
.text.strchr               0x21376           0x1a          26   
.text.__ascii_wctomb       0x21390           0x1a          26   
.text.CRYPT_MD5_DataAdd    0x213aa           0x18          24   
.text.CRYPT_MD5_Finaliz    0x213c2           0x18          24   
.text.CRYPT_RNG_BlockGe    0x213da           0x18          24   
.text.DRV_ETHPHY_Deinit    0x213f4           0x18          24   
.text._DRV_ETHPHY_NegCo    0x2140c           0x18          24   
.text._DRV_ETHPHY_Setup    0x21424           0x18          24   
.text._DRV_ETHPHY_LinkS    0x2143c           0x18          24   
.text._DRV_ETHPHY_NegCo    0x21454           0x18          24   
.text._DRV_ETHPHY_NegRe    0x2146c           0x18          24   
.text._DRV_ETHPHY_NegRe    0x21484           0x18          24   
.rodata._DRV_PHY_NegCom    0x2149c           0x18          24   
.text.DRV_PIC32CGMAC_Si    0x214b4           0x18          24   
.text.DRV_PIC32CGMAC_Li    0x214cc           0x18          24   
.text.DRV_MIIM_Close       0x214e4           0x18          24   
.text.TCPIP_ARP_HashKey    0x214fc           0x18          24   
.text.TCPIP_OAHASH_Entr    0x21514           0x18          24   
.text.TCPIP_STACK_NetAd    0x2152c           0x18          24   
.text.TCPIP_STACK_NetAd    0x21544           0x18          24   
.text.TCPIP_STACK_NetAd    0x2155c           0x18          24   
.text.TCPIP_STACK_NetAd    0x21574           0x18          24   
.text.TCPIP_STACK_NetMa    0x2158c           0x18          24   
.rodata.TCPIP_FRAME_PRO    0x215a4           0x18          24   
.text.OSAL_CRIT_Enter      0x215bc           0x18          24   
.text.OSAL_SEM_Post        0x215d4           0x18          24   
.text.OSAL_MUTEX_Create    0x215ec           0x18          24   
.text.OSAL_MUTEX_Unlock    0x21604           0x18          24   
.text.SERCOM1_USART_Wri    0x2161c           0x18          24   
.text.SERCOM1_USART_Rea    0x21634           0x18          24   
.text.TC0_TimerStart       0x2164c           0x18          24   
.text.TC0_TimerStop        0x21664           0x18          24   
.text._keyDownProcess      0x2167c           0x18          24   
.text.CommandReset         0x21694           0x18          24   
.text._SYS_RANDOM_Crypt    0x216ac           0x18          24   
.text._TCPIP_STACK_Task    0x216c4           0x18          24   
.text._DRV_MIIM_Task       0x216dc           0x18          24   
.rodata.sysConsole0UART    0x216f4           0x18          24   
.rodata.tcpipDNSClientI    0x2170c           0x18          24   
.text.vTaskInternalSetT    0x21724           0x18          24   
.rodata.__func__.8948      0x2173c           0x18          24   
.text.DRV_MIIM_ClientSt    0x21754           0x16          22   
.text.TCPIP_TCP_WasDisc    0x2176a           0x16          22   
.text._IperfUDPRxSignal    0x21780           0x16          22   
.text._IperfTCPRxSignal    0x21796           0x16          22   
.text._TCPIP_HEAP_LastE    0x217ac           0x16          22   
.text._DHCPSocketRxSign    0x217c2           0x16          22   
.text._DNSSocketRxSigna    0x217d8           0x16          22   
.text.TCPIP_STACK_Addre    0x217ee           0x16          22   
.text._TCPIPStackPacket    0x21804           0x16          22   
.text.OSAL_CRIT_Leave      0x2181a           0x16          22   
.text.vListInitialise      0x21830           0x16          22   
.text.vListInsertEnd       0x21846           0x16          22   
.text.prvIsQueueEmpty      0x2185c           0x16          22   
.text.xQueueCreateCount    0x21872           0x16          22   
.text.wc_InitMd5           0x21888           0x16          22   
.rodata._DRV_PHY_NegRes    0x218a0           0x14          20   
.rodata.DRV_ETHPHY_OBJE    0x218b4           0x14          20   
.rodata._DRV_GMAC_LinkS    0x218c8           0x14          20   
.text.DRV_PIC32CGMAC_Li    0x218dc           0x14          20   
.text.Ipv4DeRegisterCal    0x218f0           0x14          20   
.text.TCPIP_HEAP_Create    0x21904           0x14          20   
.text._DHCPOptionWriteE    0x21918           0x14          20   
.text.TCPIP_STACK_NetUp    0x2192c           0x14          20   
.text.TCPIP_STACK_HeapH    0x21940           0x14          20   
.text.SERCOM1_USART_Rea    0x21954           0x14          20   
.text.SERCOM1_USART_Wri    0x21968           0x14          20   
.text.TC0_Timer16bitPer    0x2197c           0x14          20   
.text.TC0_Timer16bitCom    0x21990           0x14          20   
.rodata.sysConsoleApi      0x219a4           0x14          20   
.text.Console_UART_Reso    0x219b8           0x14          20   
.text.vPortEnableVFP       0x219cc           0x14          20   
.text.vPortExitCritical    0x219e0           0x14          20   
.text.CRYPT_WCCB_Initia    0x219f4           0x14          20   
.rodata.__func__.8940      0x21a08           0x14          20   
.text                      0x21a1c           0x14          20  App's exec code 
.text.strtol               0x21a30           0x14          20   
.text.CRYPT_MD5_Initial    0x21a44           0x12          18   
.text.TCPIP_TCP_GetIsRe    0x21a56           0x12          18   
.text._TCPIP_HEAP_FreeS    0x21a68           0x12          18   
.text.TCPIP_OAHASH_Entr    0x21a7a           0x12          18   
.text.OSAL_SEM_Delete      0x21a8c           0x12          18   
.text.NVIC_INT_Disable     0x21a9e           0x12          18   
.text.NVIC_INT_Restore     0x21ab0           0x12          18   
.text.vApplicationStack    0x21ac2           0x12          18   
.text.vApplicationMallo    0x21ad4           0x12          18   
.rodata                    0x21ae6           0x12          18  Read-only const 
.text.__i2b                0x21af8           0x12          18   
.rodata                    0x21b0a           0x22          34  Read-only const 
.text.CRYPT_RNG_Initial    0x21b2c           0x10          16   
.rodata._DRV_PHY_SetupP    0x21b3c           0x10          16   
.text.DRV_PIC32CGMAC_Li    0x21b4c           0x10          16   
.text.TCPIP_TCP_SocketN    0x21b5c           0x10          16   
.rodata.heapTypeStr.147    0x21b6c           0x10          16   
.text.TCPIP_DNS_GetIPv4    0x21b7c           0x10          16   
.text.TCPIP_DNS_GetIPv6    0x21b8c           0x10          16   
.text.TCPIP_Notificatio    0x21b9c           0x10          16   
.text.TCPIP_UDP_SocketN    0x21bac           0x10          16   
.text.NVMCTRL_Initializ    0x21bbc           0x10          16   
.text.IsCommandReady       0x21bcc           0x10          16   
.text.Console_UART_Stat    0x21bdc           0x10          16   
.text.sy_time_h2_adapte    0x21bec           0x10          16   
.text._APP_Tasks           0x21bfc           0x10          16   
.text._SYS_CMD_Tasks       0x21c0c           0x10          16   
.rodata.tcpipDHCPInitDa    0x21c1c           0x10          16   
.rodata.tcpipIPv4InitDa    0x21c2c           0x10          16   
.text.vTaskSuspendAll      0x21c3c           0x10          16   
.text.gfx_mono_framebuf    0x21c4c           0x10          16   
.text.calloc               0x21c5c           0x10          16   
.text.malloc               0x21c6c           0x10          16   
.text.free                 0x21c7c           0x10          16   
.text.memset               0x21c8c           0x10          16   
.text.strcpy               0x21c9c           0x10          16   
.text                      0x21cac           0x10          16  App's exec code 
.text.raise                0x21cbc           0x10          16   
.text._malloc_usable_si    0x21ccc           0x10          16   
.rodata                    0x21cdc            0xf          15  Read-only const 
.text.DRV_PIC32CGMAC_Li    0x21cec            0xe          14   
.text.btohexa_low          0x21cfa            0xe          14   
.text.TCPIP_Helper_Chec    0x21d08            0xe          14   
.text.TCPIP_STACK_NetIn    0x21d16            0xe          14   
.text.TCPIP_STACK_NetIx    0x21d24            0xe          14   
.text._TCPIPStackSignal    0x21d32            0xe          14   
.text.main                 0x21d40            0xe          14   
.text.abort                0x21d4e            0xe          14   
.rodata._DRV_PHY_NegRes    0x21d5c            0xc          12   
.rodata._DRV_PHY_ResetP    0x21d68            0xc          12   
.text._DRV_GMAC_GetTxOc    0x21d74            0xc          12   
.text._DRV_GMAC_GetTxOc    0x21d80            0xc          12   
.text._DRV_GMAC_GetTxFr    0x21d8c            0xc          12   
.text._DRV_GMAC_GetTxBC    0x21d98            0xc          12   
.text._DRV_GMAC_GetTxMC    0x21da4            0xc          12   
.text._DRV_GMAC_GetTxPa    0x21db0            0xc          12   
.text._DRV_GMAC_GetTx64    0x21dbc            0xc          12   
.text._DRV_GMAC_GetTx12    0x21dc8            0xc          12   
.text._DRV_GMAC_GetTx25    0x21dd4            0xc          12   
.text._DRV_GMAC_GetTx51    0x21de0            0xc          12   
.text._DRV_GMAC_GetTx10    0x21dec            0xc          12   
.text._DRV_GMAC_GetTx15    0x21df8            0xc          12   
.text._DRV_GMAC_GetTxGT    0x21e04            0xc          12   
.text._DRV_GMAC_GetTxUn    0x21e10            0xc          12   
.text._DRV_GMAC_GetTxSi    0x21e1c            0xc          12   
.text._DRV_GMAC_GetTxMu    0x21e28            0xc          12   
.text._DRV_GMAC_GetTxEx    0x21e34            0xc          12   
.text._DRV_GMAC_GetTxLa    0x21e40            0xc          12   
.text._DRV_GMAC_GetTxDe    0x21e4c            0xc          12   
.text._DRV_GMAC_GetTxCS    0x21e58            0xc          12   
.text._DRV_GMAC_GetRxOc    0x21e64            0xc          12   
.text._DRV_GMAC_GetRxOc    0x21e70            0xc          12   
.text._DRV_GMAC_GetRxFr    0x21e7c            0xc          12   
.text._DRV_GMAC_GetRxBC    0x21e88            0xc          12   
.text._DRV_GMAC_GetRxMC    0x21e94            0xc          12   
.text._DRV_GMAC_GetRxPa    0x21ea0            0xc          12   
.text._DRV_GMAC_GetRx64    0x21eac            0xc          12   
.text._DRV_GMAC_GetRx12    0x21eb8            0xc          12   
.text._DRV_GMAC_GetRx25    0x21ec4            0xc          12   
.text._DRV_GMAC_GetRx51    0x21ed0            0xc          12   
.text._DRV_GMAC_GetRx10    0x21edc            0xc          12   
.text._DRV_GMAC_GetRx15    0x21ee8            0xc          12   
.text._DRV_GMAC_GetRxGT    0x21ef4            0xc          12   
.text._DRV_GMAC_GetRxUn    0x21f00            0xc          12   
.text._DRV_GMAC_GetRxOv    0x21f0c            0xc          12   
.text._DRV_GMAC_GetRxJa    0x21f18            0xc          12   
.text._DRV_GMAC_GetRxFC    0x21f24            0xc          12   
.text._DRV_GMAC_GetRxLF    0x21f30            0xc          12   
.text._DRV_GMAC_GetRxSy    0x21f3c            0xc          12   
.text._DRV_GMAC_GetRxAl    0x21f48            0xc          12   
.text._DRV_GMAC_GetRxRe    0x21f54            0xc          12   
.text._DRV_GMAC_GetRxOv    0x21f60            0xc          12   
.text._DRV_GMAC_GetRxIP    0x21f6c            0xc          12   
.text._DRV_GMAC_GetRxTC    0x21f78            0xc          12   
.text._DRV_GMAC_GetRxUD    0x21f84            0xc          12   
.text.DRV_PIC32CGMAC_Li    0x21f90            0xc          12   
.text.DRV_PIC32CGMAC_Li    0x21f9c            0xc          12   
.text.DRV_PIC32CGMAC_Li    0x21fa8            0xc          12   
.text.btohexa_high         0x21fb4            0xc          12   
.text.TCPIP_ARP_HashKey    0x21fc0            0xc          12   
.text.TCPIP_IPV4_Packet    0x21fcc            0xc          12   
.text._TCPIP_HEAP_Size     0x21fd8            0xc          12   
.text._TCPIP_HEAP_HighW    0x21fe4            0xc          12   
.text.TCPIP_DNS_OAHASH_    0x21ff0            0xc          12   
.text.TCPIP_DNS_Enable     0x21ffc            0xc          12   
.text.TCPIP_STACK_NetDe    0x22008            0xc          12   
.text.TCPIP_STACK_Numbe    0x22014            0xc          12   
.rodata.TCPIP_STACK_IF_    0x22020            0xc          12   
.text.TCPIP_PKT_Deiniti    0x2202c            0xc          12   
.text.TC0_TimerCallback    0x22038            0xc          12   
.text.SYS_DEBUG_Console    0x22044            0xc          12   
.text.SYS_DEBUG_ErrorLe    0x22050            0xc          12   
.text.SYS_TIME_Frequenc    0x2205c            0xc          12   
.rodata.sysConsole0Init    0x22068            0xc          12   
.text.vTaskMissedYield     0x22074            0xc          12   
.text.APP_Initialize       0x22080            0xc          12   
.text.SERCOM0_SPI_Write    0x2208c            0xc          12   
.text.gfx_mono_set_fram    0x22098            0xc          12   
.text._cleanup_r           0x220a4            0xc          12   
.text.__locale_mb_cur_m    0x220b0            0xc          12   
.rodata.p05.7453           0x220bc            0xc          12   
.text.fstat                0x220c8            0xc          12   
.rodata                    0x220d4            0xb          11  Read-only const 
.text._DRV_ETHPHY_NegRe    0x220e0            0xa          10   
.text._ICMPTxPktAcknowl    0x220ea            0xa          10   
.text._Command_ZcllOnOf    0x220f4            0xa          10   
.text._Command_DHCPSOnO    0x220fe            0xa          10   
.text.TCPIP_DNS_Resolve    0x22108            0xa          10   
.text.TCPIP_DNS_IsNameR    0x22112            0xa          10   
.text.TCPIP_Helper_Sing    0x2211c            0xa          10   
.text.TCPIP_STACK_NetNa    0x22126            0xa          10   
.text._TCPIPStackAddres    0x22130            0xa          10   
.text.TCPIP_UDP_ServerO    0x2213a            0xa          10   
.text.TCPIP_UDP_ClientO    0x22144            0xa          10   
.text.TCPIP_HEAP_Calloc    0x2214e            0x8           8   
.text.TCPIP_HEAP_FreeOu    0x22156            0x8           8   
.text.TCPIP_STACK_Gatew    0x2215e            0x8           8   
.text.TCPIP_STACK_Prima    0x22166            0x8           8   
.text.TCPIP_STACK_Secon    0x2216e            0x8           8   
.text.TCPIP_STACK_NetAd    0x22176            0x8           8   
.text.TCPIP_STACK_NetGe    0x2217e            0x8           8   
.text.TCPIP_Notificatio    0x22186            0x8           8   
.text.TCPIP_UDP_TxPutIs    0x2218e            0x8           8   
.text.OSAL_Malloc          0x22196            0x8           8   
.text.SERCOM1_USART_Wri    0x2219e            0x8           8   
.text.TC0_TimerFrequenc    0x221a8            0x8           8   
.text.SYS_INT_Disable      0x221b0            0x8           8   
.text.SYS_INT_Restore      0x221b8            0x8           8   
.text.SYS_TIME_CounterG    0x221c0            0x8           8   
.rodata.drvMiimInitData    0x221c8            0x8           8   
.rodata.sysTimeInitData    0x221d0            0x8           8   
.rodata.tcpipTCPInitDat    0x221d8            0x8           8   
.rodata.tcpipUDPInitDat    0x221e0            0x8           8   
.text.vQueueDelete         0x221e8            0x8           8   
.rodata                    0x221f0            0x8           8  Read-only const 
.text.gfx_mono_ssd1306_    0x221f8            0x8           8   
.text.atoi                 0x22200            0x8           8   
.text._localeconv_r        0x22208            0x8           8   
.text.__sclose             0x22210            0x8           8   
.text.close                0x22218            0x8           8   
.text.TCPIP_ARP_HashKey    0x22220            0x6           6   
.text.TCPIP_STACK_NetBI    0x22226            0x6           6   
.text.TCPIP_PKT_GapDcpt    0x2222c            0x6           6   
.text.vListInitialiseIt    0x22232            0x6           6   
.text.CRYPT_WCCB_Callba    0x22238            0x6           6   
.text.DRV_PIC32CGMAC_Li    0x2223e            0x4           4   
.text.DRV_PIC32CGMAC_Li    0x22242            0x4           4   
.text.TCPIP_IPV4_IsFrag    0x22246            0x4           4   
.text._DHCPOptionProces    0x2224a            0x4           4   
.rodata._DHCPRequestPar    0x22250            0x4           4   
.rodata.dhcpMagicCookie    0x22254            0x4           4   
.text.TCPIP_PKT_GapDcpt    0x22258            0x4           4   
.text._mon_getc            0x2225c            0x4           4   
.text.Console_UART_Flus    0x22260            0x4           4   
.rodata.debugInit          0x22264            0x4           4   
.rodata.sysConsole0UART    0x22268            0x4           4   
.text                      0x2226c            0x4           4  App's exec code 
.rodata._global_impure_    0x22270            0x4           4   
.text._getpid_r            0x22274            0x4           4   
.text._close               0x22278            0x4           4   
.text._fstat               0x2227c            0x4           4   
.text._getpid              0x22280            0x4           4   
.text._isatty              0x22284            0x4           4   
.text._kill                0x22288            0x4           4   
.text._lseek               0x2228c            0x4           4   
.text._read                0x22290            0x4           4   
.text._write               0x22294            0x4           4   
.text.getpid               0x22298            0x4           4   
.text.isatty               0x2229c            0x4           4   
.text.kill                 0x222a0            0x4           4   
.text.lseek                0x222a4            0x4           4   
      Total ROM used  :     0x22294      139924  13.3% of 0x100000
        --------------------------------------------------------------------------
         Total Program Memory used  :     0x22294      139924  13.3% of 0x100000
        --------------------------------------------------------------------------


RAM Data-Memory Usage
section                    address  length [bytes]      (dec)  Description
-------                 ----------  -------------------------  -----------
.bss                    0x20000000            0x4           4  Uninitialized data 
.bss.ucHeap             0x20000004         0xa000       40960   
.bss.SERCOM1_USART_Read 0x2000a004         0x1000        4096   
.bss.SERCOM1_USART_Writ 0x2000b004         0x1000        4096   
.bss.printBuff          0x2000c004          0xa00        2560   
.bss.icmpPingBuff       0x2000ca04          0x7d0        2000   
.bss.TCPIP_STACK_MODULE 0x2000d1d4          0x270         624   
.bss.framebuffer        0x2000d444          0x200         512   
.data.__global_locale   0x2000d644          0x16c         364   
.bss.sysRandCtx         0x2000d7b0          0x108         264   
.data._gmac_drv_dcpt    0x2000d8b8           0xf8         248   
.bss.gIperfState        0x2000d9b0           0xd8         216   
.bss.consolePrintBuffer 0x2000da88           0xc8         200   
.bss.timers             0x2000db50           0xa0         160   
.bss.gDrvMIIMObj        0x2000dbf0           0x94         148   
.bss.TCPIP_MODULES_QUEU 0x2000dc84           0x90         144   
.bss._hEventMac         0x2000dd14            0x4           4   
.bss.gmac_dcpt_array    0x2000dd18           0x80         128   
.bss._usrCmdTbl         0x2000dd98           0x80         128   
.bss.gPhyDrvInst        0x2000de18           0x68         104   
.bss.pxReadyTasksLists  0x2000de80           0x64         100   
.bss.gCryptoDev         0x2000dee4           0x60          96   
.data.impure_data       0x2000df44           0x60          96   
.bss.arpMod             0x2000dfa4           0x4c          76   
.bss.sercom1USARTObj    0x2000dff0           0x40          64   
.bss.gSystemCounterObj  0x2000e030           0x38          56   
.bss.g_bfr              0x2000e068           0x34          52   
.bss.sercom0SPIObj      0x2000e09c           0x2c          44   
.bss.gDnsDcpt           0x2000e0c8           0x28          40   
.bss.tcpip_stack_ctrl_d 0x2000e0f0           0x20          32   
.bss.__sf_fake_stderr   0x2000e110           0x20          32   
.bss.__sf_fake_stdin    0x2000e130           0x20          32   
.bss.__sf_fake_stdout   0x2000e150           0x20          32   
.bss.dnslookupTargetHos 0x2000e170           0x1f          31   
.data.queueIndex.10784  0x2000e18f            0x1           1   
.bss.icmpTargetHost     0x2000e190           0x1f          31   
.bss.tcpipCmdStat       0x2000e1af            0x1           1   
.bss                    0x2000e1b0           0x1c          28  Uninitialized data 
.bss.icmpEchoRequest    0x2000e1cc           0x18          24   
.bss.cmdTcpipInitData   0x2000e1e4           0x18          24   
.bss.tcpip_init_data    0x2000e1fc           0x18          24   
.bss.icmpRegisteredUser 0x2000e214           0x14          20   
.bss.ipv4ArpQueue       0x2000e228           0x14          20   
.bss.ipv4PacketFilters  0x2000e23c           0x14          20   
.bss.dhcpRegisteredUser 0x2000e250           0x14          20   
.bss.sysObj             0x2000e264           0x14          20   
.data.tcpipHeapConfig   0x2000e278           0x14          20   
.bss.xDelayedTaskList1  0x2000e28c           0x14          20   
.bss.xDelayedTaskList2  0x2000e2a0           0x14          20   
.bss.xPendingReadyList  0x2000e2b4           0x14          20   
.bss.xSuspendedTaskList 0x2000e2c8           0x14          20   
.bss.xTasksWaitingTermi 0x2000e2dc           0x14          20   
.bss.clientObj          0x2000e2f0           0x14          20   
.bss.icmpTargetAddrStr  0x2000e304           0x11          17   
.data.dnsType           0x2000e315            0x1           1   
.bss.tcpDefRxSize       0x2000e316            0x2           2   
.bss.tcpip_heap_config  0x2000e318           0x10          16   
.bss.ipv4ArpPool        0x2000e328            0xc          12   
.bss.gConsoleUartData   0x2000e334            0xc          12   
.bss.consoleDeviceInsta 0x2000e340            0xc          12   
.data.sysfont           0x2000e34c            0xc          12   
.bss.TC0_CallbackObject 0x2000e358            0x8           8   
.bss.cmdIODevList       0x2000e360            0x8           8   
.data.arpBcastAdd       0x2000e368            0x6           6   
.bss.data               0x2000e36e            0x2           2   
.bss.drvGmacQueEvents   0x2000e370            0x4           4   
.bss.icmpEchoStart      0x2000e374            0x4           4   
.bss.icmpEchoTmo        0x2000e378            0x4           4   
.bss.icmpInitCount      0x2000e37c            0x4           4   
.bss.icmpMemH           0x2000e380            0x4           4   
.bss.pIcmpEchoRequest   0x2000e384            0x4           4   
.bss.signalHandle       0x2000e388            0x4           4   
.bss.TCBStubs           0x2000e38c            0x4           4   
.bss.TcpSockets         0x2000e390            0x4           4   
.bss.tcpHeapH           0x2000e394            0x4           4   
.bss.tcpInitCount       0x2000e398            0x4           4   
.bss.tcpLockCount       0x2000e39c            0x4           4   
.bss.tcpSemaphore       0x2000e3a0            0x4           4   
.bss.tcpSignalHandle    0x2000e3a4            0x4           4   
.bss.commandInitCount   0x2000e3a8            0x4           4   
.bss.dnsLookUpStartTick 0x2000e3ac            0x4           4   
.bss.dnsLookupCmdIoPara 0x2000e3b0            0x4           4   
.bss.icmpAckRecv        0x2000e3b4            0x4           4   
.bss.icmpCmdIoParam     0x2000e3b8            0x4           4   
.bss.icmpNetH           0x2000e3bc            0x4           4   
.bss.icmpReqCount       0x2000e3c0            0x4           4   
.bss.icmpReqDelay       0x2000e3c4            0x4           4   
.bss.icmpReqHandle      0x2000e3c8            0x4           4   
.bss.icmpReqNo          0x2000e3cc            0x4           4   
.bss.icmpStartTick      0x2000e3d0            0x4           4   
.bss.icmpTargetAddr     0x2000e3d4            0x4           4   
.bss.initialNetIfs      0x2000e3d8            0x4           4   
.bss.pCmdTcpipInitData  0x2000e3dc            0x4           4   
.bss.pTcpipCmdDevice    0x2000e3e0            0x4           4   
.bss.tcpipCmdSignalHand 0x2000e3e4            0x4           4   
.data.icmpPingSize      0x2000e3e8            0x4           4   
.bss.iperfInitCount     0x2000e3ec            0x4           4   
.bss.nIperfSessions     0x2000e3f0            0x4           4   
.bss.ipv4ActFilterCount 0x2000e3f4            0x4           4   
.bss.ipv4ArpEntries     0x2000e3f8            0x4           4   
.bss.ipv4ArpHandle      0x2000e3fc            0x4           4   
.bss.ipv4MemH           0x2000e400            0x4           4   
.bss.signalHandle       0x2000e404            0x4           4   
.bss.DHCPClients        0x2000e408            0x4           4   
.bss.dhcpInitCount      0x2000e40c            0x4           4   
.bss.dhcpInterfaces     0x2000e410            0x4           4   
.bss.dhcpMemH           0x2000e414            0x4           4   
.bss.dhcpSecondCount    0x2000e418            0x4           4   
.bss.dhcpSignalHandle   0x2000e41c            0x4           4   
.bss.dnsInitCount       0x2000e420            0x4           4   
.bss.pgDnsDcpt          0x2000e424            0x4           4   
.bss.newTcpipErrorEvent 0x2000e428            0x4           4   
.bss.newTcpipStackEvent 0x2000e42c            0x4           4   
.bss.newTcpipTickAvlbl  0x2000e430            0x4           4   
.bss.stackAsyncSignalCo 0x2000e434            0x4           4   
.bss.stackTaskRate      0x2000e438            0x4           4   
.bss.tcpipDefIf         0x2000e43c            0x4           4   
.bss.tcpipNetIf         0x2000e440            0x4           4   
.bss.tcpip_stack_init_c 0x2000e444            0x4           4   
.bss.totTcpipEventsCnt  0x2000e448            0x4           4   
.data.tcpip_stack_tickH 0x2000e44c            0x4           4   
.bss.pktMemH            0x2000e450            0x4           4   
.bss.UDPSocketDcpt      0x2000e454            0x4           4   
.bss.nUdpSockets        0x2000e458            0x4           4   
.bss.signalHandle       0x2000e45c            0x4           4   
.bss.udpInitCount       0x2000e460            0x4           4   
.bss.udpMemH            0x2000e464            0x4           4   
.bss.userSem            0x2000e468            0x4           4   
.bss._cmdInitData       0x2000e46c            0x4           4   
.bss.printBuffPtr       0x2000e470            0x4           4   
.bss.consolePrintBuffer 0x2000e474            0x4           4   
.bss.sysDebugInstance   0x2000e478            0x4           4   
.bss.gTickConv          0x2000e47c            0x4           4   
.bss.systemAdaptObj     0x2000e480            0x4           4   
.bss.pRandCtx           0x2000e484            0x4           4   
.bss.xAPP_Tasks         0x2000e488            0x4           4   
.bss.sysCmdInit         0x2000e48c            0x4           4   
.data.uxCriticalNesting 0x2000e490            0x4           4   
.bss.pucAlignedHeap.655 0x2000e494            0x4           4   
.bss.xNextFreeByte      0x2000e498            0x4           4   
.bss.pxCurrentTCB       0x2000e49c            0x4           4   
.bss.pxDelayedTaskList  0x2000e4a0            0x4           4   
.bss.pxOverflowDelayedT 0x2000e4a4            0x4           4   
.bss.uxCurrentNumberOfT 0x2000e4a8            0x4           4   
.bss.uxDeletedTasksWait 0x2000e4ac            0x4           4   
.bss.uxSchedulerSuspend 0x2000e4b0            0x4           4   
.bss.uxTaskNumber       0x2000e4b4            0x4           4   
.bss.uxTopReadyPriority 0x2000e4b8            0x4           4   
.bss.xIdleTaskHandle    0x2000e4bc            0x4           4   
.bss.xNextTaskUnblockTi 0x2000e4c0            0x4           4   
.bss.xNumOfOverflows    0x2000e4c4            0x4           4   
.bss.xPendedTicks       0x2000e4c8            0x4           4   
.bss.xSchedulerRunning  0x2000e4cc            0x4           4   
.bss.xTickCount         0x2000e4d0            0x4           4   
.bss.xYieldPending      0x2000e4d4            0x4           4   
.bss.opHandle           0x2000e4d8            0x4           4   
.bss.fbpointer          0x2000e4dc            0x4           4   
.bss                    0x2000e4e0            0x4           4  Uninitialized data 
.data._impure_ptr       0x2000e4e4            0x4           4   
.bss.__malloc_free_list 0x2000e4e8            0x4           4   
.bss.__malloc_sbrk_star 0x2000e4ec            0x4           4   
.bss                    0x2000e4f0            0x4           4  Uninitialized data 
.bss.appData            0x2000e4f4            0x1           1   
.bss.iperf_async_reques 0x2000e4f5            0x1           1   
.bss.tcpDefTxSize       0x2000e4f6            0x2           2   
.data.drvGmacIRQ        0x2000e4f8            0x2           2   
.bss.icmpIdentifier     0x2000e4fa            0x2           2   
.bss.icmpSequenceNo     0x2000e4fc            0x2           2   
.bss.ipv4Identifier     0x2000e4fe            0x2           2   
.bss.ipv4InitCount      0x2000e500            0x2           2   
.bss.dhcpClientPort     0x2000e502            0x2           2   
.bss.dhcpClientSocket   0x2000e504            0x2           2   
.bss.dhcpServerPort     0x2000e506            0x2           2   
.bss.udpDefTxSize       0x2000e508            0x2           2   
.data.gSysTimeTokenCoun 0x2000e50a            0x2           2   
.bss.ipv4FilterType     0x2000e50c            0x1           1   
.bss.tcpip_stack_status 0x2000e50d            0x1           1   
.bss.isConsoleMutexCrea 0x2000e50e            0x1           1   
.bss.gblErrLvl          0x2000e50f            0x1           1   
.bss.isLastByteTransfer 0x2000e510            0x1           1   
         Total RAM used  :      0xe511       58641  22.4% of 0x40000
        --------------------------------------------------------------------------
            Total Data Memory used  :      0xe511       58641  22.4% of 0x40000
        --------------------------------------------------------------------------


Dynamic Data-Memory Reservation
section                    address  length [bytes]      (dec)  Description
-------                 ----------  -------------------------  -----------
heap                    0x2000e518        0x17ac0       96960  Reserved for heap 
stack                   0x20025ff0        0x1a000      106496  Reserved for stack 

        --------------------------------------------------------------------------

Discarded input sections

 .text          0x00000000        0x0 c:/program files/microchip/xc32/v3.01/bin/bin/../../lib/gcc/pic32c/8.3.1/thumb/v7e-m+fp/hard/crti.o
 .data          0x00000000        0x0 c:/program files/microchip/xc32/v3.01/bin/bin/../../lib/gcc/pic32c/8.3.1/thumb/v7e-m+fp/hard/crti.o
 .bss           0x00000000        0x0 c:/program files/microchip/xc32/v3.01/bin/bin/../../lib/gcc/pic32c/8.3.1/thumb/v7e-m+fp/hard/crti.o
 .xc_stack_usage.hdr
                0x00000000        0xe c:/program files/microchip/xc32/v3.01/bin/bin/../../lib/gcc/pic32c/8.3.1/thumb/v7e-m+fp/hard/crti.o
 .xc_stack_usage
                0x00000000       0x26 c:/program files/microchip/xc32/v3.01/bin/bin/../../lib/gcc/pic32c/8.3.1/thumb/v7e-m+fp/hard/crti.o
 .data          0x00000000        0x4 c:/program files/microchip/xc32/v3.01/bin/bin/../../lib/gcc/pic32c/8.3.1/thumb/v7e-m+fp/hard/crtbegin.o
 .xc_stack_usage
                0x00000000       0x3c c:/program files/microchip/xc32/v3.01/bin/bin/../../lib/gcc/pic32c/8.3.1/thumb/v7e-m+fp/hard/crtbegin.o
 .xc_stack_usage.hdr
                0x00000000        0xe c:/program files/microchip/xc32/v3.01/bin/bin/../../lib/gcc/pic32c/8.3.1/thumb/v7e-m+fp/hard/crtbegin.o
 .text          0x00000000        0x0 build/FreeRTOS/production/_ext/1609394304/crypto.o
 .data          0x00000000        0x0 build/FreeRTOS/production/_ext/1609394304/crypto.o
 .bss           0x00000000        0x0 build/FreeRTOS/production/_ext/1609394304/crypto.o
 .text.CRYPT_MD5_DataSizeSet
                0x00000000        0xc build/FreeRTOS/production/_ext/1609394304/crypto.o
 .text.CRYPT_SHA_Initialize
                0x00000000       0x10 build/FreeRTOS/production/_ext/1609394304/crypto.o
 .text.CRYPT_SHA_DataSizeSet
                0x00000000        0xc build/FreeRTOS/production/_ext/1609394304/crypto.o
 .text.CRYPT_SHA_DataAdd
                0x00000000       0x18 build/FreeRTOS/production/_ext/1609394304/crypto.o
 .text.CRYPT_SHA_Finalize
                0x00000000       0x18 build/FreeRTOS/production/_ext/1609394304/crypto.o
 .text.CRYPT_SHA256_Initialize
                0x00000000       0x10 build/FreeRTOS/production/_ext/1609394304/crypto.o
 .text.CRYPT_SHA256_DataSizeSet
                0x00000000        0xc build/FreeRTOS/production/_ext/1609394304/crypto.o
 .text.CRYPT_SHA256_DataAdd
                0x00000000       0x18 build/FreeRTOS/production/_ext/1609394304/crypto.o
 .text.CRYPT_SHA256_Finalize
                0x00000000       0x18 build/FreeRTOS/production/_ext/1609394304/crypto.o
 .text.CRYPT_SHA224_Initialize
                0x00000000       0x10 build/FreeRTOS/production/_ext/1609394304/crypto.o
 .text.CRYPT_SHA224_DataAdd
                0x00000000       0x18 build/FreeRTOS/production/_ext/1609394304/crypto.o
 .text.CRYPT_SHA224_Finalize
                0x00000000       0x18 build/FreeRTOS/production/_ext/1609394304/crypto.o
 .text.CRYPT_HMAC_SetKey
                0x00000000       0x48 build/FreeRTOS/production/_ext/1609394304/crypto.o
 .text.CRYPT_HMAC_DataAdd
                0x00000000       0x18 build/FreeRTOS/production/_ext/1609394304/crypto.o
 .text.CRYPT_HMAC_Finalize
                0x00000000       0x18 build/FreeRTOS/production/_ext/1609394304/crypto.o
 .text.CRYPT_RNG_Deinitialize
                0x00000000       0x12 build/FreeRTOS/production/_ext/1609394304/crypto.o
 .text.CRYPT_RNG_Get
                0x00000000       0x18 build/FreeRTOS/production/_ext/1609394304/crypto.o
 .text.CRYPT_TDES_KeySet
                0x00000000       0x18 build/FreeRTOS/production/_ext/1609394304/crypto.o
 .text.CRYPT_TDES_IvSet
                0x00000000       0x18 build/FreeRTOS/production/_ext/1609394304/crypto.o
 .text.CRYPT_TDES_CBC_Encrypt
                0x00000000       0x20 build/FreeRTOS/production/_ext/1609394304/crypto.o
 .text.CRYPT_TDES_CBC_Decrypt
                0x00000000       0x20 build/FreeRTOS/production/_ext/1609394304/crypto.o
 .text.CRYPT_AES_KeySet
                0x00000000       0x20 build/FreeRTOS/production/_ext/1609394304/crypto.o
 .text.CRYPT_AES_IvSet
                0x00000000       0x18 build/FreeRTOS/production/_ext/1609394304/crypto.o
 .text.CRYPT_AES_CBC_Encrypt
                0x00000000       0x20 build/FreeRTOS/production/_ext/1609394304/crypto.o
 .text.CRYPT_AES_CBC_Decrypt
                0x00000000       0x20 build/FreeRTOS/production/_ext/1609394304/crypto.o
 .text.CRYPT_AES_CTR_Encrypt
                0x00000000       0x20 build/FreeRTOS/production/_ext/1609394304/crypto.o
 .text.CRYPT_AES_GCM_SetKey
                0x00000000       0x18 build/FreeRTOS/production/_ext/1609394304/crypto.o
 .text.CRYPT_AES_GCM_Encrypt
                0x00000000       0x34 build/FreeRTOS/production/_ext/1609394304/crypto.o
 .text.CRYPT_AES_GCM_Decrypt
                0x00000000       0x2c build/FreeRTOS/production/_ext/1609394304/crypto.o
 .text.CRYPT_AES_DIRECT_Encrypt
                0x00000000       0x12 build/FreeRTOS/production/_ext/1609394304/crypto.o
 .text.CRYPT_AES_DIRECT_Decrypt
                0x00000000       0x22 build/FreeRTOS/production/_ext/1609394304/crypto.o
 .text.CRYPT_RSA_Initialize
                0x00000000       0x28 build/FreeRTOS/production/_ext/1609394304/crypto.o
 .text.CRYPT_RSA_Free
                0x00000000       0x20 build/FreeRTOS/production/_ext/1609394304/crypto.o
 .text.CRYPT_RSA_PublicKeyDecode
                0x00000000       0x2a build/FreeRTOS/production/_ext/1609394304/crypto.o
 .text.CRYPT_RSA_PrivateKeyDecode
                0x00000000       0x2a build/FreeRTOS/production/_ext/1609394304/crypto.o
 .text.CRYPT_RSA_PublicEncrypt
                0x00000000       0x3e build/FreeRTOS/production/_ext/1609394304/crypto.o
 .text.CRYPT_RSA_PrivateDecrypt
                0x00000000       0x32 build/FreeRTOS/production/_ext/1609394304/crypto.o
 .text.CRYPT_RSA_EncryptSizeGet
                0x00000000       0x12 build/FreeRTOS/production/_ext/1609394304/crypto.o
 .text.CRYPT_ECC_Initialize
                0x00000000       0x24 build/FreeRTOS/production/_ext/1609394304/crypto.o
 .text.CRYPT_ECC_Free
                0x00000000       0x20 build/FreeRTOS/production/_ext/1609394304/crypto.o
 .text.CRYPT_ECC_PublicExport
                0x00000000       0x28 build/FreeRTOS/production/_ext/1609394304/crypto.o
 .text.CRYPT_ECC_PublicImport
                0x00000000       0x22 build/FreeRTOS/production/_ext/1609394304/crypto.o
 .text.CRYPT_ECC_PrivateImport
                0x00000000       0x36 build/FreeRTOS/production/_ext/1609394304/crypto.o
 .text.CRYPT_ECC_DHE_KeyMake
                0x00000000       0x22 build/FreeRTOS/production/_ext/1609394304/crypto.o
 .text.CRYPT_ECC_DHE_SharedSecretMake
                0x00000000       0x3a build/FreeRTOS/production/_ext/1609394304/crypto.o
 .text.CRYPT_ECC_DSA_HashSign
                0x00000000       0x4a build/FreeRTOS/production/_ext/1609394304/crypto.o
 .text.CRYPT_ECC_DSA_HashVerify
                0x00000000       0x42 build/FreeRTOS/production/_ext/1609394304/crypto.o
 .text.CRYPT_ECC_KeySizeGet
                0x00000000       0x12 build/FreeRTOS/production/_ext/1609394304/crypto.o
 .text.CRYPT_ECC_SignatureSizeGet
                0x00000000       0x12 build/FreeRTOS/production/_ext/1609394304/crypto.o
 .text.CRYPT_ERROR_StringGet
                0x00000000       0x1c build/FreeRTOS/production/_ext/1609394304/crypto.o
 .rodata        0x00000000       0x28 build/FreeRTOS/production/_ext/1609394304/crypto.o
 .text          0x00000000        0x0 build/FreeRTOS/production/_ext/1231519722/drv_ethphy.o
 .data          0x00000000        0x0 build/FreeRTOS/production/_ext/1231519722/drv_ethphy.o
 .bss           0x00000000        0x0 build/FreeRTOS/production/_ext/1231519722/drv_ethphy.o
 .text          0x00000000        0x0 build/FreeRTOS/production/_ext/1231519722/drv_extphy_lan867x.o
 .data          0x00000000        0x0 build/FreeRTOS/production/_ext/1231519722/drv_extphy_lan867x.o
 .bss           0x00000000        0x0 build/FreeRTOS/production/_ext/1231519722/drv_extphy_lan867x.o
 .text          0x00000000        0x0 build/FreeRTOS/production/_ext/41526634/drv_gmac.o
 .data          0x00000000        0x0 build/FreeRTOS/production/_ext/41526634/drv_gmac.o
 .bss           0x00000000        0x0 build/FreeRTOS/production/_ext/41526634/drv_gmac.o
 .text          0x00000000        0x0 build/FreeRTOS/production/_ext/41526634/drv_gmac_lib_samE5x.o
 .data          0x00000000        0x0 build/FreeRTOS/production/_ext/41526634/drv_gmac_lib_samE5x.o
 .bss           0x00000000        0x0 build/FreeRTOS/production/_ext/41526634/drv_gmac_lib_samE5x.o
 .text          0x00000000        0x0 build/FreeRTOS/production/_ext/1149484450/drv_miim.o
 .data          0x00000000        0x0 build/FreeRTOS/production/_ext/1149484450/drv_miim.o
 .bss           0x00000000        0x0 build/FreeRTOS/production/_ext/1149484450/drv_miim.o
 .text.Helper_SingleListInitialize
                0x00000000        0xa build/FreeRTOS/production/_ext/1149484450/drv_miim.o
 .text          0x00000000        0x0 build/FreeRTOS/production/_ext/540595297/helpers.o
 .data          0x00000000        0x0 build/FreeRTOS/production/_ext/540595297/helpers.o
 .bss           0x00000000        0x0 build/FreeRTOS/production/_ext/540595297/helpers.o
 .text.uitoa    0x00000000       0x5c build/FreeRTOS/production/_ext/540595297/helpers.o
 .text.strncpy_m
                0x00000000       0x6e build/FreeRTOS/production/_ext/540595297/helpers.o
 .text.stricmp  0x00000000       0x4c build/FreeRTOS/production/_ext/540595297/helpers.o
 .text          0x00000000        0x0 build/FreeRTOS/production/_ext/540595297/icmp.o
 .data          0x00000000        0x0 build/FreeRTOS/production/_ext/540595297/icmp.o
 .bss           0x00000000        0x0 build/FreeRTOS/production/_ext/540595297/icmp.o
 .text.TCPIP_ICMP_CallbackRegister
                0x00000000       0x30 build/FreeRTOS/production/_ext/540595297/icmp.o
 .text.TCPIP_ICMP_CallbackDeregister
                0x00000000       0x24 build/FreeRTOS/production/_ext/540595297/icmp.o
 .text.TCPIP_ICMP_EchoRequestSend
                0x00000000       0x90 build/FreeRTOS/production/_ext/540595297/icmp.o
 .text          0x00000000        0x0 build/FreeRTOS/production/_ext/540595297/tcp.o
 .data          0x00000000        0x0 build/FreeRTOS/production/_ext/540595297/tcp.o
 .bss           0x00000000        0x0 build/FreeRTOS/production/_ext/540595297/tcp.o
 .text.TCPIP_TCP_SocketTraceSet
                0x00000000        0x4 build/FreeRTOS/production/_ext/540595297/tcp.o
 .text.TCPIP_TCP_Disconnect
                0x00000000       0x1a build/FreeRTOS/production/_ext/540595297/tcp.o
 .text.TCPIP_TCP_Abort
                0x00000000       0x14 build/FreeRTOS/production/_ext/540595297/tcp.o
 .text.TCPIP_TCP_SocketFlagsGet
                0x00000000       0x12 build/FreeRTOS/production/_ext/540595297/tcp.o
 .text.TCPIP_TCP_SocketsNumberGet
                0x00000000        0xc build/FreeRTOS/production/_ext/540595297/tcp.o
 .text.TCPIP_TCP_Put
                0x00000000       0x18 build/FreeRTOS/production/_ext/540595297/tcp.o
 .text.TCPIP_TCP_StringPut
                0x00000000       0x1a build/FreeRTOS/production/_ext/540595297/tcp.o
 .text.TCPIP_TCP_FifoTxFreeGet
                0x00000000       0x26 build/FreeRTOS/production/_ext/540595297/tcp.o
 .text.TCPIP_TCP_Get
                0x00000000        0xa build/FreeRTOS/production/_ext/540595297/tcp.o
 .text.TCPIP_TCP_FifoRxFreeGet
                0x00000000       0x1e build/FreeRTOS/production/_ext/540595297/tcp.o
 .text.TCPIP_TCP_ArrayPeek
                0x00000000       0x66 build/FreeRTOS/production/_ext/540595297/tcp.o
 .text.TCPIP_TCP_Peek
                0x00000000       0x1a build/FreeRTOS/production/_ext/540595297/tcp.o
 .text.TCPIP_TCP_ArrayFind
                0x00000000      0x23c build/FreeRTOS/production/_ext/540595297/tcp.o
 .text.TCPIP_TCP_Find
                0x00000000       0x22 build/FreeRTOS/production/_ext/540595297/tcp.o
 .text.TCPIP_TCP_SocketNetSet
                0x00000000       0x28 build/FreeRTOS/production/_ext/540595297/tcp.o
 .text.TCPIP_TCP_OptionsGet
                0x00000000       0xc4 build/FreeRTOS/production/_ext/540595297/tcp.o
 .text.TCPIP_TCP_SourceIPAddressSet
                0x00000000       0x32 build/FreeRTOS/production/_ext/540595297/tcp.o
 .text.TCPIP_TCP_SignalHandlerDeregister
                0x00000000       0x3a build/FreeRTOS/production/_ext/540595297/tcp.o
 .text.TCPIP_TCP_IsReady
                0x00000000        0x4 build/FreeRTOS/production/_ext/540595297/tcp.o
 .text          0x00000000        0x0 build/FreeRTOS/production/_ext/540595297/arp.o
 .data          0x00000000        0x0 build/FreeRTOS/production/_ext/540595297/arp.o
 .bss           0x00000000        0x0 build/FreeRTOS/production/_ext/540595297/arp.o
 .text.TCPIP_ARP_EntrySet
                0x00000000       0xe8 build/FreeRTOS/production/_ext/540595297/arp.o
 .text.TCPIP_ARP_EntryRemoveAll
                0x00000000       0x84 build/FreeRTOS/production/_ext/540595297/arp.o
 .text.TCPIP_ARP_EntryQuery
                0x00000000       0xa8 build/FreeRTOS/production/_ext/540595297/arp.o
 .text.TCPIP_ARP_CacheEntriesNoGet
                0x00000000       0x58 build/FreeRTOS/production/_ext/540595297/arp.o
 .text.TCPIP_ARP_CacheThresholdSet
                0x00000000       0x54 build/FreeRTOS/production/_ext/540595297/arp.o
 .text          0x00000000        0x0 build/FreeRTOS/production/_ext/540595297/tcpip_commands.o
 .data          0x00000000        0x0 build/FreeRTOS/production/_ext/540595297/tcpip_commands.o
 .bss           0x00000000        0x0 build/FreeRTOS/production/_ext/540595297/tcpip_commands.o
 .text          0x00000000        0x0 build/FreeRTOS/production/_ext/540595297/iperf.o
 .data          0x00000000        0x0 build/FreeRTOS/production/_ext/540595297/iperf.o
 .bss           0x00000000        0x0 build/FreeRTOS/production/_ext/540595297/iperf.o
 .text          0x00000000        0x0 build/FreeRTOS/production/_ext/540595297/ipv4.o
 .data          0x00000000        0x0 build/FreeRTOS/production/_ext/540595297/ipv4.o
 .bss           0x00000000        0x0 build/FreeRTOS/production/_ext/540595297/ipv4.o
 .text.TCPIP_IPv4_ArpStatGet
                0x00000000        0x4 build/FreeRTOS/production/_ext/540595297/ipv4.o
 .text.TCPIP_IPv4_ForwardStatGet
                0x00000000        0x4 build/FreeRTOS/production/_ext/540595297/ipv4.o
 .text.TCPIP_IPV4_PacketFilterSet
                0x00000000       0x24 build/FreeRTOS/production/_ext/540595297/ipv4.o
 .text.TCPIP_IPV4_PacketFilterClear
                0x00000000       0x24 build/FreeRTOS/production/_ext/540595297/ipv4.o
 .text.TCPIP_IPV4_MacPacketTransmit
                0x00000000       0x60 build/FreeRTOS/production/_ext/540595297/ipv4.o
 .text.TCPIP_IPV4_PacketAlloc
                0x00000000       0x78 build/FreeRTOS/production/_ext/540595297/ipv4.o
 .text.TCPIP_IPV4_PacketOptionFieldSet
                0x00000000       0x36 build/FreeRTOS/production/_ext/540595297/ipv4.o
 .text.TCPIP_IPV4_PacketOptionListGet
                0x00000000       0x56 build/FreeRTOS/production/_ext/540595297/ipv4.o
 .text.TCPIP_IPV4_PacketOptionGet
                0x00000000       0x70 build/FreeRTOS/production/_ext/540595297/ipv4.o
 .text          0x00000000        0x0 build/FreeRTOS/production/_ext/540595297/tcpip_heap_alloc.o
 .data          0x00000000        0x0 build/FreeRTOS/production/_ext/540595297/tcpip_heap_alloc.o
 .bss           0x00000000        0x0 build/FreeRTOS/production/_ext/540595297/tcpip_heap_alloc.o
 .text._TCPIP_HEAP_PointerMapCached
                0x00000000        0x2 build/FreeRTOS/production/_ext/540595297/tcpip_heap_alloc.o
 .text          0x00000000        0x0 build/FreeRTOS/production/_ext/540595297/tcpip_heap_internal.o
 .data          0x00000000        0x0 build/FreeRTOS/production/_ext/540595297/tcpip_heap_internal.o
 .bss           0x00000000        0x0 build/FreeRTOS/production/_ext/540595297/tcpip_heap_internal.o
 .text          0x00000000        0x0 build/FreeRTOS/production/_ext/540595297/dhcp.o
 .data          0x00000000        0x0 build/FreeRTOS/production/_ext/540595297/dhcp.o
 .bss           0x00000000        0x0 build/FreeRTOS/production/_ext/540595297/dhcp.o
 .text.TCPIP_DHCP_IsBound
                0x00000000       0x3c build/FreeRTOS/production/_ext/540595297/dhcp.o
 .text.TCPIP_DHCP_IsServerDetected
                0x00000000       0x3c build/FreeRTOS/production/_ext/540595297/dhcp.o
 .text.TCPIP_DHCP_RequestTimeoutSet
                0x00000000       0x54 build/FreeRTOS/production/_ext/540595297/dhcp.o
 .text.TCPIP_DHCP_HandlerRegister
                0x00000000       0x34 build/FreeRTOS/production/_ext/540595297/dhcp.o
 .text.TCPIP_DHCP_HandlerDeRegister
                0x00000000       0x24 build/FreeRTOS/production/_ext/540595297/dhcp.o
 .text.TCPIP_DHCP_HostNameCallbackRegister
                0x00000000       0x54 build/FreeRTOS/production/_ext/540595297/dhcp.o
 .text          0x00000000        0x0 build/FreeRTOS/production/_ext/540595297/dns.o
 .data          0x00000000        0x0 build/FreeRTOS/production/_ext/540595297/dns.o
 .bss           0x00000000        0x0 build/FreeRTOS/production/_ext/540595297/dns.o
 .text.TCPIP_DNS_Send_Query
                0x00000000        0xa build/FreeRTOS/production/_ext/540595297/dns.o
 .text.TCPIP_DNS_IsEnabled
                0x00000000       0x1a build/FreeRTOS/production/_ext/540595297/dns.o
 .text          0x00000000        0x0 build/FreeRTOS/production/_ext/540595297/hash_fnv.o
 .data          0x00000000        0x0 build/FreeRTOS/production/_ext/540595297/hash_fnv.o
 .bss           0x00000000        0x0 build/FreeRTOS/production/_ext/540595297/hash_fnv.o
 .text.fnv_32a_hash
                0x00000000       0x30 build/FreeRTOS/production/_ext/540595297/hash_fnv.o
 .text          0x00000000        0x0 build/FreeRTOS/production/_ext/540595297/oahash.o
 .data          0x00000000        0x0 build/FreeRTOS/production/_ext/540595297/oahash.o
 .bss           0x00000000        0x0 build/FreeRTOS/production/_ext/540595297/oahash.o
 .text          0x00000000        0x0 build/FreeRTOS/production/_ext/540595297/tcpip_helpers.o
 .data          0x00000000        0x0 build/FreeRTOS/production/_ext/540595297/tcpip_helpers.o
 .bss           0x00000000        0x0 build/FreeRTOS/production/_ext/540595297/tcpip_helpers.o
 .text._TCPIP_Helper_SecurePortEntry
                0x00000000       0x38 build/FreeRTOS/production/_ext/540595297/tcpip_helpers.o
 .text.TCPIP_Helper_IsPrivateAddress
                0x00000000       0x2c build/FreeRTOS/production/_ext/540595297/tcpip_helpers.o
 .text.TCPIP_Helper_PowerModeToString
                0x00000000       0x14 build/FreeRTOS/production/_ext/540595297/tcpip_helpers.o
 .text.TCPIP_Helper_Base64Decode
                0x00000000      0x104 build/FreeRTOS/production/_ext/540595297/tcpip_helpers.o
 .text.TCPIP_Helper_Base64Encode
                0x00000000      0x116 build/FreeRTOS/production/_ext/540595297/tcpip_helpers.o
 .text.TCPIP_Helper_FindCommonPrefix
                0x00000000       0x52 build/FreeRTOS/production/_ext/540595297/tcpip_helpers.o
 .text.TCPIP_Helper_SingleListHeadAdd
                0x00000000       0x16 build/FreeRTOS/production/_ext/540595297/tcpip_helpers.o
 .text.TCPIP_Helper_SingleListMidAdd
                0x00000000        0xe build/FreeRTOS/production/_ext/540595297/tcpip_helpers.o
 .text.TCPIP_Helper_SingleListNextRemove
                0x00000000       0x26 build/FreeRTOS/production/_ext/540595297/tcpip_helpers.o
 .text.TCPIP_Helper_SingleListFind
                0x00000000       0x20 build/FreeRTOS/production/_ext/540595297/tcpip_helpers.o
 .text.TCPIP_Helper_ProtectedSingleListHeadAdd
                0x00000000       0x2a build/FreeRTOS/production/_ext/540595297/tcpip_helpers.o
 .text.TCPIP_Helper_ProtectedSingleListMidAdd
                0x00000000       0x30 build/FreeRTOS/production/_ext/540595297/tcpip_helpers.o
 .text.TCPIP_Helper_ProtectedSingleListNextRemove
                0x00000000       0x30 build/FreeRTOS/production/_ext/540595297/tcpip_helpers.o
 .text.TCPIP_Helper_ProtectedSingleListAppend
                0x00000000       0x2a build/FreeRTOS/production/_ext/540595297/tcpip_helpers.o
 .text.TCPIP_Helper_DoubleListInitialize
                0x00000000        0xa build/FreeRTOS/production/_ext/540595297/tcpip_helpers.o
 .text.TCPIP_Helper_DoubleListHeadAdd
                0x00000000       0x22 build/FreeRTOS/production/_ext/540595297/tcpip_helpers.o
 .text.TCPIP_Helper_DoubleListTailAdd
                0x00000000       0x22 build/FreeRTOS/production/_ext/540595297/tcpip_helpers.o
 .text.TCPIP_Helper_DoubleListMidAdd
                0x00000000       0x14 build/FreeRTOS/production/_ext/540595297/tcpip_helpers.o
 .text.TCPIP_Helper_DoubleListHeadRemove
                0x00000000       0x24 build/FreeRTOS/production/_ext/540595297/tcpip_helpers.o
 .text.TCPIP_Helper_DoubleListTailRemove
                0x00000000       0x24 build/FreeRTOS/production/_ext/540595297/tcpip_helpers.o
 .text.TCPIP_Helper_DoubleListMidRemove
                0x00000000       0x12 build/FreeRTOS/production/_ext/540595297/tcpip_helpers.o
 .text.TCPIP_Helper_DoubleListNodeRemove
                0x00000000       0x20 build/FreeRTOS/production/_ext/540595297/tcpip_helpers.o
 .text.TCPIP_Helper_DoubleListFind
                0x00000000       0x20 build/FreeRTOS/production/_ext/540595297/tcpip_helpers.o
 .text.TCPIP_Helper_ProtectedDoubleListInitialize
                0x00000000       0x22 build/FreeRTOS/production/_ext/540595297/tcpip_helpers.o
 .text.TCPIP_Helper_ProtectedDoubleListDeinitialize
                0x00000000       0x30 build/FreeRTOS/production/_ext/540595297/tcpip_helpers.o
 .text.TCPIP_Helper_ProtectedDoubleListHeadAdd
                0x00000000       0x2a build/FreeRTOS/production/_ext/540595297/tcpip_helpers.o
 .text.TCPIP_Helper_ProtectedDoubleListTailAdd
                0x00000000       0x2a build/FreeRTOS/production/_ext/540595297/tcpip_helpers.o
 .text.TCPIP_Helper_ProtectedDoubleListMidAdd
                0x00000000       0x2e build/FreeRTOS/production/_ext/540595297/tcpip_helpers.o
 .text.TCPIP_Helper_ProtectedDoubleListHeadRemove
                0x00000000       0x2c build/FreeRTOS/production/_ext/540595297/tcpip_helpers.o
 .text.TCPIP_Helper_ProtectedDoubleListTailRemove
                0x00000000       0x2c build/FreeRTOS/production/_ext/540595297/tcpip_helpers.o
 .text.TCPIP_Helper_ProtectedDoubleListMidRemove
                0x00000000       0x2a build/FreeRTOS/production/_ext/540595297/tcpip_helpers.o
 .text.TCPIP_Helper_ProtectedDoubleListNodeRemove
                0x00000000       0x2a build/FreeRTOS/production/_ext/540595297/tcpip_helpers.o
 .text.TCPIP_Helper_ProtectedDoubleListRemoveAll
                0x00000000       0x2a build/FreeRTOS/production/_ext/540595297/tcpip_helpers.o
 .text.TCPIP_Helper_ProtectedDoubleListLock
                0x00000000       0x14 build/FreeRTOS/production/_ext/540595297/tcpip_helpers.o
 .text.TCPIP_Helper_ProtectedDoubleListUnlock
                0x00000000       0x10 build/FreeRTOS/production/_ext/540595297/tcpip_helpers.o
 .text.TCPIP_Helper_TCPSecurePortGet
                0x00000000       0x16 build/FreeRTOS/production/_ext/540595297/tcpip_helpers.o
 .text.TCPIP_Helper_UDPSecurePortGet
                0x00000000       0x16 build/FreeRTOS/production/_ext/540595297/tcpip_helpers.o
 .text.TCPIP_Helper_SecurePortGetByIndex
                0x00000000       0x34 build/FreeRTOS/production/_ext/540595297/tcpip_helpers.o
 .text.TCPIP_Helper_SecurePortSet
                0x00000000       0x5e build/FreeRTOS/production/_ext/540595297/tcpip_helpers.o
 .data.tcpSecurePortTbl
                0x00000000       0x28 build/FreeRTOS/production/_ext/540595297/tcpip_helpers.o
 .text          0x00000000        0x0 build/FreeRTOS/production/_ext/540595297/tcpip_manager.o
 .data          0x00000000        0x0 build/FreeRTOS/production/_ext/540595297/tcpip_manager.o
 .bss           0x00000000        0x0 build/FreeRTOS/production/_ext/540595297/tcpip_manager.o
 .text._NetConfigStringToBuffer
                0x00000000       0x52 build/FreeRTOS/production/_ext/540595297/tcpip_manager.o
 .text.TCPIP_STACK_NetMulticastGet
                0x00000000        0x4 build/FreeRTOS/production/_ext/540595297/tcpip_manager.o
 .text.TCPIP_STACK_NetMulticastSet
                0x00000000        0x4 build/FreeRTOS/production/_ext/540595297/tcpip_manager.o
 .text.TCPIP_STACK_MacToNet
                0x00000000       0x3c build/FreeRTOS/production/_ext/540595297/tcpip_manager.o
 .text.TCPIP_STACK_MacToNetIndex
                0x00000000       0x44 build/FreeRTOS/production/_ext/540595297/tcpip_manager.o
 .text.TCPIP_Stack_UserHandleToNet
                0x00000000       0x3c build/FreeRTOS/production/_ext/540595297/tcpip_manager.o
 .text.TCPIP_STACK_MACObjectGet
                0x00000000        0x6 build/FreeRTOS/production/_ext/540595297/tcpip_manager.o
 .text.TCPIP_STACK_NetMACIdGet
                0x00000000       0x18 build/FreeRTOS/production/_ext/540595297/tcpip_manager.o
 .text.TCPIP_STACK_ModuleConfigGet
                0x00000000       0x4c build/FreeRTOS/production/_ext/540595297/tcpip_manager.o
 .text.TCPIP_STACK_NetConfigGet
                0x00000000       0x50 build/FreeRTOS/production/_ext/540595297/tcpip_manager.o
 .text.TCPIP_STACK_NetConfigSet
                0x00000000      0x1aa build/FreeRTOS/production/_ext/540595297/tcpip_manager.o
 .text.TCPIP_STACK_MACIdToString
                0x00000000       0x3c build/FreeRTOS/production/_ext/540595297/tcpip_manager.o
 .text.TCPIP_STACK_EventsPendingGet
                0x00000000       0x20 build/FreeRTOS/production/_ext/540595297/tcpip_manager.o
 .text.TCPIP_STACK_NetStaticIPv6AddressGet
                0x00000000        0x4 build/FreeRTOS/production/_ext/540595297/tcpip_manager.o
 .text.TCPIP_STACK_NetDefaultIPv6GatewayGet
                0x00000000        0x4 build/FreeRTOS/production/_ext/540595297/tcpip_manager.o
 .text.TCPIP_STACK_AddressIsOfNetUp
                0x00000000       0x30 build/FreeRTOS/production/_ext/540595297/tcpip_manager.o
 .text._TCPIPStackAnyNetDirected
                0x00000000       0x48 build/FreeRTOS/production/_ext/540595297/tcpip_manager.o
 .text.TCPIP_STACK_NetMACId
                0x00000000        0xc build/FreeRTOS/production/_ext/540595297/tcpip_manager.o
 .text.TCPIP_STACK_NetToMAC
                0x00000000        0xa build/FreeRTOS/production/_ext/540595297/tcpip_manager.o
 .text.TCPIP_STACK_VersionGet
                0x00000000        0x8 build/FreeRTOS/production/_ext/540595297/tcpip_manager.o
 .text.TCPIP_STACK_VersionStrGet
                0x00000000        0x8 build/FreeRTOS/production/_ext/540595297/tcpip_manager.o
 .text.TCPIP_MODULE_SignalFunctionRegister
                0x00000000       0x3c build/FreeRTOS/production/_ext/540595297/tcpip_manager.o
 .text.TCPIP_MODULE_SignalFunctionDeregister
                0x00000000        0xe build/FreeRTOS/production/_ext/540595297/tcpip_manager.o
 .text.TCPIP_MODULE_SignalGet
                0x00000000       0x28 build/FreeRTOS/production/_ext/540595297/tcpip_manager.o
 .text.TCPIP_STACK_HEAP_Size
                0x00000000        0xe build/FreeRTOS/production/_ext/540595297/tcpip_manager.o
 .text.TCPIP_STACK_HEAP_MaxSize
                0x00000000        0xe build/FreeRTOS/production/_ext/540595297/tcpip_manager.o
 .text.TCPIP_STACK_HEAP_FreeSize
                0x00000000        0xe build/FreeRTOS/production/_ext/540595297/tcpip_manager.o
 .text.TCPIP_STACK_HEAP_HighWatermark
                0x00000000        0xe build/FreeRTOS/production/_ext/540595297/tcpip_manager.o
 .text.TCPIP_STACK_HEAP_LastError
                0x00000000       0x10 build/FreeRTOS/production/_ext/540595297/tcpip_manager.o
 .text._TCPIPStackHeapConfig
                0x00000000        0x8 build/FreeRTOS/production/_ext/540595297/tcpip_manager.o
 .text          0x00000000        0x0 build/FreeRTOS/production/_ext/540595297/tcpip_notify.o
 .data          0x00000000        0x0 build/FreeRTOS/production/_ext/540595297/tcpip_notify.o
 .bss           0x00000000        0x0 build/FreeRTOS/production/_ext/540595297/tcpip_notify.o
 .text          0x00000000        0x0 build/FreeRTOS/production/_ext/540595297/tcpip_packet.o
 .data          0x00000000        0x0 build/FreeRTOS/production/_ext/540595297/tcpip_packet.o
 .bss           0x00000000        0x0 build/FreeRTOS/production/_ext/540595297/tcpip_packet.o
 .text.TCPIP_PKT_SegmentAppend
                0x00000000       0x14 build/FreeRTOS/production/_ext/540595297/tcpip_packet.o
 .text._TCPIP_PKT_SegmentAlloc
                0x00000000       0x4c build/FreeRTOS/production/_ext/540595297/tcpip_packet.o
 .text._TCPIP_PKT_SegmentFree
                0x00000000       0x1c build/FreeRTOS/production/_ext/540595297/tcpip_packet.o
 .text          0x00000000        0x0 build/FreeRTOS/production/_ext/540595297/udp.o
 .data          0x00000000        0x0 build/FreeRTOS/production/_ext/540595297/udp.o
 .bss           0x00000000        0x0 build/FreeRTOS/production/_ext/540595297/udp.o
 .text.TCPIP_UDP_IsConnected
                0x00000000       0x2c build/FreeRTOS/production/_ext/540595297/udp.o
 .text.TCPIP_UDP_Put
                0x00000000       0x18 build/FreeRTOS/production/_ext/540595297/udp.o
 .text.TCPIP_UDP_StringPut
                0x00000000       0x2a build/FreeRTOS/production/_ext/540595297/udp.o
 .text.TCPIP_UDP_TxCountGet
                0x00000000       0x22 build/FreeRTOS/production/_ext/540595297/udp.o
 .text.TCPIP_UDP_Get
                0x00000000        0xa build/FreeRTOS/production/_ext/540595297/udp.o
 .text.TCPIP_UDP_RemoteBind
                0x00000000       0xa6 build/FreeRTOS/production/_ext/540595297/udp.o
 .text.TCPIP_UDP_SetSplitPayload
                0x00000000       0x56 build/FreeRTOS/production/_ext/540595297/udp.o
 .text.TCPIP_UDP_SignalHandlerDeregister
                0x00000000       0x3a build/FreeRTOS/production/_ext/540595297/udp.o
 .text.TCPIP_UDP_SocketsNumberGet
                0x00000000        0xc build/FreeRTOS/production/_ext/540595297/udp.o
 .text          0x00000000        0x0 build/FreeRTOS/production/_ext/891571577/osal_freertos.o
 .data          0x00000000        0x0 build/FreeRTOS/production/_ext/891571577/osal_freertos.o
 .bss           0x00000000        0x0 build/FreeRTOS/production/_ext/891571577/osal_freertos.o
 .text.OSAL_SEM_PostISR
                0x00000000       0x3c build/FreeRTOS/production/_ext/891571577/osal_freertos.o
 .text.OSAL_SEM_GetCount
                0x00000000       0x12 build/FreeRTOS/production/_ext/891571577/osal_freertos.o
 .text.OSAL_MUTEX_Delete
                0x00000000       0x1a build/FreeRTOS/production/_ext/891571577/osal_freertos.o
 .text.OSAL_Free
                0x00000000        0x8 build/FreeRTOS/production/_ext/891571577/osal_freertos.o
 .text.OSAL_Initialize
                0x00000000        0x4 build/FreeRTOS/production/_ext/891571577/osal_freertos.o
 .text          0x00000000        0x0 build/FreeRTOS/production/_ext/892004133/plib_clock.o
 .data          0x00000000        0x0 build/FreeRTOS/production/_ext/892004133/plib_clock.o
 .bss           0x00000000        0x0 build/FreeRTOS/production/_ext/892004133/plib_clock.o
 .text          0x00000000        0x0 build/FreeRTOS/production/_ext/1495245741/plib_cmcc.o
 .data          0x00000000        0x0 build/FreeRTOS/production/_ext/1495245741/plib_cmcc.o
 .bss           0x00000000        0x0 build/FreeRTOS/production/_ext/1495245741/plib_cmcc.o
 .text.CMCC_Disable
                0x00000000       0x18 build/FreeRTOS/production/_ext/1495245741/plib_cmcc.o
 .text.CMCC_EnableICache
                0x00000000       0x28 build/FreeRTOS/production/_ext/1495245741/plib_cmcc.o
 .text.CMCC_DisableICache
                0x00000000       0x28 build/FreeRTOS/production/_ext/1495245741/plib_cmcc.o
 .text.CMCC_EnableDCache
                0x00000000       0x28 build/FreeRTOS/production/_ext/1495245741/plib_cmcc.o
 .text.CMCC_DisableDCache
                0x00000000       0x28 build/FreeRTOS/production/_ext/1495245741/plib_cmcc.o
 .text.CMCC_InvalidateAll
                0x00000000       0x20 build/FreeRTOS/production/_ext/1495245741/plib_cmcc.o
 .debug_info    0x00000000      0x5d0 build/FreeRTOS/production/_ext/1495245741/plib_cmcc.o
 .debug_abbrev  0x00000000       0x9d build/FreeRTOS/production/_ext/1495245741/plib_cmcc.o
 .debug_aranges
                0x00000000       0x48 build/FreeRTOS/production/_ext/1495245741/plib_cmcc.o
 .debug_ranges  0x00000000       0x38 build/FreeRTOS/production/_ext/1495245741/plib_cmcc.o
 .debug_line    0x00000000      0x286 build/FreeRTOS/production/_ext/1495245741/plib_cmcc.o
 .debug_str     0x00000000        0x0 build/FreeRTOS/production/_ext/1495245741/plib_cmcc.o
 .comment       0x00000000       0x54 build/FreeRTOS/production/_ext/1495245741/plib_cmcc.o
 .debug_frame   0x00000000       0x70 build/FreeRTOS/production/_ext/1495245741/plib_cmcc.o
 .ARM.attributes
                0x00000000       0x34 build/FreeRTOS/production/_ext/1495245741/plib_cmcc.o
 .text          0x00000000        0x0 build/FreeRTOS/production/_ext/894153619/plib_evsys.o
 .data          0x00000000        0x0 build/FreeRTOS/production/_ext/894153619/plib_evsys.o
 .bss           0x00000000        0x0 build/FreeRTOS/production/_ext/894153619/plib_evsys.o
 .text          0x00000000        0x0 build/FreeRTOS/production/_ext/1494909205/plib_nvic.o
 .data          0x00000000        0x0 build/FreeRTOS/production/_ext/1494909205/plib_nvic.o
 .bss           0x00000000        0x0 build/FreeRTOS/production/_ext/1494909205/plib_nvic.o
 .text.NVIC_INT_Enable
                0x00000000        0x8 build/FreeRTOS/production/_ext/1494909205/plib_nvic.o
 .text          0x00000000        0x0 build/FreeRTOS/production/_ext/320424729/plib_nvmctrl.o
 .data          0x00000000        0x0 build/FreeRTOS/production/_ext/320424729/plib_nvmctrl.o
 .bss           0x00000000        0x0 build/FreeRTOS/production/_ext/320424729/plib_nvmctrl.o
 .text.NVMCTRL_Read
                0x00000000       0x10 build/FreeRTOS/production/_ext/320424729/plib_nvmctrl.o
 .text.NVMCTRL_SetWriteMode
                0x00000000       0x14 build/FreeRTOS/production/_ext/320424729/plib_nvmctrl.o
 .text.NVMCTRL_QuadWordWrite
                0x00000000       0x4c build/FreeRTOS/production/_ext/320424729/plib_nvmctrl.o
 .text.NVMCTRL_DoubleWordWrite
                0x00000000       0x40 build/FreeRTOS/production/_ext/320424729/plib_nvmctrl.o
 .text.NVMCTRL_PageBufferWrite
                0x00000000       0x2c build/FreeRTOS/production/_ext/320424729/plib_nvmctrl.o
 .text.NVMCTRL_PageBufferCommit
                0x00000000       0x28 build/FreeRTOS/production/_ext/320424729/plib_nvmctrl.o
 .text.NVMCTRL_PageWrite
                0x00000000       0x40 build/FreeRTOS/production/_ext/320424729/plib_nvmctrl.o
 .text.NVMCTRL_BlockErase
                0x00000000       0x1c build/FreeRTOS/production/_ext/320424729/plib_nvmctrl.o
 .text.NVMCTRL_ErrorGet
                0x00000000       0x20 build/FreeRTOS/production/_ext/320424729/plib_nvmctrl.o
 .text.NVMCTRL_StatusGet
                0x00000000        0xc build/FreeRTOS/production/_ext/320424729/plib_nvmctrl.o
 .text.NVMCTRL_IsBusy
                0x00000000       0x14 build/FreeRTOS/production/_ext/320424729/plib_nvmctrl.o
 .text.NVMCTRL_RegionLock
                0x00000000       0x10 build/FreeRTOS/production/_ext/320424729/plib_nvmctrl.o
 .text.NVMCTRL_RegionUnlock
                0x00000000       0x10 build/FreeRTOS/production/_ext/320424729/plib_nvmctrl.o
 .text.NVMCTRL_RegionLockStatusGet
                0x00000000        0xc build/FreeRTOS/production/_ext/320424729/plib_nvmctrl.o
 .text.NVMCTRL_SmartEEPROM_IsBusy
                0x00000000       0x10 build/FreeRTOS/production/_ext/320424729/plib_nvmctrl.o
 .text.NVMCTRL_SmartEEPROMStatusGet
                0x00000000        0xc build/FreeRTOS/production/_ext/320424729/plib_nvmctrl.o
 .text.NVMCTRL_SmartEEPROM_IsActiveSectorFull
                0x00000000       0x10 build/FreeRTOS/production/_ext/320424729/plib_nvmctrl.o
 .text.NVMCTRL_BankSwap
                0x00000000       0x10 build/FreeRTOS/production/_ext/320424729/plib_nvmctrl.o
 .text.NVMCTRL_SmartEEPROMSectorReallocate
                0x00000000       0x10 build/FreeRTOS/production/_ext/320424729/plib_nvmctrl.o
 .text.NVMCTRL_SmartEEPROMFlushPageBuffer
                0x00000000       0x18 build/FreeRTOS/production/_ext/320424729/plib_nvmctrl.o
 .bss.nvm_error
                0x00000000        0x2 build/FreeRTOS/production/_ext/320424729/plib_nvmctrl.o
 .text          0x00000000        0x0 build/FreeRTOS/production/_ext/1494856054/plib_port.o
 .data          0x00000000        0x0 build/FreeRTOS/production/_ext/1494856054/plib_port.o
 .bss           0x00000000        0x0 build/FreeRTOS/production/_ext/1494856054/plib_port.o
 .text.PORT_GroupRead
                0x00000000        0x4 build/FreeRTOS/production/_ext/1494856054/plib_port.o
 .text.PORT_GroupWrite
                0x00000000        0xc build/FreeRTOS/production/_ext/1494856054/plib_port.o
 .text.PORT_GroupLatchRead
                0x00000000        0x4 build/FreeRTOS/production/_ext/1494856054/plib_port.o
 .text.PORT_GroupSet
                0x00000000        0x4 build/FreeRTOS/production/_ext/1494856054/plib_port.o
 .text.PORT_GroupClear
                0x00000000        0x4 build/FreeRTOS/production/_ext/1494856054/plib_port.o
 .text.PORT_GroupToggle
                0x00000000        0x4 build/FreeRTOS/production/_ext/1494856054/plib_port.o
 .text.PORT_GroupInputEnable
                0x00000000        0x4 build/FreeRTOS/production/_ext/1494856054/plib_port.o
 .text.PORT_GroupOutputEnable
                0x00000000        0x4 build/FreeRTOS/production/_ext/1494856054/plib_port.o
 .text.PORT_PinPeripheralFunctionConfig
                0x00000000       0x4a build/FreeRTOS/production/_ext/1494856054/plib_port.o
 .text.PORT_PinGPIOConfig
                0x00000000       0x20 build/FreeRTOS/production/_ext/1494856054/plib_port.o
 .text          0x00000000        0x0 build/FreeRTOS/production/_ext/2092608928/plib_sercom1_usart.o
 .data          0x00000000        0x0 build/FreeRTOS/production/_ext/2092608928/plib_sercom1_usart.o
 .bss           0x00000000        0x0 build/FreeRTOS/production/_ext/2092608928/plib_sercom1_usart.o
 .text.SERCOM1_USART_FrequencyGet
                0x00000000        0x8 build/FreeRTOS/production/_ext/2092608928/plib_sercom1_usart.o
 .text.SERCOM1_USART_SerialSetup
                0x00000000      0x148 build/FreeRTOS/production/_ext/2092608928/plib_sercom1_usart.o
 .text.SERCOM1_USART_ErrorGet
                0x00000000       0x10 build/FreeRTOS/production/_ext/2092608928/plib_sercom1_usart.o
 .text.SERCOM1_USART_ReadBufferSizeGet
                0x00000000        0xc build/FreeRTOS/production/_ext/2092608928/plib_sercom1_usart.o
 .text.SERCOM1_USART_ReadNotificationEnable
                0x00000000       0x18 build/FreeRTOS/production/_ext/2092608928/plib_sercom1_usart.o
 .text.SERCOM1_USART_ReadThresholdSet
                0x00000000        0xc build/FreeRTOS/production/_ext/2092608928/plib_sercom1_usart.o
 .text.SERCOM1_USART_ReadCallbackRegister
                0x00000000        0xc build/FreeRTOS/production/_ext/2092608928/plib_sercom1_usart.o
 .text.SERCOM1_USART_WriteBufferSizeGet
                0x00000000        0xc build/FreeRTOS/production/_ext/2092608928/plib_sercom1_usart.o
 .text.SERCOM1_USART_WriteNotificationEnable
                0x00000000       0x10 build/FreeRTOS/production/_ext/2092608928/plib_sercom1_usart.o
 .text.SERCOM1_USART_WriteThresholdSet
                0x00000000        0xc build/FreeRTOS/production/_ext/2092608928/plib_sercom1_usart.o
 .text.SERCOM1_USART_WriteCallbackRegister
                0x00000000        0xc build/FreeRTOS/production/_ext/2092608928/plib_sercom1_usart.o
 .text          0x00000000        0x0 build/FreeRTOS/production/_ext/579449528/plib_tc0.o
 .data          0x00000000        0x0 build/FreeRTOS/production/_ext/579449528/plib_tc0.o
 .bss           0x00000000        0x0 build/FreeRTOS/production/_ext/579449528/plib_tc0.o
 .text.TC0_TimerCommandSet
                0x00000000       0x18 build/FreeRTOS/production/_ext/579449528/plib_tc0.o
 .text.TC0_Timer16bitCounterSet
                0x00000000       0x14 build/FreeRTOS/production/_ext/579449528/plib_tc0.o
 .text.TC0_Timer16bitPeriodGet
                0x00000000        0xc build/FreeRTOS/production/_ext/579449528/plib_tc0.o
 .text          0x00000000        0x0 build/FreeRTOS/production/_ext/1872641887/xc32_monitor.o
 .data          0x00000000        0x0 build/FreeRTOS/production/_ext/1872641887/xc32_monitor.o
 .bss           0x00000000        0x0 build/FreeRTOS/production/_ext/1872641887/xc32_monitor.o
 .text          0x00000000        0x0 build/FreeRTOS/production/_ext/1107142132/sys_cache.o
 .data          0x00000000        0x0 build/FreeRTOS/production/_ext/1107142132/sys_cache.o
 .bss           0x00000000        0x0 build/FreeRTOS/production/_ext/1107142132/sys_cache.o
 .text.SYS_CACHE_EnableCaches
                0x00000000        0x2 build/FreeRTOS/production/_ext/1107142132/sys_cache.o
 .text.SYS_CACHE_DisableCaches
                0x00000000        0x2 build/FreeRTOS/production/_ext/1107142132/sys_cache.o
 .text.SYS_CACHE_EnableICache
                0x00000000        0x2 build/FreeRTOS/production/_ext/1107142132/sys_cache.o
 .text.SYS_CACHE_DisableICache
                0x00000000        0x2 build/FreeRTOS/production/_ext/1107142132/sys_cache.o
 .text.SYS_CACHE_InvalidateICache
                0x00000000        0x2 build/FreeRTOS/production/_ext/1107142132/sys_cache.o
 .text.SYS_CACHE_EnableDCache
                0x00000000        0x2 build/FreeRTOS/production/_ext/1107142132/sys_cache.o
 .text.SYS_CACHE_DisableDCache
                0x00000000        0x2 build/FreeRTOS/production/_ext/1107142132/sys_cache.o
 .text.SYS_CACHE_InvalidateDCache
                0x00000000        0x2 build/FreeRTOS/production/_ext/1107142132/sys_cache.o
 .text.SYS_CACHE_CleanDCache
                0x00000000        0x2 build/FreeRTOS/production/_ext/1107142132/sys_cache.o
 .text.SYS_CACHE_CleanInvalidateDCache
                0x00000000        0x2 build/FreeRTOS/production/_ext/1107142132/sys_cache.o
 .text.SYS_CACHE_InvalidateDCache_by_Addr
                0x00000000        0x2 build/FreeRTOS/production/_ext/1107142132/sys_cache.o
 .text.SYS_CACHE_CleanDCache_by_Addr
                0x00000000        0x2 build/FreeRTOS/production/_ext/1107142132/sys_cache.o
 .text.SYS_CACHE_CleanInvalidateDCache_by_Addr
                0x00000000        0x2 build/FreeRTOS/production/_ext/1107142132/sys_cache.o
 .debug_info    0x00000000      0x641 build/FreeRTOS/production/_ext/1107142132/sys_cache.o
 .debug_abbrev  0x00000000       0x9a build/FreeRTOS/production/_ext/1107142132/sys_cache.o
 .debug_aranges
                0x00000000       0x80 build/FreeRTOS/production/_ext/1107142132/sys_cache.o
 .debug_ranges  0x00000000       0x70 build/FreeRTOS/production/_ext/1107142132/sys_cache.o
 .debug_line    0x00000000      0x210 build/FreeRTOS/production/_ext/1107142132/sys_cache.o
 .debug_str     0x00000000        0x0 build/FreeRTOS/production/_ext/1107142132/sys_cache.o
 .comment       0x00000000       0x54 build/FreeRTOS/production/_ext/1107142132/sys_cache.o
 .debug_frame   0x00000000       0xe0 build/FreeRTOS/production/_ext/1107142132/sys_cache.o
 .ARM.attributes
                0x00000000       0x34 build/FreeRTOS/production/_ext/1107142132/sys_cache.o
 .text          0x00000000        0x0 build/FreeRTOS/production/_ext/1005353002/sys_command.o
 .data          0x00000000        0x0 build/FreeRTOS/production/_ext/1005353002/sys_command.o
 .bss           0x00000000        0x0 build/FreeRTOS/production/_ext/1005353002/sys_command.o
 .text.SYS_CMD_READY_TO_READ
                0x00000000        0x4 build/FreeRTOS/production/_ext/1005353002/sys_command.o
 .text.SYS_CMD_MESSAGE
                0x00000000        0xc build/FreeRTOS/production/_ext/1005353002/sys_command.o
 .text.SYS_CMD_PRINT
                0x00000000       0x80 build/FreeRTOS/production/_ext/1005353002/sys_command.o
 .text.SYS_CMDIO_GET_HANDLE
                0x00000000       0x20 build/FreeRTOS/production/_ext/1005353002/sys_command.o
 .text.SYS_CMD_DELETE
                0x00000000       0x64 build/FreeRTOS/production/_ext/1005353002/sys_command.o
 .text          0x00000000        0x0 build/FreeRTOS/production/_ext/548640822/sys_console_uart.o
 .data          0x00000000        0x0 build/FreeRTOS/production/_ext/548640822/sys_console_uart.o
 .bss           0x00000000        0x0 build/FreeRTOS/production/_ext/548640822/sys_console_uart.o
 .text          0x00000000        0x0 build/FreeRTOS/production/_ext/548640822/sys_console.o
 .data          0x00000000        0x0 build/FreeRTOS/production/_ext/548640822/sys_console.o
 .bss           0x00000000        0x0 build/FreeRTOS/production/_ext/548640822/sys_console.o
 .text.SYS_CONSOLE_HandleGet
                0x00000000        0xa build/FreeRTOS/production/_ext/548640822/sys_console.o
 .text.SYS_CONSOLE_DeviceGet
                0x00000000       0x18 build/FreeRTOS/production/_ext/548640822/sys_console.o
 .text.SYS_CONSOLE_Tasks
                0x00000000       0x28 build/FreeRTOS/production/_ext/548640822/sys_console.o
 .text.SYS_CONSOLE_ReadFreeBufferCountGet
                0x00000000       0x34 build/FreeRTOS/production/_ext/548640822/sys_console.o
 .text.SYS_CONSOLE_WriteFreeBufferCountGet
                0x00000000       0x34 build/FreeRTOS/production/_ext/548640822/sys_console.o
 .text.SYS_CONSOLE_WriteCountGet
                0x00000000       0x34 build/FreeRTOS/production/_ext/548640822/sys_console.o
 .text.SYS_CONSOLE_Flush
                0x00000000       0x2c build/FreeRTOS/production/_ext/548640822/sys_console.o
 .text          0x00000000        0x0 build/FreeRTOS/production/_ext/147610190/sys_debug.o
 .data          0x00000000        0x0 build/FreeRTOS/production/_ext/147610190/sys_debug.o
 .bss           0x00000000        0x0 build/FreeRTOS/production/_ext/147610190/sys_debug.o
 .text.SYS_DEBUG_Status
                0x00000000        0xc build/FreeRTOS/production/_ext/147610190/sys_debug.o
 .text.SYS_DEBUG_ErrorLevelSet
                0x00000000        0xc build/FreeRTOS/production/_ext/147610190/sys_debug.o
 .text.SYS_DEBUG_Redirect
                0x00000000       0x14 build/FreeRTOS/production/_ext/147610190/sys_debug.o
 .text          0x00000000        0x0 build/FreeRTOS/production/_ext/1690414130/sys_int.o
 .data          0x00000000        0x0 build/FreeRTOS/production/_ext/1690414130/sys_int.o
 .bss           0x00000000        0x0 build/FreeRTOS/production/_ext/1690414130/sys_int.o
 .text.SYS_INT_Enable
                0x00000000        0x8 build/FreeRTOS/production/_ext/1690414130/sys_int.o
 .text          0x00000000        0x0 build/FreeRTOS/production/_ext/1093154855/sys_reset.o
 .data          0x00000000        0x0 build/FreeRTOS/production/_ext/1093154855/sys_reset.o
 .bss           0x00000000        0x0 build/FreeRTOS/production/_ext/1093154855/sys_reset.o
 .text          0x00000000        0x0 build/FreeRTOS/production/_ext/832704728/sys_time.o
 .data          0x00000000        0x0 build/FreeRTOS/production/_ext/832704728/sys_time.o
 .bss           0x00000000        0x0 build/FreeRTOS/production/_ext/832704728/sys_time.o
 .text.SYS_TIME_Deinitialize
                0x00000000       0x30 build/FreeRTOS/production/_ext/832704728/sys_time.o
 .text.SYS_TIME_Status
                0x00000000       0x14 build/FreeRTOS/production/_ext/832704728/sys_time.o
 .text.SYS_TIME_CounterSet
                0x00000000       0x20 build/FreeRTOS/production/_ext/832704728/sys_time.o
 .text.SYS_TIME_CountToUS
                0x00000000       0x44 build/FreeRTOS/production/_ext/832704728/sys_time.o
 .text.SYS_TIME_CountToMS
                0x00000000       0x3c build/FreeRTOS/production/_ext/832704728/sys_time.o
 .text.SYS_TIME_USToCount
                0x00000000       0x1c build/FreeRTOS/production/_ext/832704728/sys_time.o
 .text.SYS_TIME_TimerCreate
                0x00000000       0x1c build/FreeRTOS/production/_ext/832704728/sys_time.o
 .text.SYS_TIME_TimerReload
                0x00000000       0x88 build/FreeRTOS/production/_ext/832704728/sys_time.o
 .text.SYS_TIME_TimerStop
                0x00000000       0x3c build/FreeRTOS/production/_ext/832704728/sys_time.o
 .text.SYS_TIME_TimerCounterGet
                0x00000000       0x88 build/FreeRTOS/production/_ext/832704728/sys_time.o
 .text.SYS_TIME_TimerPeriodHasExpired
                0x00000000       0x28 build/FreeRTOS/production/_ext/832704728/sys_time.o
 .text.SYS_TIME_DelayUS
                0x00000000       0x50 build/FreeRTOS/production/_ext/832704728/sys_time.o
 .text.SYS_TIME_DelayMS
                0x00000000       0x50 build/FreeRTOS/production/_ext/832704728/sys_time.o
 .text.SYS_TIME_DelayIsComplete
                0x00000000       0x18 build/FreeRTOS/production/_ext/832704728/sys_time.o
 .text.SYS_TIME_CallbackRegisterUS
                0x00000000       0x58 build/FreeRTOS/production/_ext/832704728/sys_time.o
 .text          0x00000000        0x0 build/FreeRTOS/production/_ext/2072568807/sys_time_h2_adapter.o
 .data          0x00000000        0x0 build/FreeRTOS/production/_ext/2072568807/sys_time_h2_adapter.o
 .bss           0x00000000        0x0 build/FreeRTOS/production/_ext/2072568807/sys_time_h2_adapter.o
 .text          0x00000000        0x0 build/FreeRTOS/production/_ext/2072568807/sys_random_h2_adapter.o
 .data          0x00000000        0x0 build/FreeRTOS/production/_ext/2072568807/sys_random_h2_adapter.o
 .bss           0x00000000        0x0 build/FreeRTOS/production/_ext/2072568807/sys_random_h2_adapter.o
 .text.SYS_RANDOM_CryptoDeinitialize
                0x00000000       0x18 build/FreeRTOS/production/_ext/2072568807/sys_random_h2_adapter.o
 .text.SYS_RANDOM_CryptoByteGet
                0x00000000       0x22 build/FreeRTOS/production/_ext/2072568807/sys_random_h2_adapter.o
 .text          0x00000000        0x0 build/FreeRTOS/production/_ext/161576091/tasks.o
 .data          0x00000000        0x0 build/FreeRTOS/production/_ext/161576091/tasks.o
 .bss           0x00000000        0x0 build/FreeRTOS/production/_ext/161576091/tasks.o
 .text          0x00000000        0x0 build/FreeRTOS/production/_ext/161576091/initialization.o
 .data          0x00000000        0x0 build/FreeRTOS/production/_ext/161576091/initialization.o
 .bss           0x00000000        0x0 build/FreeRTOS/production/_ext/161576091/initialization.o
 .bss.tcpipICMPInitData
                0x00000000        0x4 build/FreeRTOS/production/_ext/161576091/initialization.o
 .rodata.TCPIP_HOSTS_CONFIGURATION_SIZE
                0x00000000        0x4 build/FreeRTOS/production/_ext/161576091/initialization.o
 .rodata.TCPIP_STACK_MODULE_CONFIG_TBL_SIZE
                0x00000000        0x4 build/FreeRTOS/production/_ext/161576091/initialization.o
 .text          0x00000000        0x0 build/FreeRTOS/production/_ext/161576091/interrupts.o
 .data          0x00000000        0x0 build/FreeRTOS/production/_ext/161576091/interrupts.o
 .bss           0x00000000        0x0 build/FreeRTOS/production/_ext/161576091/interrupts.o
 .text          0x00000000        0x0 build/FreeRTOS/production/_ext/161576091/exceptions.o
 .data          0x00000000        0x0 build/FreeRTOS/production/_ext/161576091/exceptions.o
 .bss           0x00000000        0x0 build/FreeRTOS/production/_ext/161576091/exceptions.o
 .text          0x00000000        0x0 build/FreeRTOS/production/_ext/161576091/startup_xc32.o
 .data          0x00000000        0x0 build/FreeRTOS/production/_ext/161576091/startup_xc32.o
 .bss           0x00000000        0x0 build/FreeRTOS/production/_ext/161576091/startup_xc32.o
 .text          0x00000000        0x0 build/FreeRTOS/production/_ext/161576091/libc_syscalls.o
 .data          0x00000000        0x0 build/FreeRTOS/production/_ext/161576091/libc_syscalls.o
 .bss           0x00000000        0x0 build/FreeRTOS/production/_ext/161576091/libc_syscalls.o
 .text          0x00000000        0x0 build/FreeRTOS/production/_ext/161576091/freertos_hooks.o
 .data          0x00000000        0x0 build/FreeRTOS/production/_ext/161576091/freertos_hooks.o
 .bss           0x00000000        0x0 build/FreeRTOS/production/_ext/161576091/freertos_hooks.o
 .text.vApplicationIdleHook
                0x00000000        0x2 build/FreeRTOS/production/_ext/161576091/freertos_hooks.o
 .text.vApplicationTickHook
                0x00000000        0x2 build/FreeRTOS/production/_ext/161576091/freertos_hooks.o
 .text.vAssertCalled
                0x00000000       0x1c build/FreeRTOS/production/_ext/161576091/freertos_hooks.o
 .text          0x00000000        0x0 build/FreeRTOS/production/_ext/246609638/port.o
 .data          0x00000000        0x0 build/FreeRTOS/production/_ext/246609638/port.o
 .bss           0x00000000        0x0 build/FreeRTOS/production/_ext/246609638/port.o
 .text.vPortEndScheduler
                0x00000000        0x2 build/FreeRTOS/production/_ext/246609638/port.o
 .text          0x00000000        0x0 build/FreeRTOS/production/_ext/1665200909/heap_1.o
 .data          0x00000000        0x0 build/FreeRTOS/production/_ext/1665200909/heap_1.o
 .bss           0x00000000        0x0 build/FreeRTOS/production/_ext/1665200909/heap_1.o
 .text.vPortInitialiseBlocks
                0x00000000        0xc build/FreeRTOS/production/_ext/1665200909/heap_1.o
 .text.xPortGetFreeHeapSize
                0x00000000       0x10 build/FreeRTOS/production/_ext/1665200909/heap_1.o
 .text          0x00000000        0x0 build/FreeRTOS/production/_ext/404212886/croutine.o
 .data          0x00000000        0x0 build/FreeRTOS/production/_ext/404212886/croutine.o
 .bss           0x00000000        0x0 build/FreeRTOS/production/_ext/404212886/croutine.o
 .debug_info    0x00000000      0x31a build/FreeRTOS/production/_ext/404212886/croutine.o
 .debug_abbrev  0x00000000       0x1b build/FreeRTOS/production/_ext/404212886/croutine.o
 .debug_aranges
                0x00000000       0x18 build/FreeRTOS/production/_ext/404212886/croutine.o
 .debug_line    0x00000000       0x1d build/FreeRTOS/production/_ext/404212886/croutine.o
 .debug_str     0x00000000        0x0 build/FreeRTOS/production/_ext/404212886/croutine.o
 .comment       0x00000000       0x54 build/FreeRTOS/production/_ext/404212886/croutine.o
 .ARM.attributes
                0x00000000       0x39 build/FreeRTOS/production/_ext/404212886/croutine.o
 .text          0x00000000        0x0 build/FreeRTOS/production/_ext/404212886/list.o
 .data          0x00000000        0x0 build/FreeRTOS/production/_ext/404212886/list.o
 .bss           0x00000000        0x0 build/FreeRTOS/production/_ext/404212886/list.o
 .text          0x00000000        0x0 build/FreeRTOS/production/_ext/404212886/queue.o
 .data          0x00000000        0x0 build/FreeRTOS/production/_ext/404212886/queue.o
 .bss           0x00000000        0x0 build/FreeRTOS/production/_ext/404212886/queue.o
 .text.prvCopyDataFromQueue
                0x00000000       0x24 build/FreeRTOS/production/_ext/404212886/queue.o
 .text.xQueueGenericSendFromISR
                0x00000000       0x70 build/FreeRTOS/production/_ext/404212886/queue.o
 .text.xQueueGiveFromISR
                0x00000000       0x64 build/FreeRTOS/production/_ext/404212886/queue.o
 .text.xQueueReceive
                0x00000000      0x110 build/FreeRTOS/production/_ext/404212886/queue.o
 .text.xQueuePeek
                0x00000000      0x10c build/FreeRTOS/production/_ext/404212886/queue.o
 .text.xQueueReceiveFromISR
                0x00000000       0x72 build/FreeRTOS/production/_ext/404212886/queue.o
 .text.xQueuePeekFromISR
                0x00000000       0x30 build/FreeRTOS/production/_ext/404212886/queue.o
 .text.uxQueueMessagesWaiting
                0x00000000       0x12 build/FreeRTOS/production/_ext/404212886/queue.o
 .text.uxQueueSpacesAvailable
                0x00000000       0x16 build/FreeRTOS/production/_ext/404212886/queue.o
 .text.uxQueueMessagesWaitingFromISR
                0x00000000        0x4 build/FreeRTOS/production/_ext/404212886/queue.o
 .text.xQueueIsQueueEmptyFromISR
                0x00000000        0xa build/FreeRTOS/production/_ext/404212886/queue.o
 .text.xQueueIsQueueFullFromISR
                0x00000000        0xe build/FreeRTOS/production/_ext/404212886/queue.o
 .text          0x00000000        0x0 build/FreeRTOS/production/_ext/404212886/FreeRTOS_tasks.o
 .data          0x00000000        0x0 build/FreeRTOS/production/_ext/404212886/FreeRTOS_tasks.o
 .bss           0x00000000        0x0 build/FreeRTOS/production/_ext/404212886/FreeRTOS_tasks.o
 .text.vTaskDelete
                0x00000000       0xcc build/FreeRTOS/production/_ext/404212886/FreeRTOS_tasks.o
 .text.uxTaskPriorityGet
                0x00000000       0x20 build/FreeRTOS/production/_ext/404212886/FreeRTOS_tasks.o
 .text.uxTaskPriorityGetFromISR
                0x00000000       0x28 build/FreeRTOS/production/_ext/404212886/FreeRTOS_tasks.o
 .text.vTaskPrioritySet
                0x00000000       0xd0 build/FreeRTOS/production/_ext/404212886/FreeRTOS_tasks.o
 .text.vTaskResume
                0x00000000       0x88 build/FreeRTOS/production/_ext/404212886/FreeRTOS_tasks.o
 .text.vTaskEndScheduler
                0x00000000       0x24 build/FreeRTOS/production/_ext/404212886/FreeRTOS_tasks.o
 .text.xTaskGetTickCount
                0x00000000        0xc build/FreeRTOS/production/_ext/404212886/FreeRTOS_tasks.o
 .text.xTaskGetTickCountFromISR
                0x00000000        0xc build/FreeRTOS/production/_ext/404212886/FreeRTOS_tasks.o
 .text.uxTaskGetNumberOfTasks
                0x00000000        0xc build/FreeRTOS/production/_ext/404212886/FreeRTOS_tasks.o
 .text.pcTaskGetName
                0x00000000       0x14 build/FreeRTOS/production/_ext/404212886/FreeRTOS_tasks.o
 .text.vTaskDelayUntil
                0x00000000       0x60 build/FreeRTOS/production/_ext/404212886/FreeRTOS_tasks.o
 .text.xTaskCatchUpTicks
                0x00000000       0x1c build/FreeRTOS/production/_ext/404212886/FreeRTOS_tasks.o
 .text.vTaskSuspend
                0x00000000       0xcc build/FreeRTOS/production/_ext/404212886/FreeRTOS_tasks.o
 .text.vTaskPlaceOnUnorderedEventList
                0x00000000       0x24 build/FreeRTOS/production/_ext/404212886/FreeRTOS_tasks.o
 .text.vTaskRemoveFromUnorderedEventList
                0x00000000       0x58 build/FreeRTOS/production/_ext/404212886/FreeRTOS_tasks.o
 .text.vTaskSetTimeOutState
                0x00000000       0x24 build/FreeRTOS/production/_ext/404212886/FreeRTOS_tasks.o
 .text.xTaskGetCurrentTaskHandle
                0x00000000        0xc build/FreeRTOS/production/_ext/404212886/FreeRTOS_tasks.o
 .text.uxTaskResetEventItemValue
                0x00000000       0x18 build/FreeRTOS/production/_ext/404212886/FreeRTOS_tasks.o
 .text.ulTaskNotifyTake
                0x00000000       0x78 build/FreeRTOS/production/_ext/404212886/FreeRTOS_tasks.o
 .text.xTaskNotifyWait
                0x00000000       0x98 build/FreeRTOS/production/_ext/404212886/FreeRTOS_tasks.o
 .text.xTaskGenericNotify
                0x00000000       0xb4 build/FreeRTOS/production/_ext/404212886/FreeRTOS_tasks.o
 .text.xTaskGenericNotifyFromISR
                0x00000000       0xd4 build/FreeRTOS/production/_ext/404212886/FreeRTOS_tasks.o
 .text.vTaskNotifyGiveFromISR
                0x00000000       0xa0 build/FreeRTOS/production/_ext/404212886/FreeRTOS_tasks.o
 .text.xTaskNotifyStateClear
                0x00000000       0x30 build/FreeRTOS/production/_ext/404212886/FreeRTOS_tasks.o
 .text.ulTaskNotifyValueClear
                0x00000000       0x2c build/FreeRTOS/production/_ext/404212886/FreeRTOS_tasks.o
 .text          0x00000000        0x0 build/FreeRTOS/production/_ext/404212886/timers.o
 .data          0x00000000        0x0 build/FreeRTOS/production/_ext/404212886/timers.o
 .bss           0x00000000        0x0 build/FreeRTOS/production/_ext/404212886/timers.o
 .debug_info    0x00000000      0xec7 build/FreeRTOS/production/_ext/404212886/timers.o
 .debug_abbrev  0x00000000      0x195 build/FreeRTOS/production/_ext/404212886/timers.o
 .debug_aranges
                0x00000000       0x18 build/FreeRTOS/production/_ext/404212886/timers.o
 .debug_line    0x00000000      0x107 build/FreeRTOS/production/_ext/404212886/timers.o
 .debug_str     0x00000000        0xe build/FreeRTOS/production/_ext/404212886/timers.o
 .comment       0x00000000       0x54 build/FreeRTOS/production/_ext/404212886/timers.o
 .ARM.attributes
                0x00000000       0x39 build/FreeRTOS/production/_ext/404212886/timers.o
 .text          0x00000000        0x0 build/FreeRTOS/production/_ext/404212886/event_groups.o
 .data          0x00000000        0x0 build/FreeRTOS/production/_ext/404212886/event_groups.o
 .bss           0x00000000        0x0 build/FreeRTOS/production/_ext/404212886/event_groups.o
 .text.xEventGroupCreate
                0x00000000       0x1a build/FreeRTOS/production/_ext/404212886/event_groups.o
 .text.xEventGroupWaitBits
                0x00000000       0xc0 build/FreeRTOS/production/_ext/404212886/event_groups.o
 .text.xEventGroupClearBits
                0x00000000       0x1a build/FreeRTOS/production/_ext/404212886/event_groups.o
 .text.xEventGroupGetBitsFromISR
                0x00000000       0x1c build/FreeRTOS/production/_ext/404212886/event_groups.o
 .text.xEventGroupSetBits
                0x00000000       0x66 build/FreeRTOS/production/_ext/404212886/event_groups.o
 .text.xEventGroupSync
                0x00000000       0x90 build/FreeRTOS/production/_ext/404212886/event_groups.o
 .text.vEventGroupDelete
                0x00000000       0x2a build/FreeRTOS/production/_ext/404212886/event_groups.o
 .text.vEventGroupSetBitsCallback
                0x00000000        0x8 build/FreeRTOS/production/_ext/404212886/event_groups.o
 .text.vEventGroupClearBitsCallback
                0x00000000        0x8 build/FreeRTOS/production/_ext/404212886/event_groups.o
 .debug_info    0x00000000     0x1b5c build/FreeRTOS/production/_ext/404212886/event_groups.o
 .debug_abbrev  0x00000000      0x401 build/FreeRTOS/production/_ext/404212886/event_groups.o
 .debug_loc     0x00000000      0xac5 build/FreeRTOS/production/_ext/404212886/event_groups.o
 .debug_aranges
                0x00000000       0x60 build/FreeRTOS/production/_ext/404212886/event_groups.o
 .debug_ranges  0x00000000       0x98 build/FreeRTOS/production/_ext/404212886/event_groups.o
 .debug_line    0x00000000      0x6cb build/FreeRTOS/production/_ext/404212886/event_groups.o
 .debug_str     0x00000000      0x1ba build/FreeRTOS/production/_ext/404212886/event_groups.o
 .comment       0x00000000       0x54 build/FreeRTOS/production/_ext/404212886/event_groups.o
 .debug_frame   0x00000000      0x100 build/FreeRTOS/production/_ext/404212886/event_groups.o
 .ARM.attributes
                0x00000000       0x34 build/FreeRTOS/production/_ext/404212886/event_groups.o
 .text          0x00000000        0x0 build/FreeRTOS/production/_ext/404212886/stream_buffer.o
 .data          0x00000000        0x0 build/FreeRTOS/production/_ext/404212886/stream_buffer.o
 .bss           0x00000000        0x0 build/FreeRTOS/production/_ext/404212886/stream_buffer.o
 .text.prvBytesInBuffer
                0x00000000       0x12 build/FreeRTOS/production/_ext/404212886/stream_buffer.o
 .text.prvWriteBytesToBuffer
                0x00000000       0x44 build/FreeRTOS/production/_ext/404212886/stream_buffer.o
 .text.prvReadBytesFromBuffer
                0x00000000       0x50 build/FreeRTOS/production/_ext/404212886/stream_buffer.o
 .text.xStreamBufferGenericCreate
                0x00000000       0x38 build/FreeRTOS/production/_ext/404212886/stream_buffer.o
 .text.vStreamBufferDelete
                0x00000000       0x1a build/FreeRTOS/production/_ext/404212886/stream_buffer.o
 .text.xStreamBufferReset
                0x00000000       0x44 build/FreeRTOS/production/_ext/404212886/stream_buffer.o
 .text.xStreamBufferSetTriggerLevel
                0x00000000       0x14 build/FreeRTOS/production/_ext/404212886/stream_buffer.o
 .text.xStreamBufferSpacesAvailable
                0x00000000       0x14 build/FreeRTOS/production/_ext/404212886/stream_buffer.o
 .text.xStreamBufferBytesAvailable
                0x00000000        0x8 build/FreeRTOS/production/_ext/404212886/stream_buffer.o
 .text.xStreamBufferSend
                0x00000000       0xde build/FreeRTOS/production/_ext/404212886/stream_buffer.o
 .text.xStreamBufferSendFromISR
                0x00000000       0x98 build/FreeRTOS/production/_ext/404212886/stream_buffer.o
 .text.xStreamBufferReceive
                0x00000000       0xbe build/FreeRTOS/production/_ext/404212886/stream_buffer.o
 .text.xStreamBufferNextMessageLengthBytes
                0x00000000       0x36 build/FreeRTOS/production/_ext/404212886/stream_buffer.o
 .text.xStreamBufferReceiveFromISR
                0x00000000       0x98 build/FreeRTOS/production/_ext/404212886/stream_buffer.o
 .text.xStreamBufferIsEmpty
                0x00000000        0xe build/FreeRTOS/production/_ext/404212886/stream_buffer.o
 .text.xStreamBufferIsFull
                0x00000000       0x18 build/FreeRTOS/production/_ext/404212886/stream_buffer.o
 .text.xStreamBufferSendCompletedFromISR
                0x00000000       0x3e build/FreeRTOS/production/_ext/404212886/stream_buffer.o
 .text.xStreamBufferReceiveCompletedFromISR
                0x00000000       0x3e build/FreeRTOS/production/_ext/404212886/stream_buffer.o
 .debug_info    0x00000000     0x295b build/FreeRTOS/production/_ext/404212886/stream_buffer.o
 .debug_abbrev  0x00000000      0x495 build/FreeRTOS/production/_ext/404212886/stream_buffer.o
 .debug_loc     0x00000000     0x1b36 build/FreeRTOS/production/_ext/404212886/stream_buffer.o
 .debug_aranges
                0x00000000       0xa8 build/FreeRTOS/production/_ext/404212886/stream_buffer.o
 .debug_ranges  0x00000000      0x128 build/FreeRTOS/production/_ext/404212886/stream_buffer.o
 .debug_line    0x00000000      0xbf7 build/FreeRTOS/production/_ext/404212886/stream_buffer.o
 .debug_str     0x00000000      0x242 build/FreeRTOS/production/_ext/404212886/stream_buffer.o
 .comment       0x00000000       0x54 build/FreeRTOS/production/_ext/404212886/stream_buffer.o
 .debug_frame   0x00000000      0x230 build/FreeRTOS/production/_ext/404212886/stream_buffer.o
 .ARM.attributes
                0x00000000       0x34 build/FreeRTOS/production/_ext/404212886/stream_buffer.o
 .text          0x00000000        0x0 build/FreeRTOS/production/_ext/172253694/pic32mz-crypt.o
 .data          0x00000000        0x0 build/FreeRTOS/production/_ext/172253694/pic32mz-crypt.o
 .bss           0x00000000        0x0 build/FreeRTOS/production/_ext/172253694/pic32mz-crypt.o
 .debug_info    0x00000000      0x372 build/FreeRTOS/production/_ext/172253694/pic32mz-crypt.o
 .debug_abbrev  0x00000000       0x44 build/FreeRTOS/production/_ext/172253694/pic32mz-crypt.o
 .debug_aranges
                0x00000000       0x18 build/FreeRTOS/production/_ext/172253694/pic32mz-crypt.o
 .debug_line    0x00000000       0xe8 build/FreeRTOS/production/_ext/172253694/pic32mz-crypt.o
 .debug_str     0x00000000        0x0 build/FreeRTOS/production/_ext/172253694/pic32mz-crypt.o
 .comment       0x00000000       0x54 build/FreeRTOS/production/_ext/172253694/pic32mz-crypt.o
 .ARM.attributes
                0x00000000       0x39 build/FreeRTOS/production/_ext/172253694/pic32mz-crypt.o
 .text          0x00000000        0x0 build/FreeRTOS/production/_ext/172253694/crypt_aes_sam6149.o
 .data          0x00000000        0x0 build/FreeRTOS/production/_ext/172253694/crypt_aes_sam6149.o
 .bss           0x00000000        0x0 build/FreeRTOS/production/_ext/172253694/crypt_aes_sam6149.o
 .debug_info    0x00000000      0x376 build/FreeRTOS/production/_ext/172253694/crypt_aes_sam6149.o
 .debug_abbrev  0x00000000       0x44 build/FreeRTOS/production/_ext/172253694/crypt_aes_sam6149.o
 .debug_aranges
                0x00000000       0x18 build/FreeRTOS/production/_ext/172253694/crypt_aes_sam6149.o
 .debug_line    0x00000000       0xe8 build/FreeRTOS/production/_ext/172253694/crypt_aes_sam6149.o
 .debug_str     0x00000000        0x0 build/FreeRTOS/production/_ext/172253694/crypt_aes_sam6149.o
 .comment       0x00000000       0x54 build/FreeRTOS/production/_ext/172253694/crypt_aes_sam6149.o
 .ARM.attributes
                0x00000000       0x39 build/FreeRTOS/production/_ext/172253694/crypt_aes_sam6149.o
 .text          0x00000000        0x0 build/FreeRTOS/production/_ext/172253694/crypt_aes_u2238.o
 .data          0x00000000        0x0 build/FreeRTOS/production/_ext/172253694/crypt_aes_u2238.o
 .bss           0x00000000        0x0 build/FreeRTOS/production/_ext/172253694/crypt_aes_u2238.o
 .debug_info    0x00000000      0x374 build/FreeRTOS/production/_ext/172253694/crypt_aes_u2238.o
 .debug_abbrev  0x00000000       0x44 build/FreeRTOS/production/_ext/172253694/crypt_aes_u2238.o
 .debug_aranges
                0x00000000       0x18 build/FreeRTOS/production/_ext/172253694/crypt_aes_u2238.o
 .debug_line    0x00000000       0xe8 build/FreeRTOS/production/_ext/172253694/crypt_aes_u2238.o
 .debug_str     0x00000000        0x0 build/FreeRTOS/production/_ext/172253694/crypt_aes_u2238.o
 .comment       0x00000000       0x54 build/FreeRTOS/production/_ext/172253694/crypt_aes_u2238.o
 .ARM.attributes
                0x00000000       0x39 build/FreeRTOS/production/_ext/172253694/crypt_aes_u2238.o
 .text          0x00000000        0x0 build/FreeRTOS/production/_ext/172253694/crypt_ecc_ba414e.o
 .data          0x00000000        0x0 build/FreeRTOS/production/_ext/172253694/crypt_ecc_ba414e.o
 .bss           0x00000000        0x0 build/FreeRTOS/production/_ext/172253694/crypt_ecc_ba414e.o
 .debug_info    0x00000000      0x375 build/FreeRTOS/production/_ext/172253694/crypt_ecc_ba414e.o
 .debug_abbrev  0x00000000       0x44 build/FreeRTOS/production/_ext/172253694/crypt_ecc_ba414e.o
 .debug_aranges
                0x00000000       0x18 build/FreeRTOS/production/_ext/172253694/crypt_ecc_ba414e.o
 .debug_line    0x00000000       0xe8 build/FreeRTOS/production/_ext/172253694/crypt_ecc_ba414e.o
 .debug_str     0x00000000        0x0 build/FreeRTOS/production/_ext/172253694/crypt_ecc_ba414e.o
 .comment       0x00000000       0x54 build/FreeRTOS/production/_ext/172253694/crypt_ecc_ba414e.o
 .ARM.attributes
                0x00000000       0x39 build/FreeRTOS/production/_ext/172253694/crypt_ecc_ba414e.o
 .text          0x00000000        0x0 build/FreeRTOS/production/_ext/172253694/crypt_ecc_pukcl.o
 .data          0x00000000        0x0 build/FreeRTOS/production/_ext/172253694/crypt_ecc_pukcl.o
 .bss           0x00000000        0x0 build/FreeRTOS/production/_ext/172253694/crypt_ecc_pukcl.o
 .debug_info    0x00000000     0x35ad build/FreeRTOS/production/_ext/172253694/crypt_ecc_pukcl.o
 .debug_abbrev  0x00000000      0x1d8 build/FreeRTOS/production/_ext/172253694/crypt_ecc_pukcl.o
 .debug_aranges
                0x00000000       0x18 build/FreeRTOS/production/_ext/172253694/crypt_ecc_pukcl.o
 .debug_line    0x00000000      0x5a4 build/FreeRTOS/production/_ext/172253694/crypt_ecc_pukcl.o
 .debug_str     0x00000000      0x219 build/FreeRTOS/production/_ext/172253694/crypt_ecc_pukcl.o
 .comment       0x00000000       0x54 build/FreeRTOS/production/_ext/172253694/crypt_ecc_pukcl.o
 .ARM.attributes
                0x00000000       0x39 build/FreeRTOS/production/_ext/172253694/crypt_ecc_pukcl.o
 .text          0x00000000        0x0 build/FreeRTOS/production/_ext/172253694/crypt_pukcl_functions.o
 .data          0x00000000        0x0 build/FreeRTOS/production/_ext/172253694/crypt_pukcl_functions.o
 .bss           0x00000000        0x0 build/FreeRTOS/production/_ext/172253694/crypt_pukcl_functions.o
 .text.crypt_pukcl_SelfTest
                0x00000000       0x88 build/FreeRTOS/production/_ext/172253694/crypt_pukcl_functions.o
 .text.SecureCopy
                0x00000000       0x4e build/FreeRTOS/production/_ext/172253694/crypt_pukcl_functions.o
 .bss.PUKCLParam
                0x00000000       0x30 build/FreeRTOS/production/_ext/172253694/crypt_pukcl_functions.o
 .bss.SelfTestState
                0x00000000        0x1 build/FreeRTOS/production/_ext/172253694/crypt_pukcl_functions.o
 .bss.pvPUKCLParam
                0x00000000        0x4 build/FreeRTOS/production/_ext/172253694/crypt_pukcl_functions.o
 .debug_info    0x00000000     0x3561 build/FreeRTOS/production/_ext/172253694/crypt_pukcl_functions.o
 .debug_abbrev  0x00000000      0x278 build/FreeRTOS/production/_ext/172253694/crypt_pukcl_functions.o
 .debug_loc     0x00000000      0x223 build/FreeRTOS/production/_ext/172253694/crypt_pukcl_functions.o
 .debug_aranges
                0x00000000       0x28 build/FreeRTOS/production/_ext/172253694/crypt_pukcl_functions.o
 .debug_ranges  0x00000000       0x18 build/FreeRTOS/production/_ext/172253694/crypt_pukcl_functions.o
 .debug_line    0x00000000      0x607 build/FreeRTOS/production/_ext/172253694/crypt_pukcl_functions.o
 .debug_str     0x00000000      0x20c build/FreeRTOS/production/_ext/172253694/crypt_pukcl_functions.o
 .comment       0x00000000       0x54 build/FreeRTOS/production/_ext/172253694/crypt_pukcl_functions.o
 .debug_frame   0x00000000       0x4c build/FreeRTOS/production/_ext/172253694/crypt_pukcl_functions.o
 .ARM.attributes
                0x00000000       0x34 build/FreeRTOS/production/_ext/172253694/crypt_pukcl_functions.o
 .text          0x00000000        0x0 build/FreeRTOS/production/_ext/172253694/crypt_rng_sam6334.o
 .data          0x00000000        0x0 build/FreeRTOS/production/_ext/172253694/crypt_rng_sam6334.o
 .bss           0x00000000        0x0 build/FreeRTOS/production/_ext/172253694/crypt_rng_sam6334.o
 .debug_info    0x00000000      0x376 build/FreeRTOS/production/_ext/172253694/crypt_rng_sam6334.o
 .debug_abbrev  0x00000000       0x44 build/FreeRTOS/production/_ext/172253694/crypt_rng_sam6334.o
 .debug_aranges
                0x00000000       0x18 build/FreeRTOS/production/_ext/172253694/crypt_rng_sam6334.o
 .debug_line    0x00000000       0xe8 build/FreeRTOS/production/_ext/172253694/crypt_rng_sam6334.o
 .debug_str     0x00000000        0x0 build/FreeRTOS/production/_ext/172253694/crypt_rng_sam6334.o
 .comment       0x00000000       0x54 build/FreeRTOS/production/_ext/172253694/crypt_rng_sam6334.o
 .ARM.attributes
                0x00000000       0x39 build/FreeRTOS/production/_ext/172253694/crypt_rng_sam6334.o
 .text          0x00000000        0x0 build/FreeRTOS/production/_ext/172253694/crypt_rng_u2242.o
 .data          0x00000000        0x0 build/FreeRTOS/production/_ext/172253694/crypt_rng_u2242.o
 .bss           0x00000000        0x0 build/FreeRTOS/production/_ext/172253694/crypt_rng_u2242.o
 .debug_info    0x00000000      0x374 build/FreeRTOS/production/_ext/172253694/crypt_rng_u2242.o
 .debug_abbrev  0x00000000       0x44 build/FreeRTOS/production/_ext/172253694/crypt_rng_u2242.o
 .debug_aranges
                0x00000000       0x18 build/FreeRTOS/production/_ext/172253694/crypt_rng_u2242.o
 .debug_line    0x00000000       0xe8 build/FreeRTOS/production/_ext/172253694/crypt_rng_u2242.o
 .debug_str     0x00000000        0x0 build/FreeRTOS/production/_ext/172253694/crypt_rng_u2242.o
 .comment       0x00000000       0x54 build/FreeRTOS/production/_ext/172253694/crypt_rng_u2242.o
 .ARM.attributes
                0x00000000       0x39 build/FreeRTOS/production/_ext/172253694/crypt_rng_u2242.o
 .text          0x00000000        0x0 build/FreeRTOS/production/_ext/172253694/crypt_rsa_pukcl.o
 .data          0x00000000        0x0 build/FreeRTOS/production/_ext/172253694/crypt_rsa_pukcl.o
 .bss           0x00000000        0x0 build/FreeRTOS/production/_ext/172253694/crypt_rsa_pukcl.o
 .debug_info    0x00000000     0x358c build/FreeRTOS/production/_ext/172253694/crypt_rsa_pukcl.o
 .debug_abbrev  0x00000000      0x1d8 build/FreeRTOS/production/_ext/172253694/crypt_rsa_pukcl.o
 .debug_aranges
                0x00000000       0x18 build/FreeRTOS/production/_ext/172253694/crypt_rsa_pukcl.o
 .debug_line    0x00000000      0x59b build/FreeRTOS/production/_ext/172253694/crypt_rsa_pukcl.o
 .debug_str     0x00000000      0x219 build/FreeRTOS/production/_ext/172253694/crypt_rsa_pukcl.o
 .comment       0x00000000       0x54 build/FreeRTOS/production/_ext/172253694/crypt_rsa_pukcl.o
 .ARM.attributes
                0x00000000       0x39 build/FreeRTOS/production/_ext/172253694/crypt_rsa_pukcl.o
 .text          0x00000000        0x0 build/FreeRTOS/production/_ext/172253694/crypt_sam_u2803.o
 .data          0x00000000        0x0 build/FreeRTOS/production/_ext/172253694/crypt_sam_u2803.o
 .bss           0x00000000        0x0 build/FreeRTOS/production/_ext/172253694/crypt_sam_u2803.o
 .debug_info    0x00000000      0x374 build/FreeRTOS/production/_ext/172253694/crypt_sam_u2803.o
 .debug_abbrev  0x00000000       0x44 build/FreeRTOS/production/_ext/172253694/crypt_sam_u2803.o
 .debug_aranges
                0x00000000       0x18 build/FreeRTOS/production/_ext/172253694/crypt_sam_u2803.o
 .debug_line    0x00000000       0xe8 build/FreeRTOS/production/_ext/172253694/crypt_sam_u2803.o
 .debug_str     0x00000000        0x0 build/FreeRTOS/production/_ext/172253694/crypt_sam_u2803.o
 .comment       0x00000000       0x54 build/FreeRTOS/production/_ext/172253694/crypt_sam_u2803.o
 .ARM.attributes
                0x00000000       0x39 build/FreeRTOS/production/_ext/172253694/crypt_sam_u2803.o
 .text          0x00000000        0x0 build/FreeRTOS/production/_ext/172253694/crypt_sha1_sam11105.o
 .data          0x00000000        0x0 build/FreeRTOS/production/_ext/172253694/crypt_sha1_sam11105.o
 .bss           0x00000000        0x0 build/FreeRTOS/production/_ext/172253694/crypt_sha1_sam11105.o
 .debug_info    0x00000000      0x378 build/FreeRTOS/production/_ext/172253694/crypt_sha1_sam11105.o
 .debug_abbrev  0x00000000       0x44 build/FreeRTOS/production/_ext/172253694/crypt_sha1_sam11105.o
 .debug_aranges
                0x00000000       0x18 build/FreeRTOS/production/_ext/172253694/crypt_sha1_sam11105.o
 .debug_line    0x00000000       0xe8 build/FreeRTOS/production/_ext/172253694/crypt_sha1_sam11105.o
 .debug_str     0x00000000        0x0 build/FreeRTOS/production/_ext/172253694/crypt_sha1_sam11105.o
 .comment       0x00000000       0x54 build/FreeRTOS/production/_ext/172253694/crypt_sha1_sam11105.o
 .ARM.attributes
                0x00000000       0x39 build/FreeRTOS/production/_ext/172253694/crypt_sha1_sam11105.o
 .text          0x00000000        0x0 build/FreeRTOS/production/_ext/172253694/crypt_sha1_sam6156.o
 .data          0x00000000        0x0 build/FreeRTOS/production/_ext/172253694/crypt_sha1_sam6156.o
 .bss           0x00000000        0x0 build/FreeRTOS/production/_ext/172253694/crypt_sha1_sam6156.o
 .debug_info    0x00000000      0x377 build/FreeRTOS/production/_ext/172253694/crypt_sha1_sam6156.o
 .debug_abbrev  0x00000000       0x44 build/FreeRTOS/production/_ext/172253694/crypt_sha1_sam6156.o
 .debug_aranges
                0x00000000       0x18 build/FreeRTOS/production/_ext/172253694/crypt_sha1_sam6156.o
 .debug_line    0x00000000       0xe8 build/FreeRTOS/production/_ext/172253694/crypt_sha1_sam6156.o
 .debug_str     0x00000000        0x0 build/FreeRTOS/production/_ext/172253694/crypt_sha1_sam6156.o
 .comment       0x00000000       0x54 build/FreeRTOS/production/_ext/172253694/crypt_sha1_sam6156.o
 .ARM.attributes
                0x00000000       0x39 build/FreeRTOS/production/_ext/172253694/crypt_sha1_sam6156.o
 .text          0x00000000        0x0 build/FreeRTOS/production/_ext/172253694/crypt_sha224_sam11105.o
 .data          0x00000000        0x0 build/FreeRTOS/production/_ext/172253694/crypt_sha224_sam11105.o
 .bss           0x00000000        0x0 build/FreeRTOS/production/_ext/172253694/crypt_sha224_sam11105.o
 .debug_info    0x00000000      0x37a build/FreeRTOS/production/_ext/172253694/crypt_sha224_sam11105.o
 .debug_abbrev  0x00000000       0x44 build/FreeRTOS/production/_ext/172253694/crypt_sha224_sam11105.o
 .debug_aranges
                0x00000000       0x18 build/FreeRTOS/production/_ext/172253694/crypt_sha224_sam11105.o
 .debug_line    0x00000000       0xe8 build/FreeRTOS/production/_ext/172253694/crypt_sha224_sam11105.o
 .debug_str     0x00000000        0x0 build/FreeRTOS/production/_ext/172253694/crypt_sha224_sam11105.o
 .comment       0x00000000       0x54 build/FreeRTOS/production/_ext/172253694/crypt_sha224_sam11105.o
 .ARM.attributes
                0x00000000       0x39 build/FreeRTOS/production/_ext/172253694/crypt_sha224_sam11105.o
 .text          0x00000000        0x0 build/FreeRTOS/production/_ext/172253694/crypt_sha224_sam6156.o
 .data          0x00000000        0x0 build/FreeRTOS/production/_ext/172253694/crypt_sha224_sam6156.o
 .bss           0x00000000        0x0 build/FreeRTOS/production/_ext/172253694/crypt_sha224_sam6156.o
 .debug_info    0x00000000      0x379 build/FreeRTOS/production/_ext/172253694/crypt_sha224_sam6156.o
 .debug_abbrev  0x00000000       0x44 build/FreeRTOS/production/_ext/172253694/crypt_sha224_sam6156.o
 .debug_aranges
                0x00000000       0x18 build/FreeRTOS/production/_ext/172253694/crypt_sha224_sam6156.o
 .debug_line    0x00000000       0xe8 build/FreeRTOS/production/_ext/172253694/crypt_sha224_sam6156.o
 .debug_str     0x00000000        0x0 build/FreeRTOS/production/_ext/172253694/crypt_sha224_sam6156.o
 .comment       0x00000000       0x54 build/FreeRTOS/production/_ext/172253694/crypt_sha224_sam6156.o
 .ARM.attributes
                0x00000000       0x39 build/FreeRTOS/production/_ext/172253694/crypt_sha224_sam6156.o
 .text          0x00000000        0x0 build/FreeRTOS/production/_ext/172253694/crypt_sha256_sam11105.o
 .data          0x00000000        0x0 build/FreeRTOS/production/_ext/172253694/crypt_sha256_sam11105.o
 .bss           0x00000000        0x0 build/FreeRTOS/production/_ext/172253694/crypt_sha256_sam11105.o
 .debug_info    0x00000000      0x37a build/FreeRTOS/production/_ext/172253694/crypt_sha256_sam11105.o
 .debug_abbrev  0x00000000       0x44 build/FreeRTOS/production/_ext/172253694/crypt_sha256_sam11105.o
 .debug_aranges
                0x00000000       0x18 build/FreeRTOS/production/_ext/172253694/crypt_sha256_sam11105.o
 .debug_line    0x00000000       0xe8 build/FreeRTOS/production/_ext/172253694/crypt_sha256_sam11105.o
 .debug_str     0x00000000        0x0 build/FreeRTOS/production/_ext/172253694/crypt_sha256_sam11105.o
 .comment       0x00000000       0x54 build/FreeRTOS/production/_ext/172253694/crypt_sha256_sam11105.o
 .ARM.attributes
                0x00000000       0x39 build/FreeRTOS/production/_ext/172253694/crypt_sha256_sam11105.o
 .text          0x00000000        0x0 build/FreeRTOS/production/_ext/172253694/crypt_sha256_sam6156.o
 .data          0x00000000        0x0 build/FreeRTOS/production/_ext/172253694/crypt_sha256_sam6156.o
 .bss           0x00000000        0x0 build/FreeRTOS/production/_ext/172253694/crypt_sha256_sam6156.o
 .debug_info    0x00000000      0x379 build/FreeRTOS/production/_ext/172253694/crypt_sha256_sam6156.o
 .debug_abbrev  0x00000000       0x44 build/FreeRTOS/production/_ext/172253694/crypt_sha256_sam6156.o
 .debug_aranges
                0x00000000       0x18 build/FreeRTOS/production/_ext/172253694/crypt_sha256_sam6156.o
 .debug_line    0x00000000       0xe8 build/FreeRTOS/production/_ext/172253694/crypt_sha256_sam6156.o
 .debug_str     0x00000000        0x0 build/FreeRTOS/production/_ext/172253694/crypt_sha256_sam6156.o
 .comment       0x00000000       0x54 build/FreeRTOS/production/_ext/172253694/crypt_sha256_sam6156.o
 .ARM.attributes
                0x00000000       0x39 build/FreeRTOS/production/_ext/172253694/crypt_sha256_sam6156.o
 .text          0x00000000        0x0 build/FreeRTOS/production/_ext/172253694/crypt_sha384_sam6156.o
 .data          0x00000000        0x0 build/FreeRTOS/production/_ext/172253694/crypt_sha384_sam6156.o
 .bss           0x00000000        0x0 build/FreeRTOS/production/_ext/172253694/crypt_sha384_sam6156.o
 .debug_info    0x00000000      0x379 build/FreeRTOS/production/_ext/172253694/crypt_sha384_sam6156.o
 .debug_abbrev  0x00000000       0x44 build/FreeRTOS/production/_ext/172253694/crypt_sha384_sam6156.o
 .debug_aranges
                0x00000000       0x18 build/FreeRTOS/production/_ext/172253694/crypt_sha384_sam6156.o
 .debug_line    0x00000000       0xe8 build/FreeRTOS/production/_ext/172253694/crypt_sha384_sam6156.o
 .debug_str     0x00000000        0x0 build/FreeRTOS/production/_ext/172253694/crypt_sha384_sam6156.o
 .comment       0x00000000       0x54 build/FreeRTOS/production/_ext/172253694/crypt_sha384_sam6156.o
 .ARM.attributes
                0x00000000       0x39 build/FreeRTOS/production/_ext/172253694/crypt_sha384_sam6156.o
 .text          0x00000000        0x0 build/FreeRTOS/production/_ext/172253694/crypt_sha512_sam6156.o
 .data          0x00000000        0x0 build/FreeRTOS/production/_ext/172253694/crypt_sha512_sam6156.o
 .bss           0x00000000        0x0 build/FreeRTOS/production/_ext/172253694/crypt_sha512_sam6156.o
 .debug_info    0x00000000      0x379 build/FreeRTOS/production/_ext/172253694/crypt_sha512_sam6156.o
 .debug_abbrev  0x00000000       0x44 build/FreeRTOS/production/_ext/172253694/crypt_sha512_sam6156.o
 .debug_aranges
                0x00000000       0x18 build/FreeRTOS/production/_ext/172253694/crypt_sha512_sam6156.o
 .debug_line    0x00000000       0xe8 build/FreeRTOS/production/_ext/172253694/crypt_sha512_sam6156.o
 .debug_str     0x00000000        0x0 build/FreeRTOS/production/_ext/172253694/crypt_sha512_sam6156.o
 .comment       0x00000000       0x54 build/FreeRTOS/production/_ext/172253694/crypt_sha512_sam6156.o
 .ARM.attributes
                0x00000000       0x39 build/FreeRTOS/production/_ext/172253694/crypt_sha512_sam6156.o
 .text          0x00000000        0x0 build/FreeRTOS/production/_ext/172253694/crypt_tdes_sam6150.o
 .data          0x00000000        0x0 build/FreeRTOS/production/_ext/172253694/crypt_tdes_sam6150.o
 .bss           0x00000000        0x0 build/FreeRTOS/production/_ext/172253694/crypt_tdes_sam6150.o
 .debug_info    0x00000000      0x377 build/FreeRTOS/production/_ext/172253694/crypt_tdes_sam6150.o
 .debug_abbrev  0x00000000       0x44 build/FreeRTOS/production/_ext/172253694/crypt_tdes_sam6150.o
 .debug_aranges
                0x00000000       0x18 build/FreeRTOS/production/_ext/172253694/crypt_tdes_sam6150.o
 .debug_line    0x00000000       0xe8 build/FreeRTOS/production/_ext/172253694/crypt_tdes_sam6150.o
 .debug_str     0x00000000        0x0 build/FreeRTOS/production/_ext/172253694/crypt_tdes_sam6150.o
 .comment       0x00000000       0x54 build/FreeRTOS/production/_ext/172253694/crypt_tdes_sam6150.o
 .ARM.attributes
                0x00000000       0x39 build/FreeRTOS/production/_ext/172253694/crypt_tdes_sam6150.o
 .text          0x00000000        0x0 build/FreeRTOS/production/_ext/172253694/crypt_wolfcryptcb.o
 .data          0x00000000        0x0 build/FreeRTOS/production/_ext/172253694/crypt_wolfcryptcb.o
 .bss           0x00000000        0x0 build/FreeRTOS/production/_ext/172253694/crypt_wolfcryptcb.o
 .text          0x00000000        0x0 build/FreeRTOS/production/_ext/1664057780/arc4.o
 .data          0x00000000        0x0 build/FreeRTOS/production/_ext/1664057780/arc4.o
 .bss           0x00000000        0x0 build/FreeRTOS/production/_ext/1664057780/arc4.o
 .debug_info    0x00000000      0x35e build/FreeRTOS/production/_ext/1664057780/arc4.o
 .debug_abbrev  0x00000000       0x44 build/FreeRTOS/production/_ext/1664057780/arc4.o
 .debug_aranges
                0x00000000       0x18 build/FreeRTOS/production/_ext/1664057780/arc4.o
 .debug_line    0x00000000       0xe8 build/FreeRTOS/production/_ext/1664057780/arc4.o
 .debug_str     0x00000000        0x0 build/FreeRTOS/production/_ext/1664057780/arc4.o
 .comment       0x00000000       0x54 build/FreeRTOS/production/_ext/1664057780/arc4.o
 .ARM.attributes
                0x00000000       0x39 build/FreeRTOS/production/_ext/1664057780/arc4.o
 .text          0x00000000        0x0 build/FreeRTOS/production/_ext/1664057780/asm.o
 .data          0x00000000        0x0 build/FreeRTOS/production/_ext/1664057780/asm.o
 .bss           0x00000000        0x0 build/FreeRTOS/production/_ext/1664057780/asm.o
 .debug_info    0x00000000      0x35d build/FreeRTOS/production/_ext/1664057780/asm.o
 .debug_abbrev  0x00000000       0x44 build/FreeRTOS/production/_ext/1664057780/asm.o
 .debug_aranges
                0x00000000       0x18 build/FreeRTOS/production/_ext/1664057780/asm.o
 .debug_line    0x00000000       0xe8 build/FreeRTOS/production/_ext/1664057780/asm.o
 .debug_str     0x00000000        0x0 build/FreeRTOS/production/_ext/1664057780/asm.o
 .comment       0x00000000       0x54 build/FreeRTOS/production/_ext/1664057780/asm.o
 .ARM.attributes
                0x00000000       0x39 build/FreeRTOS/production/_ext/1664057780/asm.o
 .text          0x00000000        0x0 build/FreeRTOS/production/_ext/1664057780/asn.o
 .data          0x00000000        0x0 build/FreeRTOS/production/_ext/1664057780/asn.o
 .bss           0x00000000        0x0 build/FreeRTOS/production/_ext/1664057780/asn.o
 .text.GetBoolean
                0x00000000       0x3a build/FreeRTOS/production/_ext/1664057780/asn.o
 .text.MatchBaseName
                0x00000000      0x10c build/FreeRTOS/production/_ext/1664057780/asn.o
 .text.trim_leading_zeros
                0x00000000       0x42 build/FreeRTOS/production/_ext/1664057780/asn.o
 .text.CheckCurve
                0x00000000       0x28 build/FreeRTOS/production/_ext/1664057780/asn.o
 .text.OurPasswordCb
                0x00000000       0x22 build/FreeRTOS/production/_ext/1664057780/asn.o
 .text.GetLength_ex
                0x00000000       0x7a build/FreeRTOS/production/_ext/1664057780/asn.o
 .text.GetLength
                0x00000000       0x10 build/FreeRTOS/production/_ext/1664057780/asn.o
 .text.GetDateInfo
                0x00000000       0x8e build/FreeRTOS/production/_ext/1664057780/asn.o
 .text.GetASNTag
                0x00000000       0x36 build/FreeRTOS/production/_ext/1664057780/asn.o
 .text.GetASNHeader_ex
                0x00000000       0x58 build/FreeRTOS/production/_ext/1664057780/asn.o
 .text.GetASNInt
                0x00000000       0x6c build/FreeRTOS/production/_ext/1664057780/asn.o
 .text.GetSequence
                0x00000000       0x18 build/FreeRTOS/production/_ext/1664057780/asn.o
 .text.GetSequence_ex
                0x00000000       0x18 build/FreeRTOS/production/_ext/1664057780/asn.o
 .text.GetSet   0x00000000       0x18 build/FreeRTOS/production/_ext/1664057780/asn.o
 .text.GetSet_ex
                0x00000000       0x18 build/FreeRTOS/production/_ext/1664057780/asn.o
 .text.GetOctetString
                0x00000000       0x18 build/FreeRTOS/production/_ext/1664057780/asn.o
 .text.GetSigName
                0x00000000       0x7c build/FreeRTOS/production/_ext/1664057780/asn.o
 .text.GetMyVersion
                0x00000000       0x58 build/FreeRTOS/production/_ext/1664057780/asn.o
 .text.GetInt   0x00000000       0x56 build/FreeRTOS/production/_ext/1664057780/asn.o
 .text.CheckBitString
                0x00000000       0xbe build/FreeRTOS/production/_ext/1664057780/asn.o
 .text.OidFromId
                0x00000000      0x630 build/FreeRTOS/production/_ext/1664057780/asn.o
 .text.GetASNObjectId
                0x00000000       0x68 build/FreeRTOS/production/_ext/1664057780/asn.o
 .text.SkipObjectId
                0x00000000       0x26 build/FreeRTOS/production/_ext/1664057780/asn.o
 .text.GetObjectId
                0x00000000       0x94 build/FreeRTOS/production/_ext/1664057780/asn.o
 .text.GetAlgoId
                0x00000000       0x9c build/FreeRTOS/production/_ext/1664057780/asn.o
 .text.wc_RsaPrivateKeyDecode
                0x00000000      0x11a build/FreeRTOS/production/_ext/1664057780/asn.o
 .text.ToTraditionalInline_ex
                0x00000000       0xc2 build/FreeRTOS/production/_ext/1664057780/asn.o
 .text.ToTraditionalInline
                0x00000000       0x10 build/FreeRTOS/production/_ext/1664057780/asn.o
 .text.ToTraditional_ex
                0x00000000       0x40 build/FreeRTOS/production/_ext/1664057780/asn.o
 .text.ToTraditional
                0x00000000       0x10 build/FreeRTOS/production/_ext/1664057780/asn.o
 .text.wc_GetPkcs8TraditionalOffset
                0x00000000       0x30 build/FreeRTOS/production/_ext/1664057780/asn.o
 .text.wc_RsaPublicKeyDecode_ex
                0x00000000      0x17a build/FreeRTOS/production/_ext/1664057780/asn.o
 .text.wc_RsaPublicKeyDecodeRaw
                0x00000000       0x92 build/FreeRTOS/production/_ext/1664057780/asn.o
 .text.wc_RsaPublicKeyDecode
                0x00000000       0x48 build/FreeRTOS/production/_ext/1664057780/asn.o
 .text.FreeAltNames
                0x00000000       0x22 build/FreeRTOS/production/_ext/1664057780/asn.o
 .text.FreeNameSubtrees
                0x00000000       0x22 build/FreeRTOS/production/_ext/1664057780/asn.o
 .text.CalcHashId
                0x00000000        0x8 build/FreeRTOS/production/_ext/1664057780/asn.o
 .text.GetName  0x00000000      0x404 build/FreeRTOS/production/_ext/1664057780/asn.o
 .text.ExtractDate
                0x00000000      0x200 build/FreeRTOS/production/_ext/1664057780/asn.o
 .text.DateGreaterThan
                0x00000000       0x92 build/FreeRTOS/production/_ext/1664057780/asn.o
 .text.wc_ValidateDate
                0x00000000       0xfa build/FreeRTOS/production/_ext/1664057780/asn.o
 .text.GetDate  0x00000000       0xaa build/FreeRTOS/production/_ext/1664057780/asn.o
 .text.wc_GetTime
                0x00000000       0x22 build/FreeRTOS/production/_ext/1664057780/asn.o
 .text.wc_GetDateInfo
                0x00000000       0x1c build/FreeRTOS/production/_ext/1664057780/asn.o
 .text.wc_GetDateAsCalendarTime
                0x00000000       0x22 build/FreeRTOS/production/_ext/1664057780/asn.o
 .text.SetLength
                0x00000000       0x7a build/FreeRTOS/production/_ext/1664057780/asn.o
 .text.SetASNInt
                0x00000000       0x44 build/FreeRTOS/production/_ext/1664057780/asn.o
 .text.SetASNIntMP
                0x00000000       0x8a build/FreeRTOS/production/_ext/1664057780/asn.o
 .text.SetBitString
                0x00000000       0x28 build/FreeRTOS/production/_ext/1664057780/asn.o
 .text.SetObjectId
                0x00000000       0x16 build/FreeRTOS/production/_ext/1664057780/asn.o
 .text.SetCurve
                0x00000000       0x32 build/FreeRTOS/production/_ext/1664057780/asn.o
 .text.SetSequence
                0x00000000       0x16 build/FreeRTOS/production/_ext/1664057780/asn.o
 .text.SetOctetString
                0x00000000       0x10 build/FreeRTOS/production/_ext/1664057780/asn.o
 .text.SetSet   0x00000000       0x10 build/FreeRTOS/production/_ext/1664057780/asn.o
 .text.SetImplicit
                0x00000000       0x24 build/FreeRTOS/production/_ext/1664057780/asn.o
 .text.SetExplicit
                0x00000000       0x18 build/FreeRTOS/production/_ext/1664057780/asn.o
 .text.SetAlgoID
                0x00000000      0x108 build/FreeRTOS/production/_ext/1664057780/asn.o
 .text.SetEccPublicKey
                0x00000000       0xa0 build/FreeRTOS/production/_ext/1664057780/asn.o
 .text.wc_EncodeSignature
                0x00000000       0x66 build/FreeRTOS/production/_ext/1664057780/asn.o
 .text.wc_GetCTC_HashOID
                0x00000000       0x10 build/FreeRTOS/production/_ext/1664057780/asn.o
 .text.InitSignatureCtx
                0x00000000       0x1c build/FreeRTOS/production/_ext/1664057780/asn.o
 .text.InitDecodedCert
                0x00000000       0x4a build/FreeRTOS/production/_ext/1664057780/asn.o
 .text.FreeSignatureCtx
                0x00000000       0x5c build/FreeRTOS/production/_ext/1664057780/asn.o
 .text.FreeDecodedCert
                0x00000000       0x7e build/FreeRTOS/production/_ext/1664057780/asn.o
 .text.GetCA    0x00000000        0x2 build/FreeRTOS/production/_ext/1664057780/asn.o
 .text.GetCAByName
                0x00000000        0x2 build/FreeRTOS/production/_ext/1664057780/asn.o
 .text.MakeSigner
                0x00000000       0x18 build/FreeRTOS/production/_ext/1664057780/asn.o
 .text.FreeSigner
                0x00000000       0x32 build/FreeRTOS/production/_ext/1664057780/asn.o
 .text.FreeSignerTable
                0x00000000       0x3e build/FreeRTOS/production/_ext/1664057780/asn.o
 .text.SetMyVersion
                0x00000000       0x28 build/FreeRTOS/production/_ext/1664057780/asn.o
 .text.wc_CreatePKCS8Key
                0x00000000      0x146 build/FreeRTOS/production/_ext/1664057780/asn.o
 .text.wc_BuildEccKeyDer
                0x00000000      0x1da build/FreeRTOS/production/_ext/1664057780/asn.o
 .text.eccToPKCS8
                0x00000000      0x104 build/FreeRTOS/production/_ext/1664057780/asn.o
 .text.SetSerialNumber
                0x00000000       0x9c build/FreeRTOS/production/_ext/1664057780/asn.o
 .text.GetSerialNumber
                0x00000000       0x64 build/FreeRTOS/production/_ext/1664057780/asn.o
 .text.wc_GetPubX509
                0x00000000      0x16e build/FreeRTOS/production/_ext/1664057780/asn.o
 .text.DecodeToKey
                0x00000000      0x1cc build/FreeRTOS/production/_ext/1664057780/asn.o
 .text.AllocDer
                0x00000000       0x88 build/FreeRTOS/production/_ext/1664057780/asn.o
 .text.FreeDer  0x00000000       0x38 build/FreeRTOS/production/_ext/1664057780/asn.o
 .text.wc_AllocDer
                0x00000000        0x8 build/FreeRTOS/production/_ext/1664057780/asn.o
 .text.wc_FreeDer
                0x00000000        0x8 build/FreeRTOS/production/_ext/1664057780/asn.o
 .text.wc_PemGetHeaderFooter
                0x00000000       0xf0 build/FreeRTOS/production/_ext/1664057780/asn.o
 .text.PemToDer
                0x00000000      0x1d8 build/FreeRTOS/production/_ext/1664057780/asn.o
 .text.wc_PemToDer
                0x00000000       0x18 build/FreeRTOS/production/_ext/1664057780/asn.o
 .text.wc_KeyPemToDer
                0x00000000       0x8c build/FreeRTOS/production/_ext/1664057780/asn.o
 .text.wc_CertPemToDer
                0x00000000       0x7a build/FreeRTOS/production/_ext/1664057780/asn.o
 .text.wc_EccPublicKeyToDer
                0x00000000       0x56 build/FreeRTOS/production/_ext/1664057780/asn.o
 .text.wc_EccPublicKeyDerSize
                0x00000000        0xe build/FreeRTOS/production/_ext/1664057780/asn.o
 .text.StoreECC_DSA_Sig
                0x00000000       0x7a build/FreeRTOS/production/_ext/1664057780/asn.o
 .text.StoreECC_DSA_Sig_Bin
                0x00000000       0xe8 build/FreeRTOS/production/_ext/1664057780/asn.o
 .text.DecodeECC_DSA_Sig_Bin
                0x00000000       0x9a build/FreeRTOS/production/_ext/1664057780/asn.o
 .text.DecodeECC_DSA_Sig
                0x00000000       0x70 build/FreeRTOS/production/_ext/1664057780/asn.o
 .text.wc_EccPrivateKeyDecode
                0x00000000      0x1a0 build/FreeRTOS/production/_ext/1664057780/asn.o
 .text.wc_CheckPrivateKey
                0x00000000      0x18c build/FreeRTOS/production/_ext/1664057780/asn.o
 .text.wc_CheckPrivateKeyCert
                0x00000000       0x26 build/FreeRTOS/production/_ext/1664057780/asn.o
 .text.wc_EccPublicKeyDecode
                0x00000000      0x1f4 build/FreeRTOS/production/_ext/1664057780/asn.o
 .text.ConfirmSignature
                0x00000000      0x35e build/FreeRTOS/production/_ext/1664057780/asn.o
 .text.ParseCertRelative
                0x00000000     0x1176 build/FreeRTOS/production/_ext/1664057780/asn.o
 .text.ParseCert
                0x00000000       0x7e build/FreeRTOS/production/_ext/1664057780/asn.o
 .text.wc_EccKeyToDer
                0x00000000        0xa build/FreeRTOS/production/_ext/1664057780/asn.o
 .text.wc_EccPrivateKeyToDer
                0x00000000        0xa build/FreeRTOS/production/_ext/1664057780/asn.o
 .text.wc_EccPrivateKeyToPKCS8
                0x00000000        0xa build/FreeRTOS/production/_ext/1664057780/asn.o
 .text.wc_EccKeyToPKCS8
                0x00000000        0xa build/FreeRTOS/production/_ext/1664057780/asn.o
 .text.GetNameHash
                0x00000000       0x7c build/FreeRTOS/production/_ext/1664057780/asn.o
 .rodata        0x00000000      0x244 build/FreeRTOS/production/_ext/1664057780/asn.o
 .rodata.BEGIN_CERT
                0x00000000        0x4 build/FreeRTOS/production/_ext/1664057780/asn.o
 .rodata.BEGIN_DSA_PRIV
                0x00000000        0x4 build/FreeRTOS/production/_ext/1664057780/asn.o
 .rodata.BEGIN_EC_PRIV
                0x00000000        0x4 build/FreeRTOS/production/_ext/1664057780/asn.o
 .rodata.BEGIN_ENC_PRIV_KEY
                0x00000000        0x4 build/FreeRTOS/production/_ext/1664057780/asn.o
 .rodata.BEGIN_PRIV_KEY
                0x00000000        0x4 build/FreeRTOS/production/_ext/1664057780/asn.o
 .rodata.BEGIN_PUB_KEY
                0x00000000        0x4 build/FreeRTOS/production/_ext/1664057780/asn.o
 .rodata.BEGIN_RSA_PRIV
                0x00000000        0x4 build/FreeRTOS/production/_ext/1664057780/asn.o
 .rodata.BEGIN_X509_CRL
                0x00000000        0x4 build/FreeRTOS/production/_ext/1664057780/asn.o
 .rodata.END_CERT
                0x00000000        0x4 build/FreeRTOS/production/_ext/1664057780/asn.o
 .rodata.END_DSA_PRIV
                0x00000000        0x4 build/FreeRTOS/production/_ext/1664057780/asn.o
 .rodata.END_EC_PRIV
                0x00000000        0x4 build/FreeRTOS/production/_ext/1664057780/asn.o
 .rodata.END_ENC_PRIV_KEY
                0x00000000        0x4 build/FreeRTOS/production/_ext/1664057780/asn.o
 .rodata.END_PRIV_KEY
                0x00000000        0x4 build/FreeRTOS/production/_ext/1664057780/asn.o
 .rodata.END_PUB_KEY
                0x00000000        0x4 build/FreeRTOS/production/_ext/1664057780/asn.o
 .rodata.END_RSA_PRIV
                0x00000000        0x4 build/FreeRTOS/production/_ext/1664057780/asn.o
 .rodata.END_X509_CRL
                0x00000000        0x4 build/FreeRTOS/production/_ext/1664057780/asn.o
 .rodata.blkAes128CbcOid
                0x00000000        0xc build/FreeRTOS/production/_ext/1664057780/asn.o
 .rodata.blkAes128CcmOid
                0x00000000        0xc build/FreeRTOS/production/_ext/1664057780/asn.o
 .rodata.blkAes128GcmOid
                0x00000000        0xc build/FreeRTOS/production/_ext/1664057780/asn.o
 .rodata.blkAes192CbcOid
                0x00000000        0xc build/FreeRTOS/production/_ext/1664057780/asn.o
 .rodata.blkAes192CcmOid
                0x00000000        0xc build/FreeRTOS/production/_ext/1664057780/asn.o
 .rodata.blkAes192GcmOid
                0x00000000        0xc build/FreeRTOS/production/_ext/1664057780/asn.o
 .rodata.blkAes256CbcOid
                0x00000000        0xc build/FreeRTOS/production/_ext/1664057780/asn.o
 .rodata.blkAes256CcmOid
                0x00000000        0xc build/FreeRTOS/production/_ext/1664057780/asn.o
 .rodata.blkAes256GcmOid
                0x00000000        0xc build/FreeRTOS/production/_ext/1664057780/asn.o
 .rodata.blkDes3CbcOid
                0x00000000        0x8 build/FreeRTOS/production/_ext/1664057780/asn.o
 .rodata.blkDesCbcOid
                0x00000000        0x8 build/FreeRTOS/production/_ext/1664057780/asn.o
 .rodata.dhSinglePass_stdDH_sha1kdf_Oid
                0x00000000        0xc build/FreeRTOS/production/_ext/1664057780/asn.o
 .rodata.dhSinglePass_stdDH_sha224kdf_Oid
                0x00000000        0x8 build/FreeRTOS/production/_ext/1664057780/asn.o
 .rodata.dhSinglePass_stdDH_sha256kdf_Oid
                0x00000000        0x8 build/FreeRTOS/production/_ext/1664057780/asn.o
 .rodata.extAltNamesHwNameOid
                0x00000000        0x8 build/FreeRTOS/production/_ext/1664057780/asn.o
 .rodata.extAltNamesOid
                0x00000000        0x4 build/FreeRTOS/production/_ext/1664057780/asn.o
 .rodata.extAuthInfoCaIssuerOid
                0x00000000        0x8 build/FreeRTOS/production/_ext/1664057780/asn.o
 .rodata.extAuthInfoOid
                0x00000000        0x8 build/FreeRTOS/production/_ext/1664057780/asn.o
 .rodata.extAuthKeyOid
                0x00000000        0x4 build/FreeRTOS/production/_ext/1664057780/asn.o
 .rodata.extBasicCaOid
                0x00000000        0x4 build/FreeRTOS/production/_ext/1664057780/asn.o
 .rodata.extCertPolicyAnyOid
                0x00000000        0x4 build/FreeRTOS/production/_ext/1664057780/asn.o
 .rodata.extCertPolicyOid
                0x00000000        0x4 build/FreeRTOS/production/_ext/1664057780/asn.o
 .rodata.extCrlDistOid
                0x00000000        0x4 build/FreeRTOS/production/_ext/1664057780/asn.o
 .rodata.extExtKeyUsageAnyOid
                0x00000000        0x4 build/FreeRTOS/production/_ext/1664057780/asn.o
 .rodata.extExtKeyUsageClientAuthOid
                0x00000000        0x8 build/FreeRTOS/production/_ext/1664057780/asn.o
 .rodata.extExtKeyUsageCodeSigningOid
                0x00000000        0x8 build/FreeRTOS/production/_ext/1664057780/asn.o
 .rodata.extExtKeyUsageEmailProtectOid
                0x00000000        0x8 build/FreeRTOS/production/_ext/1664057780/asn.o
 .rodata.extExtKeyUsageOcspSignOid
                0x00000000        0x8 build/FreeRTOS/production/_ext/1664057780/asn.o
 .rodata.extExtKeyUsageOid
                0x00000000        0x4 build/FreeRTOS/production/_ext/1664057780/asn.o
 .rodata.extExtKeyUsageServerAuthOid
                0x00000000        0x8 build/FreeRTOS/production/_ext/1664057780/asn.o
 .rodata.extExtKeyUsageTimestampOid
                0x00000000        0x8 build/FreeRTOS/production/_ext/1664057780/asn.o
 .rodata.extInhibitAnyOid
                0x00000000        0x4 build/FreeRTOS/production/_ext/1664057780/asn.o
 .rodata.extKeyUsageOid
                0x00000000        0x4 build/FreeRTOS/production/_ext/1664057780/asn.o
 .rodata.extNameConsOid
                0x00000000        0x4 build/FreeRTOS/production/_ext/1664057780/asn.o
 .rodata.extSubjKeyOid
                0x00000000        0x4 build/FreeRTOS/production/_ext/1664057780/asn.o
 .rodata.hashMd5hOid
                0x00000000        0x8 build/FreeRTOS/production/_ext/1664057780/asn.o
 .rodata.hashSha1hOid
                0x00000000        0x8 build/FreeRTOS/production/_ext/1664057780/asn.o
 .rodata.hashSha224hOid
                0x00000000        0xc build/FreeRTOS/production/_ext/1664057780/asn.o
 .rodata.hashSha256hOid
                0x00000000        0xc build/FreeRTOS/production/_ext/1664057780/asn.o
 .rodata.hmacSha224Oid
                0x00000000        0x8 build/FreeRTOS/production/_ext/1664057780/asn.o
 .rodata.hmacSha256Oid
                0x00000000        0x8 build/FreeRTOS/production/_ext/1664057780/asn.o
 .rodata.keyEcdsaOid
                0x00000000        0x8 build/FreeRTOS/production/_ext/1664057780/asn.o
 .rodata.keyRsaOid
                0x00000000        0xc build/FreeRTOS/production/_ext/1664057780/asn.o
 .rodata.pbeSha1Des
                0x00000000        0xc build/FreeRTOS/production/_ext/1664057780/asn.o
 .rodata.pbeSha1Des3
                0x00000000        0xc build/FreeRTOS/production/_ext/1664057780/asn.o
 .rodata.pbes2  0x00000000        0xc build/FreeRTOS/production/_ext/1664057780/asn.o
 .rodata.pbkdf2Oid
                0x00000000        0xc build/FreeRTOS/production/_ext/1664057780/asn.o
 .rodata.pem_struct_min_sz
                0x00000000        0x4 build/FreeRTOS/production/_ext/1664057780/asn.o
 .rodata.sigMd5wRsaName
                0x00000000       0x18 build/FreeRTOS/production/_ext/1664057780/asn.o
 .rodata.sigMd5wRsaOid
                0x00000000        0xc build/FreeRTOS/production/_ext/1664057780/asn.o
 .rodata.sigSha1wEcdsaName
                0x00000000        0xc build/FreeRTOS/production/_ext/1664057780/asn.o
 .rodata.sigSha1wEcdsaOid
                0x00000000        0x8 build/FreeRTOS/production/_ext/1664057780/asn.o
 .rodata.sigSha1wRsaName
                0x00000000       0x18 build/FreeRTOS/production/_ext/1664057780/asn.o
 .rodata.sigSha1wRsaOid
                0x00000000        0xc build/FreeRTOS/production/_ext/1664057780/asn.o
 .rodata.sigSha224wEcdsaName
                0x00000000       0x10 build/FreeRTOS/production/_ext/1664057780/asn.o
 .rodata.sigSha224wEcdsaOid
                0x00000000        0x8 build/FreeRTOS/production/_ext/1664057780/asn.o
 .rodata.sigSha224wRsaName
                0x00000000       0x18 build/FreeRTOS/production/_ext/1664057780/asn.o
 .rodata.sigSha224wRsaOid
                0x00000000        0xc build/FreeRTOS/production/_ext/1664057780/asn.o
 .rodata.sigSha256wEcdsaName
                0x00000000       0x10 build/FreeRTOS/production/_ext/1664057780/asn.o
 .rodata.sigSha256wEcdsaOid
                0x00000000        0x8 build/FreeRTOS/production/_ext/1664057780/asn.o
 .rodata.sigSha256wRsaName
                0x00000000       0x18 build/FreeRTOS/production/_ext/1664057780/asn.o
 .rodata.sigSha256wRsaOid
                0x00000000        0xc build/FreeRTOS/production/_ext/1664057780/asn.o
 .rodata.sigUnknownName
                0x00000000        0x8 build/FreeRTOS/production/_ext/1664057780/asn.o
 .rodata.wrapAes128Oid
                0x00000000        0xc build/FreeRTOS/production/_ext/1664057780/asn.o
 .rodata.wrapAes192Oid
                0x00000000        0xc build/FreeRTOS/production/_ext/1664057780/asn.o
 .rodata.wrapAes256Oid
                0x00000000        0xc build/FreeRTOS/production/_ext/1664057780/asn.o
 .debug_info    0x00000000    0x10a4d build/FreeRTOS/production/_ext/1664057780/asn.o
 .debug_abbrev  0x00000000      0x716 build/FreeRTOS/production/_ext/1664057780/asn.o
 .debug_loc     0x00000000     0xd546 build/FreeRTOS/production/_ext/1664057780/asn.o
 .debug_aranges
                0x00000000      0x358 build/FreeRTOS/production/_ext/1664057780/asn.o
 .debug_ranges  0x00000000      0x9c8 build/FreeRTOS/production/_ext/1664057780/asn.o
 .debug_line    0x00000000     0x5bec build/FreeRTOS/production/_ext/1664057780/asn.o
 .debug_str     0x00000000      0x40f build/FreeRTOS/production/_ext/1664057780/asn.o
 .comment       0x00000000       0x54 build/FreeRTOS/production/_ext/1664057780/asn.o
 .debug_frame   0x00000000      0xe78 build/FreeRTOS/production/_ext/1664057780/asn.o
 .ARM.attributes
                0x00000000       0x34 build/FreeRTOS/production/_ext/1664057780/asn.o
 .text          0x00000000        0x0 build/FreeRTOS/production/_ext/1664057780/blake2b.o
 .data          0x00000000        0x0 build/FreeRTOS/production/_ext/1664057780/blake2b.o
 .bss           0x00000000        0x0 build/FreeRTOS/production/_ext/1664057780/blake2b.o
 .debug_info    0x00000000      0x361 build/FreeRTOS/production/_ext/1664057780/blake2b.o
 .debug_abbrev  0x00000000       0x44 build/FreeRTOS/production/_ext/1664057780/blake2b.o
 .debug_aranges
                0x00000000       0x18 build/FreeRTOS/production/_ext/1664057780/blake2b.o
 .debug_line    0x00000000       0xe8 build/FreeRTOS/production/_ext/1664057780/blake2b.o
 .debug_str     0x00000000        0x0 build/FreeRTOS/production/_ext/1664057780/blake2b.o
 .comment       0x00000000       0x54 build/FreeRTOS/production/_ext/1664057780/blake2b.o
 .ARM.attributes
                0x00000000       0x39 build/FreeRTOS/production/_ext/1664057780/blake2b.o
 .text          0x00000000        0x0 build/FreeRTOS/production/_ext/1664057780/blake2s.o
 .data          0x00000000        0x0 build/FreeRTOS/production/_ext/1664057780/blake2s.o
 .bss           0x00000000        0x0 build/FreeRTOS/production/_ext/1664057780/blake2s.o
 .debug_info    0x00000000      0x361 build/FreeRTOS/production/_ext/1664057780/blake2s.o
 .debug_abbrev  0x00000000       0x44 build/FreeRTOS/production/_ext/1664057780/blake2s.o
 .debug_aranges
                0x00000000       0x18 build/FreeRTOS/production/_ext/1664057780/blake2s.o
 .debug_line    0x00000000       0xe8 build/FreeRTOS/production/_ext/1664057780/blake2s.o
 .debug_str     0x00000000        0x0 build/FreeRTOS/production/_ext/1664057780/blake2s.o
 .comment       0x00000000       0x54 build/FreeRTOS/production/_ext/1664057780/blake2s.o
 .ARM.attributes
                0x00000000       0x39 build/FreeRTOS/production/_ext/1664057780/blake2s.o
 .text          0x00000000        0x0 build/FreeRTOS/production/_ext/1664057780/camellia.o
 .data          0x00000000        0x0 build/FreeRTOS/production/_ext/1664057780/camellia.o
 .bss           0x00000000        0x0 build/FreeRTOS/production/_ext/1664057780/camellia.o
 .debug_info    0x00000000      0x362 build/FreeRTOS/production/_ext/1664057780/camellia.o
 .debug_abbrev  0x00000000       0x44 build/FreeRTOS/production/_ext/1664057780/camellia.o
 .debug_aranges
                0x00000000       0x18 build/FreeRTOS/production/_ext/1664057780/camellia.o
 .debug_line    0x00000000       0xe8 build/FreeRTOS/production/_ext/1664057780/camellia.o
 .debug_str     0x00000000        0x0 build/FreeRTOS/production/_ext/1664057780/camellia.o
 .comment       0x00000000       0x54 build/FreeRTOS/production/_ext/1664057780/camellia.o
 .ARM.attributes
                0x00000000       0x39 build/FreeRTOS/production/_ext/1664057780/camellia.o
 .text          0x00000000        0x0 build/FreeRTOS/production/_ext/1664057780/chacha.o
 .data          0x00000000        0x0 build/FreeRTOS/production/_ext/1664057780/chacha.o
 .bss           0x00000000        0x0 build/FreeRTOS/production/_ext/1664057780/chacha.o
 .debug_info    0x00000000      0x360 build/FreeRTOS/production/_ext/1664057780/chacha.o
 .debug_abbrev  0x00000000       0x44 build/FreeRTOS/production/_ext/1664057780/chacha.o
 .debug_aranges
                0x00000000       0x18 build/FreeRTOS/production/_ext/1664057780/chacha.o
 .debug_line    0x00000000       0xe8 build/FreeRTOS/production/_ext/1664057780/chacha.o
 .debug_str     0x00000000        0x0 build/FreeRTOS/production/_ext/1664057780/chacha.o
 .comment       0x00000000       0x54 build/FreeRTOS/production/_ext/1664057780/chacha.o
 .ARM.attributes
                0x00000000       0x39 build/FreeRTOS/production/_ext/1664057780/chacha.o
 .text          0x00000000        0x0 build/FreeRTOS/production/_ext/1664057780/chacha20_poly1305.o
 .data          0x00000000        0x0 build/FreeRTOS/production/_ext/1664057780/chacha20_poly1305.o
 .bss           0x00000000        0x0 build/FreeRTOS/production/_ext/1664057780/chacha20_poly1305.o
 .debug_info    0x00000000      0x36b build/FreeRTOS/production/_ext/1664057780/chacha20_poly1305.o
 .debug_abbrev  0x00000000       0x44 build/FreeRTOS/production/_ext/1664057780/chacha20_poly1305.o
 .debug_aranges
                0x00000000       0x18 build/FreeRTOS/production/_ext/1664057780/chacha20_poly1305.o
 .debug_line    0x00000000       0xe8 build/FreeRTOS/production/_ext/1664057780/chacha20_poly1305.o
 .debug_str     0x00000000        0x0 build/FreeRTOS/production/_ext/1664057780/chacha20_poly1305.o
 .comment       0x00000000       0x54 build/FreeRTOS/production/_ext/1664057780/chacha20_poly1305.o
 .ARM.attributes
                0x00000000       0x39 build/FreeRTOS/production/_ext/1664057780/chacha20_poly1305.o
 .text          0x00000000        0x0 build/FreeRTOS/production/_ext/1664057780/cmac.o
 .data          0x00000000        0x0 build/FreeRTOS/production/_ext/1664057780/cmac.o
 .bss           0x00000000        0x0 build/FreeRTOS/production/_ext/1664057780/cmac.o
 .debug_info    0x00000000      0x35e build/FreeRTOS/production/_ext/1664057780/cmac.o
 .debug_abbrev  0x00000000       0x44 build/FreeRTOS/production/_ext/1664057780/cmac.o
 .debug_aranges
                0x00000000       0x18 build/FreeRTOS/production/_ext/1664057780/cmac.o
 .debug_line    0x00000000       0xe8 build/FreeRTOS/production/_ext/1664057780/cmac.o
 .debug_str     0x00000000        0x0 build/FreeRTOS/production/_ext/1664057780/cmac.o
 .comment       0x00000000       0x54 build/FreeRTOS/production/_ext/1664057780/cmac.o
 .ARM.attributes
                0x00000000       0x39 build/FreeRTOS/production/_ext/1664057780/cmac.o
 .text          0x00000000        0x0 build/FreeRTOS/production/_ext/1664057780/coding.o
 .data          0x00000000        0x0 build/FreeRTOS/production/_ext/1664057780/coding.o
 .bss           0x00000000        0x0 build/FreeRTOS/production/_ext/1664057780/coding.o
 .text.Base64_Decode
                0x00000000      0x464 build/FreeRTOS/production/_ext/1664057780/coding.o
 .rodata.base64Decode
                0x00000000       0x50 build/FreeRTOS/production/_ext/1664057780/coding.o
 .debug_info    0x00000000     0x289a build/FreeRTOS/production/_ext/1664057780/coding.o
 .debug_abbrev  0x00000000      0x33f build/FreeRTOS/production/_ext/1664057780/coding.o
 .debug_loc     0x00000000     0x1c94 build/FreeRTOS/production/_ext/1664057780/coding.o
 .debug_aranges
                0x00000000       0x20 build/FreeRTOS/production/_ext/1664057780/coding.o
 .debug_ranges  0x00000000      0x1e0 build/FreeRTOS/production/_ext/1664057780/coding.o
 .debug_line    0x00000000      0x7c3 build/FreeRTOS/production/_ext/1664057780/coding.o
 .debug_str     0x00000000        0xe build/FreeRTOS/production/_ext/1664057780/coding.o
 .comment       0x00000000       0x54 build/FreeRTOS/production/_ext/1664057780/coding.o
 .debug_frame   0x00000000       0x40 build/FreeRTOS/production/_ext/1664057780/coding.o
 .ARM.attributes
                0x00000000       0x34 build/FreeRTOS/production/_ext/1664057780/coding.o
 .text          0x00000000        0x0 build/FreeRTOS/production/_ext/1664057780/compress.o
 .data          0x00000000        0x0 build/FreeRTOS/production/_ext/1664057780/compress.o
 .bss           0x00000000        0x0 build/FreeRTOS/production/_ext/1664057780/compress.o
 .debug_info    0x00000000      0x362 build/FreeRTOS/production/_ext/1664057780/compress.o
 .debug_abbrev  0x00000000       0x44 build/FreeRTOS/production/_ext/1664057780/compress.o
 .debug_aranges
                0x00000000       0x18 build/FreeRTOS/production/_ext/1664057780/compress.o
 .debug_line    0x00000000       0xe8 build/FreeRTOS/production/_ext/1664057780/compress.o
 .debug_str     0x00000000        0x0 build/FreeRTOS/production/_ext/1664057780/compress.o
 .comment       0x00000000       0x54 build/FreeRTOS/production/_ext/1664057780/compress.o
 .ARM.attributes
                0x00000000       0x39 build/FreeRTOS/production/_ext/1664057780/compress.o
 .text          0x00000000        0x0 build/FreeRTOS/production/_ext/1664057780/cpuid.o
 .data          0x00000000        0x0 build/FreeRTOS/production/_ext/1664057780/cpuid.o
 .bss           0x00000000        0x0 build/FreeRTOS/production/_ext/1664057780/cpuid.o
 .debug_info    0x00000000      0xf7a build/FreeRTOS/production/_ext/1664057780/cpuid.o
 .debug_abbrev  0x00000000      0x1a1 build/FreeRTOS/production/_ext/1664057780/cpuid.o
 .debug_aranges
                0x00000000       0x18 build/FreeRTOS/production/_ext/1664057780/cpuid.o
 .debug_line    0x00000000      0x1ae build/FreeRTOS/production/_ext/1664057780/cpuid.o
 .debug_str     0x00000000        0xe build/FreeRTOS/production/_ext/1664057780/cpuid.o
 .comment       0x00000000       0x54 build/FreeRTOS/production/_ext/1664057780/cpuid.o
 .ARM.attributes
                0x00000000       0x39 build/FreeRTOS/production/_ext/1664057780/cpuid.o
 .text          0x00000000        0x0 build/FreeRTOS/production/_ext/1664057780/cryptocb.o
 .data          0x00000000        0x0 build/FreeRTOS/production/_ext/1664057780/cryptocb.o
 .bss           0x00000000        0x0 build/FreeRTOS/production/_ext/1664057780/cryptocb.o
 .text.wc_CryptoCb_Init
                0x00000000       0x1c build/FreeRTOS/production/_ext/1664057780/cryptocb.o
 .text.wc_CryptoCb_GetDevIdAtIndex
                0x00000000       0x12 build/FreeRTOS/production/_ext/1664057780/cryptocb.o
 .text.wc_CryptoCb_UnRegisterDevice
                0x00000000       0x16 build/FreeRTOS/production/_ext/1664057780/cryptocb.o
 .text.wc_CryptoCb_Rsa
                0x00000000       0x78 build/FreeRTOS/production/_ext/1664057780/cryptocb.o
 .text.wc_CryptoCb_RsaCheckPrivKey
                0x00000000       0x60 build/FreeRTOS/production/_ext/1664057780/cryptocb.o
 .text.wc_CryptoCb_MakeEccKey
                0x00000000       0x68 build/FreeRTOS/production/_ext/1664057780/cryptocb.o
 .text.wc_CryptoCb_Ecdh
                0x00000000       0x66 build/FreeRTOS/production/_ext/1664057780/cryptocb.o
 .text.wc_CryptoCb_EccSign
                0x00000000       0x72 build/FreeRTOS/production/_ext/1664057780/cryptocb.o
 .text.wc_CryptoCb_EccVerify
                0x00000000       0x72 build/FreeRTOS/production/_ext/1664057780/cryptocb.o
 .text.wc_CryptoCb_EccCheckPrivKey
                0x00000000       0x5e build/FreeRTOS/production/_ext/1664057780/cryptocb.o
 .text.wc_CryptoCb_AesGcmEncrypt
                0x00000000       0x8e build/FreeRTOS/production/_ext/1664057780/cryptocb.o
 .text.wc_CryptoCb_AesGcmDecrypt
                0x00000000       0x8a build/FreeRTOS/production/_ext/1664057780/cryptocb.o
 .text.wc_CryptoCb_AesCbcEncrypt
                0x00000000       0x6e build/FreeRTOS/production/_ext/1664057780/cryptocb.o
 .text.wc_CryptoCb_AesCbcDecrypt
                0x00000000       0x6a build/FreeRTOS/production/_ext/1664057780/cryptocb.o
 .text.wc_CryptoCb_Des3Encrypt
                0x00000000       0x70 build/FreeRTOS/production/_ext/1664057780/cryptocb.o
 .text.wc_CryptoCb_Des3Decrypt
                0x00000000       0x6c build/FreeRTOS/production/_ext/1664057780/cryptocb.o
 .text.wc_CryptoCb_ShaHash
                0x00000000       0x6a build/FreeRTOS/production/_ext/1664057780/cryptocb.o
 .text.wc_CryptoCb_Hmac
                0x00000000       0x68 build/FreeRTOS/production/_ext/1664057780/cryptocb.o
 .text.wc_CryptoCb_RandomSeed
                0x00000000       0x50 build/FreeRTOS/production/_ext/1664057780/cryptocb.o
 .text          0x00000000        0x0 build/FreeRTOS/production/_ext/1664057780/curve25519.o
 .data          0x00000000        0x0 build/FreeRTOS/production/_ext/1664057780/curve25519.o
 .bss           0x00000000        0x0 build/FreeRTOS/production/_ext/1664057780/curve25519.o
 .debug_info    0x00000000      0x364 build/FreeRTOS/production/_ext/1664057780/curve25519.o
 .debug_abbrev  0x00000000       0x44 build/FreeRTOS/production/_ext/1664057780/curve25519.o
 .debug_aranges
                0x00000000       0x18 build/FreeRTOS/production/_ext/1664057780/curve25519.o
 .debug_line    0x00000000       0xe8 build/FreeRTOS/production/_ext/1664057780/curve25519.o
 .debug_str     0x00000000        0x0 build/FreeRTOS/production/_ext/1664057780/curve25519.o
 .comment       0x00000000       0x54 build/FreeRTOS/production/_ext/1664057780/curve25519.o
 .ARM.attributes
                0x00000000       0x39 build/FreeRTOS/production/_ext/1664057780/curve25519.o
 .text          0x00000000        0x0 build/FreeRTOS/production/_ext/1664057780/curve448.o
 .data          0x00000000        0x0 build/FreeRTOS/production/_ext/1664057780/curve448.o
 .bss           0x00000000        0x0 build/FreeRTOS/production/_ext/1664057780/curve448.o
 .debug_info    0x00000000      0x362 build/FreeRTOS/production/_ext/1664057780/curve448.o
 .debug_abbrev  0x00000000       0x44 build/FreeRTOS/production/_ext/1664057780/curve448.o
 .debug_aranges
                0x00000000       0x18 build/FreeRTOS/production/_ext/1664057780/curve448.o
 .debug_line    0x00000000       0xe8 build/FreeRTOS/production/_ext/1664057780/curve448.o
 .debug_str     0x00000000        0x0 build/FreeRTOS/production/_ext/1664057780/curve448.o
 .comment       0x00000000       0x54 build/FreeRTOS/production/_ext/1664057780/curve448.o
 .ARM.attributes
                0x00000000       0x39 build/FreeRTOS/production/_ext/1664057780/curve448.o
 .text          0x00000000        0x0 build/FreeRTOS/production/_ext/1664057780/dh.o
 .data          0x00000000        0x0 build/FreeRTOS/production/_ext/1664057780/dh.o
 .bss           0x00000000        0x0 build/FreeRTOS/production/_ext/1664057780/dh.o
 .debug_info    0x00000000      0x35c build/FreeRTOS/production/_ext/1664057780/dh.o
 .debug_abbrev  0x00000000       0x44 build/FreeRTOS/production/_ext/1664057780/dh.o
 .debug_aranges
                0x00000000       0x18 build/FreeRTOS/production/_ext/1664057780/dh.o
 .debug_line    0x00000000       0xe8 build/FreeRTOS/production/_ext/1664057780/dh.o
 .debug_str     0x00000000        0x0 build/FreeRTOS/production/_ext/1664057780/dh.o
 .comment       0x00000000       0x54 build/FreeRTOS/production/_ext/1664057780/dh.o
 .ARM.attributes
                0x00000000       0x39 build/FreeRTOS/production/_ext/1664057780/dh.o
 .text          0x00000000        0x0 build/FreeRTOS/production/_ext/1664057780/dsa.o
 .data          0x00000000        0x0 build/FreeRTOS/production/_ext/1664057780/dsa.o
 .bss           0x00000000        0x0 build/FreeRTOS/production/_ext/1664057780/dsa.o
 .debug_info    0x00000000      0x35d build/FreeRTOS/production/_ext/1664057780/dsa.o
 .debug_abbrev  0x00000000       0x44 build/FreeRTOS/production/_ext/1664057780/dsa.o
 .debug_aranges
                0x00000000       0x18 build/FreeRTOS/production/_ext/1664057780/dsa.o
 .debug_line    0x00000000       0xe8 build/FreeRTOS/production/_ext/1664057780/dsa.o
 .debug_str     0x00000000        0x0 build/FreeRTOS/production/_ext/1664057780/dsa.o
 .comment       0x00000000       0x54 build/FreeRTOS/production/_ext/1664057780/dsa.o
 .ARM.attributes
                0x00000000       0x39 build/FreeRTOS/production/_ext/1664057780/dsa.o
 .text          0x00000000        0x0 build/FreeRTOS/production/_ext/1664057780/ecc_fp.o
 .data          0x00000000        0x0 build/FreeRTOS/production/_ext/1664057780/ecc_fp.o
 .bss           0x00000000        0x0 build/FreeRTOS/production/_ext/1664057780/ecc_fp.o
 .debug_line    0x00000000        0x0 build/FreeRTOS/production/_ext/1664057780/ecc_fp.o
 .debug_str     0x00000000        0x0 build/FreeRTOS/production/_ext/1664057780/ecc_fp.o
 .comment       0x00000000       0x54 build/FreeRTOS/production/_ext/1664057780/ecc_fp.o
 .ARM.attributes
                0x00000000       0x39 build/FreeRTOS/production/_ext/1664057780/ecc_fp.o
 .text          0x00000000        0x0 build/FreeRTOS/production/_ext/1664057780/ed25519.o
 .data          0x00000000        0x0 build/FreeRTOS/production/_ext/1664057780/ed25519.o
 .bss           0x00000000        0x0 build/FreeRTOS/production/_ext/1664057780/ed25519.o
 .debug_info    0x00000000      0x361 build/FreeRTOS/production/_ext/1664057780/ed25519.o
 .debug_abbrev  0x00000000       0x44 build/FreeRTOS/production/_ext/1664057780/ed25519.o
 .debug_aranges
                0x00000000       0x18 build/FreeRTOS/production/_ext/1664057780/ed25519.o
 .debug_line    0x00000000       0xe8 build/FreeRTOS/production/_ext/1664057780/ed25519.o
 .debug_str     0x00000000        0x0 build/FreeRTOS/production/_ext/1664057780/ed25519.o
 .comment       0x00000000       0x54 build/FreeRTOS/production/_ext/1664057780/ed25519.o
 .ARM.attributes
                0x00000000       0x39 build/FreeRTOS/production/_ext/1664057780/ed25519.o
 .text          0x00000000        0x0 build/FreeRTOS/production/_ext/1664057780/ed448.o
 .data          0x00000000        0x0 build/FreeRTOS/production/_ext/1664057780/ed448.o
 .bss           0x00000000        0x0 build/FreeRTOS/production/_ext/1664057780/ed448.o
 .debug_info    0x00000000      0x35f build/FreeRTOS/production/_ext/1664057780/ed448.o
 .debug_abbrev  0x00000000       0x44 build/FreeRTOS/production/_ext/1664057780/ed448.o
 .debug_aranges
                0x00000000       0x18 build/FreeRTOS/production/_ext/1664057780/ed448.o
 .debug_line    0x00000000       0xe8 build/FreeRTOS/production/_ext/1664057780/ed448.o
 .debug_str     0x00000000        0x0 build/FreeRTOS/production/_ext/1664057780/ed448.o
 .comment       0x00000000       0x54 build/FreeRTOS/production/_ext/1664057780/ed448.o
 .ARM.attributes
                0x00000000       0x39 build/FreeRTOS/production/_ext/1664057780/ed448.o
 .text          0x00000000        0x0 build/FreeRTOS/production/_ext/1664057780/error.o
 .data          0x00000000        0x0 build/FreeRTOS/production/_ext/1664057780/error.o
 .bss           0x00000000        0x0 build/FreeRTOS/production/_ext/1664057780/error.o
 .debug_info    0x00000000      0xf7a build/FreeRTOS/production/_ext/1664057780/error.o
 .debug_abbrev  0x00000000      0x1a1 build/FreeRTOS/production/_ext/1664057780/error.o
 .debug_aranges
                0x00000000       0x18 build/FreeRTOS/production/_ext/1664057780/error.o
 .debug_line    0x00000000      0x1ae build/FreeRTOS/production/_ext/1664057780/error.o
 .debug_str     0x00000000        0xe build/FreeRTOS/production/_ext/1664057780/error.o
 .comment       0x00000000       0x54 build/FreeRTOS/production/_ext/1664057780/error.o
 .ARM.attributes
                0x00000000       0x39 build/FreeRTOS/production/_ext/1664057780/error.o
 .text          0x00000000        0x0 build/FreeRTOS/production/_ext/1664057780/fe_448.o
 .data          0x00000000        0x0 build/FreeRTOS/production/_ext/1664057780/fe_448.o
 .bss           0x00000000        0x0 build/FreeRTOS/production/_ext/1664057780/fe_448.o
 .debug_info    0x00000000      0x360 build/FreeRTOS/production/_ext/1664057780/fe_448.o
 .debug_abbrev  0x00000000       0x44 build/FreeRTOS/production/_ext/1664057780/fe_448.o
 .debug_aranges
                0x00000000       0x18 build/FreeRTOS/production/_ext/1664057780/fe_448.o
 .debug_line    0x00000000       0xe8 build/FreeRTOS/production/_ext/1664057780/fe_448.o
 .debug_str     0x00000000        0x0 build/FreeRTOS/production/_ext/1664057780/fe_448.o
 .comment       0x00000000       0x54 build/FreeRTOS/production/_ext/1664057780/fe_448.o
 .ARM.attributes
                0x00000000       0x39 build/FreeRTOS/production/_ext/1664057780/fe_448.o
 .text          0x00000000        0x0 build/FreeRTOS/production/_ext/1664057780/fe_low_mem.o
 .data          0x00000000        0x0 build/FreeRTOS/production/_ext/1664057780/fe_low_mem.o
 .bss           0x00000000        0x0 build/FreeRTOS/production/_ext/1664057780/fe_low_mem.o
 .debug_info    0x00000000      0x364 build/FreeRTOS/production/_ext/1664057780/fe_low_mem.o
 .debug_abbrev  0x00000000       0x44 build/FreeRTOS/production/_ext/1664057780/fe_low_mem.o
 .debug_aranges
                0x00000000       0x18 build/FreeRTOS/production/_ext/1664057780/fe_low_mem.o
 .debug_line    0x00000000       0xe8 build/FreeRTOS/production/_ext/1664057780/fe_low_mem.o
 .debug_str     0x00000000        0x0 build/FreeRTOS/production/_ext/1664057780/fe_low_mem.o
 .comment       0x00000000       0x54 build/FreeRTOS/production/_ext/1664057780/fe_low_mem.o
 .ARM.attributes
                0x00000000       0x39 build/FreeRTOS/production/_ext/1664057780/fe_low_mem.o
 .text          0x00000000        0x0 build/FreeRTOS/production/_ext/1664057780/fe_operations.o
 .data          0x00000000        0x0 build/FreeRTOS/production/_ext/1664057780/fe_operations.o
 .bss           0x00000000        0x0 build/FreeRTOS/production/_ext/1664057780/fe_operations.o
 .debug_info    0x00000000      0x367 build/FreeRTOS/production/_ext/1664057780/fe_operations.o
 .debug_abbrev  0x00000000       0x44 build/FreeRTOS/production/_ext/1664057780/fe_operations.o
 .debug_aranges
                0x00000000       0x18 build/FreeRTOS/production/_ext/1664057780/fe_operations.o
 .debug_line    0x00000000       0xe8 build/FreeRTOS/production/_ext/1664057780/fe_operations.o
 .debug_str     0x00000000        0x0 build/FreeRTOS/production/_ext/1664057780/fe_operations.o
 .comment       0x00000000       0x54 build/FreeRTOS/production/_ext/1664057780/fe_operations.o
 .ARM.attributes
                0x00000000       0x39 build/FreeRTOS/production/_ext/1664057780/fe_operations.o
 .text          0x00000000        0x0 build/FreeRTOS/production/_ext/1664057780/ge_448.o
 .data          0x00000000        0x0 build/FreeRTOS/production/_ext/1664057780/ge_448.o
 .bss           0x00000000        0x0 build/FreeRTOS/production/_ext/1664057780/ge_448.o
 .debug_info    0x00000000      0x360 build/FreeRTOS/production/_ext/1664057780/ge_448.o
 .debug_abbrev  0x00000000       0x44 build/FreeRTOS/production/_ext/1664057780/ge_448.o
 .debug_aranges
                0x00000000       0x18 build/FreeRTOS/production/_ext/1664057780/ge_448.o
 .debug_line    0x00000000       0xe8 build/FreeRTOS/production/_ext/1664057780/ge_448.o
 .debug_str     0x00000000        0x0 build/FreeRTOS/production/_ext/1664057780/ge_448.o
 .comment       0x00000000       0x54 build/FreeRTOS/production/_ext/1664057780/ge_448.o
 .ARM.attributes
                0x00000000       0x39 build/FreeRTOS/production/_ext/1664057780/ge_448.o
 .text          0x00000000        0x0 build/FreeRTOS/production/_ext/1664057780/ge_low_mem.o
 .data          0x00000000        0x0 build/FreeRTOS/production/_ext/1664057780/ge_low_mem.o
 .bss           0x00000000        0x0 build/FreeRTOS/production/_ext/1664057780/ge_low_mem.o
 .debug_info    0x00000000      0x364 build/FreeRTOS/production/_ext/1664057780/ge_low_mem.o
 .debug_abbrev  0x00000000       0x44 build/FreeRTOS/production/_ext/1664057780/ge_low_mem.o
 .debug_aranges
                0x00000000       0x18 build/FreeRTOS/production/_ext/1664057780/ge_low_mem.o
 .debug_line    0x00000000       0xe8 build/FreeRTOS/production/_ext/1664057780/ge_low_mem.o
 .debug_str     0x00000000        0x0 build/FreeRTOS/production/_ext/1664057780/ge_low_mem.o
 .comment       0x00000000       0x54 build/FreeRTOS/production/_ext/1664057780/ge_low_mem.o
 .ARM.attributes
                0x00000000       0x39 build/FreeRTOS/production/_ext/1664057780/ge_low_mem.o
 .text          0x00000000        0x0 build/FreeRTOS/production/_ext/1664057780/ge_operations.o
 .data          0x00000000        0x0 build/FreeRTOS/production/_ext/1664057780/ge_operations.o
 .bss           0x00000000        0x0 build/FreeRTOS/production/_ext/1664057780/ge_operations.o
 .debug_info    0x00000000      0x367 build/FreeRTOS/production/_ext/1664057780/ge_operations.o
 .debug_abbrev  0x00000000       0x44 build/FreeRTOS/production/_ext/1664057780/ge_operations.o
 .debug_aranges
                0x00000000       0x18 build/FreeRTOS/production/_ext/1664057780/ge_operations.o
 .debug_line    0x00000000       0xe8 build/FreeRTOS/production/_ext/1664057780/ge_operations.o
 .debug_str     0x00000000        0x0 build/FreeRTOS/production/_ext/1664057780/ge_operations.o
 .comment       0x00000000       0x54 build/FreeRTOS/production/_ext/1664057780/ge_operations.o
 .ARM.attributes
                0x00000000       0x39 build/FreeRTOS/production/_ext/1664057780/ge_operations.o
 .text          0x00000000        0x0 build/FreeRTOS/production/_ext/1664057780/hash.o
 .data          0x00000000        0x0 build/FreeRTOS/production/_ext/1664057780/hash.o
 .bss           0x00000000        0x0 build/FreeRTOS/production/_ext/1664057780/hash.o
 .text.wc_HashTypeConvert
                0x00000000        0xc build/FreeRTOS/production/_ext/1664057780/hash.o
 .text.wc_HashGetOID
                0x00000000       0x3a build/FreeRTOS/production/_ext/1664057780/hash.o
 .text.wc_OidGetHash
                0x00000000       0x30 build/FreeRTOS/production/_ext/1664057780/hash.o
 .text.wc_HashGetDigestSize
                0x00000000       0x3a build/FreeRTOS/production/_ext/1664057780/hash.o
 .text.wc_HashGetBlockSize
                0x00000000       0x2e build/FreeRTOS/production/_ext/1664057780/hash.o
 .text.wc_HashInit_ex
                0x00000000       0x56 build/FreeRTOS/production/_ext/1664057780/hash.o
 .text.wc_HashInit
                0x00000000        0xe build/FreeRTOS/production/_ext/1664057780/hash.o
 .text.wc_HashUpdate
                0x00000000       0x66 build/FreeRTOS/production/_ext/1664057780/hash.o
 .text.wc_HashFinal
                0x00000000       0x54 build/FreeRTOS/production/_ext/1664057780/hash.o
 .text.wc_HashFree
                0x00000000       0x4c build/FreeRTOS/production/_ext/1664057780/hash.o
 .text.wc_HashSetFlags
                0x00000000       0x4c build/FreeRTOS/production/_ext/1664057780/hash.o
 .text.wc_HashGetFlags
                0x00000000       0x4c build/FreeRTOS/production/_ext/1664057780/hash.o
 .text.wc_Md5Hash
                0x00000000       0x3c build/FreeRTOS/production/_ext/1664057780/hash.o
 .text.wc_ShaHash
                0x00000000       0x56 build/FreeRTOS/production/_ext/1664057780/hash.o
 .text.wc_Sha224Hash
                0x00000000       0x3c build/FreeRTOS/production/_ext/1664057780/hash.o
 .text.wc_Sha256Hash
                0x00000000       0x56 build/FreeRTOS/production/_ext/1664057780/hash.o
 .text.wc_Hash  0x00000000       0x94 build/FreeRTOS/production/_ext/1664057780/hash.o
 .debug_info    0x00000000     0x3136 build/FreeRTOS/production/_ext/1664057780/hash.o
 .debug_abbrev  0x00000000      0x369 build/FreeRTOS/production/_ext/1664057780/hash.o
 .debug_loc     0x00000000     0x1af2 build/FreeRTOS/production/_ext/1664057780/hash.o
 .debug_aranges
                0x00000000       0xa0 build/FreeRTOS/production/_ext/1664057780/hash.o
 .debug_ranges  0x00000000       0x90 build/FreeRTOS/production/_ext/1664057780/hash.o
 .debug_line    0x00000000      0x891 build/FreeRTOS/production/_ext/1664057780/hash.o
 .debug_str     0x00000000      0x202 build/FreeRTOS/production/_ext/1664057780/hash.o
 .comment       0x00000000       0x54 build/FreeRTOS/production/_ext/1664057780/hash.o
 .debug_frame   0x00000000      0x1e4 build/FreeRTOS/production/_ext/1664057780/hash.o
 .ARM.attributes
                0x00000000       0x34 build/FreeRTOS/production/_ext/1664057780/hash.o
 .text          0x00000000        0x0 build/FreeRTOS/production/_ext/1664057780/hc128.o
 .data          0x00000000        0x0 build/FreeRTOS/production/_ext/1664057780/hc128.o
 .bss           0x00000000        0x0 build/FreeRTOS/production/_ext/1664057780/hc128.o
 .debug_info    0x00000000      0x35f build/FreeRTOS/production/_ext/1664057780/hc128.o
 .debug_abbrev  0x00000000       0x44 build/FreeRTOS/production/_ext/1664057780/hc128.o
 .debug_aranges
                0x00000000       0x18 build/FreeRTOS/production/_ext/1664057780/hc128.o
 .debug_line    0x00000000       0xe8 build/FreeRTOS/production/_ext/1664057780/hc128.o
 .debug_str     0x00000000        0x0 build/FreeRTOS/production/_ext/1664057780/hc128.o
 .comment       0x00000000       0x54 build/FreeRTOS/production/_ext/1664057780/hc128.o
 .ARM.attributes
                0x00000000       0x39 build/FreeRTOS/production/_ext/1664057780/hc128.o
 .text          0x00000000        0x0 build/FreeRTOS/production/_ext/1664057780/hmac.o
 .data          0x00000000        0x0 build/FreeRTOS/production/_ext/1664057780/hmac.o
 .bss           0x00000000        0x0 build/FreeRTOS/production/_ext/1664057780/hmac.o
 .text.HmacKeyInnerHash
                0x00000000       0x50 build/FreeRTOS/production/_ext/1664057780/hmac.o
 .text.wc_HmacSizeByType
                0x00000000       0x30 build/FreeRTOS/production/_ext/1664057780/hmac.o
 .text._InitHmac
                0x00000000       0x36 build/FreeRTOS/production/_ext/1664057780/hmac.o
 .text.wc_HmacUpdate
                0x00000000       0xb0 build/FreeRTOS/production/_ext/1664057780/hmac.o
 .text.wc_HmacFinal
                0x00000000      0x17a build/FreeRTOS/production/_ext/1664057780/hmac.o
 .text.wc_HmacInit
                0x00000000       0x2a build/FreeRTOS/production/_ext/1664057780/hmac.o
 .text.wc_HmacFree
                0x00000000       0x90 build/FreeRTOS/production/_ext/1664057780/hmac.o
 .text.wc_HmacSetKey
                0x00000000      0x190 build/FreeRTOS/production/_ext/1664057780/hmac.o
 .text.wolfSSL_GetHmacMaxSize
                0x00000000        0x4 build/FreeRTOS/production/_ext/1664057780/hmac.o
 .debug_info    0x00000000     0x2ebc build/FreeRTOS/production/_ext/1664057780/hmac.o
 .debug_abbrev  0x00000000      0x3dd build/FreeRTOS/production/_ext/1664057780/hmac.o
 .debug_loc     0x00000000      0xf06 build/FreeRTOS/production/_ext/1664057780/hmac.o
 .debug_aranges
                0x00000000       0x60 build/FreeRTOS/production/_ext/1664057780/hmac.o
 .debug_ranges  0x00000000       0x50 build/FreeRTOS/production/_ext/1664057780/hmac.o
 .debug_line    0x00000000      0x88f build/FreeRTOS/production/_ext/1664057780/hmac.o
 .debug_str     0x00000000      0x137 build/FreeRTOS/production/_ext/1664057780/hmac.o
 .comment       0x00000000       0x54 build/FreeRTOS/production/_ext/1664057780/hmac.o
 .debug_frame   0x00000000      0x134 build/FreeRTOS/production/_ext/1664057780/hmac.o
 .ARM.attributes
                0x00000000       0x34 build/FreeRTOS/production/_ext/1664057780/hmac.o
 .text          0x00000000        0x0 build/FreeRTOS/production/_ext/1664057780/idea.o
 .data          0x00000000        0x0 build/FreeRTOS/production/_ext/1664057780/idea.o
 .bss           0x00000000        0x0 build/FreeRTOS/production/_ext/1664057780/idea.o
 .debug_info    0x00000000      0x35e build/FreeRTOS/production/_ext/1664057780/idea.o
 .debug_abbrev  0x00000000       0x44 build/FreeRTOS/production/_ext/1664057780/idea.o
 .debug_aranges
                0x00000000       0x18 build/FreeRTOS/production/_ext/1664057780/idea.o
 .debug_line    0x00000000       0xe8 build/FreeRTOS/production/_ext/1664057780/idea.o
 .debug_str     0x00000000        0x0 build/FreeRTOS/production/_ext/1664057780/idea.o
 .comment       0x00000000       0x54 build/FreeRTOS/production/_ext/1664057780/idea.o
 .ARM.attributes
                0x00000000       0x39 build/FreeRTOS/production/_ext/1664057780/idea.o
 .text          0x00000000        0x0 build/FreeRTOS/production/_ext/1664057780/integer.o
 .data          0x00000000        0x0 build/FreeRTOS/production/_ext/1664057780/integer.o
 .bss           0x00000000        0x0 build/FreeRTOS/production/_ext/1664057780/integer.o
 .debug_info    0x00000000      0xf7c build/FreeRTOS/production/_ext/1664057780/integer.o
 .debug_abbrev  0x00000000      0x1a1 build/FreeRTOS/production/_ext/1664057780/integer.o
 .debug_aranges
                0x00000000       0x18 build/FreeRTOS/production/_ext/1664057780/integer.o
 .debug_line    0x00000000      0x1ae build/FreeRTOS/production/_ext/1664057780/integer.o
 .debug_str     0x00000000        0xe build/FreeRTOS/production/_ext/1664057780/integer.o
 .comment       0x00000000       0x54 build/FreeRTOS/production/_ext/1664057780/integer.o
 .ARM.attributes
                0x00000000       0x39 build/FreeRTOS/production/_ext/1664057780/integer.o
 .text          0x00000000        0x0 build/FreeRTOS/production/_ext/1664057780/logging.o
 .data          0x00000000        0x0 build/FreeRTOS/production/_ext/1664057780/logging.o
 .bss           0x00000000        0x0 build/FreeRTOS/production/_ext/1664057780/logging.o
 .text.wolfSSL_SetLoggingCb
                0x00000000        0x6 build/FreeRTOS/production/_ext/1664057780/logging.o
 .text.wolfSSL_GetLoggingCb
                0x00000000        0x4 build/FreeRTOS/production/_ext/1664057780/logging.o
 .text.wolfSSL_Debugging_ON
                0x00000000        0x6 build/FreeRTOS/production/_ext/1664057780/logging.o
 .text.wolfSSL_Debugging_OFF
                0x00000000        0x2 build/FreeRTOS/production/_ext/1664057780/logging.o
 .debug_info    0x00000000     0x1b9c build/FreeRTOS/production/_ext/1664057780/logging.o
 .debug_abbrev  0x00000000      0x229 build/FreeRTOS/production/_ext/1664057780/logging.o
 .debug_loc     0x00000000       0x25 build/FreeRTOS/production/_ext/1664057780/logging.o
 .debug_aranges
                0x00000000       0x38 build/FreeRTOS/production/_ext/1664057780/logging.o
 .debug_ranges  0x00000000       0x28 build/FreeRTOS/production/_ext/1664057780/logging.o
 .debug_line    0x00000000      0x297 build/FreeRTOS/production/_ext/1664057780/logging.o
 .debug_str     0x00000000        0xe build/FreeRTOS/production/_ext/1664057780/logging.o
 .comment       0x00000000       0x54 build/FreeRTOS/production/_ext/1664057780/logging.o
 .debug_frame   0x00000000       0x50 build/FreeRTOS/production/_ext/1664057780/logging.o
 .ARM.attributes
                0x00000000       0x34 build/FreeRTOS/production/_ext/1664057780/logging.o
 .text          0x00000000        0x0 build/FreeRTOS/production/_ext/1664057780/md2.o
 .data          0x00000000        0x0 build/FreeRTOS/production/_ext/1664057780/md2.o
 .bss           0x00000000        0x0 build/FreeRTOS/production/_ext/1664057780/md2.o
 .debug_info    0x00000000      0x35d build/FreeRTOS/production/_ext/1664057780/md2.o
 .debug_abbrev  0x00000000       0x44 build/FreeRTOS/production/_ext/1664057780/md2.o
 .debug_aranges
                0x00000000       0x18 build/FreeRTOS/production/_ext/1664057780/md2.o
 .debug_line    0x00000000       0xe8 build/FreeRTOS/production/_ext/1664057780/md2.o
 .debug_str     0x00000000        0x0 build/FreeRTOS/production/_ext/1664057780/md2.o
 .comment       0x00000000       0x54 build/FreeRTOS/production/_ext/1664057780/md2.o
 .ARM.attributes
                0x00000000       0x39 build/FreeRTOS/production/_ext/1664057780/md2.o
 .text          0x00000000        0x0 build/FreeRTOS/production/_ext/1664057780/md4.o
 .data          0x00000000        0x0 build/FreeRTOS/production/_ext/1664057780/md4.o
 .bss           0x00000000        0x0 build/FreeRTOS/production/_ext/1664057780/md4.o
 .debug_info    0x00000000      0x35d build/FreeRTOS/production/_ext/1664057780/md4.o
 .debug_abbrev  0x00000000       0x44 build/FreeRTOS/production/_ext/1664057780/md4.o
 .debug_aranges
                0x00000000       0x18 build/FreeRTOS/production/_ext/1664057780/md4.o
 .debug_line    0x00000000       0xe8 build/FreeRTOS/production/_ext/1664057780/md4.o
 .debug_str     0x00000000        0x0 build/FreeRTOS/production/_ext/1664057780/md4.o
 .comment       0x00000000       0x54 build/FreeRTOS/production/_ext/1664057780/md4.o
 .ARM.attributes
                0x00000000       0x39 build/FreeRTOS/production/_ext/1664057780/md4.o
 .text          0x00000000        0x0 build/FreeRTOS/production/_ext/1664057780/md5.o
 .data          0x00000000        0x0 build/FreeRTOS/production/_ext/1664057780/md5.o
 .bss           0x00000000        0x0 build/FreeRTOS/production/_ext/1664057780/md5.o
 .text.wc_Md5Free
                0x00000000        0x2 build/FreeRTOS/production/_ext/1664057780/md5.o
 .text.wc_Md5Copy
                0x00000000       0x2a build/FreeRTOS/production/_ext/1664057780/md5.o
 .text.wc_Md5GetHash
                0x00000000       0x34 build/FreeRTOS/production/_ext/1664057780/md5.o
 .text.wc_Md5SetFlags
                0x00000000        0x8 build/FreeRTOS/production/_ext/1664057780/md5.o
 .text.wc_Md5GetFlags
                0x00000000        0xc build/FreeRTOS/production/_ext/1664057780/md5.o
 .text          0x00000000        0x0 build/FreeRTOS/production/_ext/1664057780/memory.o
 .data          0x00000000        0x0 build/FreeRTOS/production/_ext/1664057780/memory.o
 .bss           0x00000000        0x0 build/FreeRTOS/production/_ext/1664057780/memory.o
 .debug_info    0x00000000      0x360 build/FreeRTOS/production/_ext/1664057780/memory.o
 .debug_abbrev  0x00000000       0x44 build/FreeRTOS/production/_ext/1664057780/memory.o
 .debug_aranges
                0x00000000       0x18 build/FreeRTOS/production/_ext/1664057780/memory.o
 .debug_line    0x00000000       0xe8 build/FreeRTOS/production/_ext/1664057780/memory.o
 .debug_str     0x00000000        0x0 build/FreeRTOS/production/_ext/1664057780/memory.o
 .comment       0x00000000       0x54 build/FreeRTOS/production/_ext/1664057780/memory.o
 .ARM.attributes
                0x00000000       0x39 build/FreeRTOS/production/_ext/1664057780/memory.o
 .text          0x00000000        0x0 build/FreeRTOS/production/_ext/1664057780/pkcs12.o
 .data          0x00000000        0x0 build/FreeRTOS/production/_ext/1664057780/pkcs12.o
 .bss           0x00000000        0x0 build/FreeRTOS/production/_ext/1664057780/pkcs12.o
 .debug_info    0x00000000      0x360 build/FreeRTOS/production/_ext/1664057780/pkcs12.o
 .debug_abbrev  0x00000000       0x44 build/FreeRTOS/production/_ext/1664057780/pkcs12.o
 .debug_aranges
                0x00000000       0x18 build/FreeRTOS/production/_ext/1664057780/pkcs12.o
 .debug_line    0x00000000       0xe8 build/FreeRTOS/production/_ext/1664057780/pkcs12.o
 .debug_str     0x00000000        0x0 build/FreeRTOS/production/_ext/1664057780/pkcs12.o
 .comment       0x00000000       0x54 build/FreeRTOS/production/_ext/1664057780/pkcs12.o
 .ARM.attributes
                0x00000000       0x39 build/FreeRTOS/production/_ext/1664057780/pkcs12.o
 .text          0x00000000        0x0 build/FreeRTOS/production/_ext/1664057780/pkcs7.o
 .data          0x00000000        0x0 build/FreeRTOS/production/_ext/1664057780/pkcs7.o
 .bss           0x00000000        0x0 build/FreeRTOS/production/_ext/1664057780/pkcs7.o
 .debug_info    0x00000000      0x35f build/FreeRTOS/production/_ext/1664057780/pkcs7.o
 .debug_abbrev  0x00000000       0x44 build/FreeRTOS/production/_ext/1664057780/pkcs7.o
 .debug_aranges
                0x00000000       0x18 build/FreeRTOS/production/_ext/1664057780/pkcs7.o
 .debug_line    0x00000000       0xe8 build/FreeRTOS/production/_ext/1664057780/pkcs7.o
 .debug_str     0x00000000        0x0 build/FreeRTOS/production/_ext/1664057780/pkcs7.o
 .comment       0x00000000       0x54 build/FreeRTOS/production/_ext/1664057780/pkcs7.o
 .ARM.attributes
                0x00000000       0x39 build/FreeRTOS/production/_ext/1664057780/pkcs7.o
 .text          0x00000000        0x0 build/FreeRTOS/production/_ext/1664057780/poly1305.o
 .data          0x00000000        0x0 build/FreeRTOS/production/_ext/1664057780/poly1305.o
 .bss           0x00000000        0x0 build/FreeRTOS/production/_ext/1664057780/poly1305.o
 .debug_info    0x00000000      0x362 build/FreeRTOS/production/_ext/1664057780/poly1305.o
 .debug_abbrev  0x00000000       0x44 build/FreeRTOS/production/_ext/1664057780/poly1305.o
 .debug_aranges
                0x00000000       0x18 build/FreeRTOS/production/_ext/1664057780/poly1305.o
 .debug_line    0x00000000       0xe8 build/FreeRTOS/production/_ext/1664057780/poly1305.o
 .debug_str     0x00000000        0x0 build/FreeRTOS/production/_ext/1664057780/poly1305.o
 .comment       0x00000000       0x54 build/FreeRTOS/production/_ext/1664057780/poly1305.o
 .ARM.attributes
                0x00000000       0x39 build/FreeRTOS/production/_ext/1664057780/poly1305.o
 .text          0x00000000        0x0 build/FreeRTOS/production/_ext/1664057780/pwdbased.o
 .data          0x00000000        0x0 build/FreeRTOS/production/_ext/1664057780/pwdbased.o
 .bss           0x00000000        0x0 build/FreeRTOS/production/_ext/1664057780/pwdbased.o
 .debug_info    0x00000000      0x362 build/FreeRTOS/production/_ext/1664057780/pwdbased.o
 .debug_abbrev  0x00000000       0x44 build/FreeRTOS/production/_ext/1664057780/pwdbased.o
 .debug_aranges
                0x00000000       0x18 build/FreeRTOS/production/_ext/1664057780/pwdbased.o
 .debug_line    0x00000000       0xe8 build/FreeRTOS/production/_ext/1664057780/pwdbased.o
 .debug_str     0x00000000        0x0 build/FreeRTOS/production/_ext/1664057780/pwdbased.o
 .comment       0x00000000       0x54 build/FreeRTOS/production/_ext/1664057780/pwdbased.o
 .ARM.attributes
                0x00000000       0x39 build/FreeRTOS/production/_ext/1664057780/pwdbased.o
 .text          0x00000000        0x0 build/FreeRTOS/production/_ext/1664057780/rabbit.o
 .data          0x00000000        0x0 build/FreeRTOS/production/_ext/1664057780/rabbit.o
 .bss           0x00000000        0x0 build/FreeRTOS/production/_ext/1664057780/rabbit.o
 .debug_info    0x00000000      0x360 build/FreeRTOS/production/_ext/1664057780/rabbit.o
 .debug_abbrev  0x00000000       0x44 build/FreeRTOS/production/_ext/1664057780/rabbit.o
 .debug_aranges
                0x00000000       0x18 build/FreeRTOS/production/_ext/1664057780/rabbit.o
 .debug_line    0x00000000       0xe8 build/FreeRTOS/production/_ext/1664057780/rabbit.o
 .debug_str     0x00000000        0x0 build/FreeRTOS/production/_ext/1664057780/rabbit.o
 .comment       0x00000000       0x54 build/FreeRTOS/production/_ext/1664057780/rabbit.o
 .ARM.attributes
                0x00000000       0x39 build/FreeRTOS/production/_ext/1664057780/rabbit.o
 .text          0x00000000        0x0 build/FreeRTOS/production/_ext/1664057780/rc2.o
 .data          0x00000000        0x0 build/FreeRTOS/production/_ext/1664057780/rc2.o
 .bss           0x00000000        0x0 build/FreeRTOS/production/_ext/1664057780/rc2.o
 .debug_info    0x00000000      0x35d build/FreeRTOS/production/_ext/1664057780/rc2.o
 .debug_abbrev  0x00000000       0x44 build/FreeRTOS/production/_ext/1664057780/rc2.o
 .debug_aranges
                0x00000000       0x18 build/FreeRTOS/production/_ext/1664057780/rc2.o
 .debug_line    0x00000000       0xe8 build/FreeRTOS/production/_ext/1664057780/rc2.o
 .debug_str     0x00000000        0x0 build/FreeRTOS/production/_ext/1664057780/rc2.o
 .comment       0x00000000       0x54 build/FreeRTOS/production/_ext/1664057780/rc2.o
 .ARM.attributes
                0x00000000       0x39 build/FreeRTOS/production/_ext/1664057780/rc2.o
 .text          0x00000000        0x0 build/FreeRTOS/production/_ext/1664057780/ripemd.o
 .data          0x00000000        0x0 build/FreeRTOS/production/_ext/1664057780/ripemd.o
 .bss           0x00000000        0x0 build/FreeRTOS/production/_ext/1664057780/ripemd.o
 .debug_info    0x00000000      0x360 build/FreeRTOS/production/_ext/1664057780/ripemd.o
 .debug_abbrev  0x00000000       0x44 build/FreeRTOS/production/_ext/1664057780/ripemd.o
 .debug_aranges
                0x00000000       0x18 build/FreeRTOS/production/_ext/1664057780/ripemd.o
 .debug_line    0x00000000       0xe8 build/FreeRTOS/production/_ext/1664057780/ripemd.o
 .debug_str     0x00000000        0x0 build/FreeRTOS/production/_ext/1664057780/ripemd.o
 .comment       0x00000000       0x54 build/FreeRTOS/production/_ext/1664057780/ripemd.o
 .ARM.attributes
                0x00000000       0x39 build/FreeRTOS/production/_ext/1664057780/ripemd.o
 .text          0x00000000        0x0 build/FreeRTOS/production/_ext/1664057780/rsa.o
 .data          0x00000000        0x0 build/FreeRTOS/production/_ext/1664057780/rsa.o
 .bss           0x00000000        0x0 build/FreeRTOS/production/_ext/1664057780/rsa.o
 .text.wc_RsaCleanup
                0x00000000       0x66 build/FreeRTOS/production/_ext/1664057780/rsa.o
 .text.RsaMGF1  0x00000000       0xfa build/FreeRTOS/production/_ext/1664057780/rsa.o
 .text.RsaMGF   0x00000000       0x4a build/FreeRTOS/production/_ext/1664057780/rsa.o
 .text.RsaGetValue
                0x00000000       0x2c build/FreeRTOS/production/_ext/1664057780/rsa.o
 .text.wc_InitRsaKey_ex
                0x00000000       0x8c build/FreeRTOS/production/_ext/1664057780/rsa.o
 .text.wc_InitRsaKey
                0x00000000        0xc build/FreeRTOS/production/_ext/1664057780/rsa.o
 .text.wc_InitRsaKey_Id
                0x00000000       0x46 build/FreeRTOS/production/_ext/1664057780/rsa.o
 .text.wc_InitRsaKey_Label
                0x00000000       0x60 build/FreeRTOS/production/_ext/1664057780/rsa.o
 .text.wc_FreeRsaKey
                0x00000000       0x90 build/FreeRTOS/production/_ext/1664057780/rsa.o
 .text.wc_RsaPad_ex
                0x00000000      0x272 build/FreeRTOS/production/_ext/1664057780/rsa.o
 .text.wc_RsaUnPad_ex
                0x00000000      0x272 build/FreeRTOS/production/_ext/1664057780/rsa.o
 .text.wc_hash2mgf
                0x00000000       0x1a build/FreeRTOS/production/_ext/1664057780/rsa.o
 .text.wc_RsaEncryptSize
                0x00000000       0x2c build/FreeRTOS/production/_ext/1664057780/rsa.o
 .text.wc_RsaFunction
                0x00000000      0x2c4 build/FreeRTOS/production/_ext/1664057780/rsa.o
 .text.RsaPrivateDecryptEx
                0x00000000      0x20a build/FreeRTOS/production/_ext/1664057780/rsa.o
 .text.wc_RsaPrivateDecryptInline
                0x00000000       0x2c build/FreeRTOS/production/_ext/1664057780/rsa.o
 .text.wc_RsaPrivateDecryptInline_ex
                0x00000000       0x38 build/FreeRTOS/production/_ext/1664057780/rsa.o
 .text.wc_RsaPrivateDecrypt
                0x00000000       0x2a build/FreeRTOS/production/_ext/1664057780/rsa.o
 .text.wc_RsaPrivateDecrypt_ex
                0x00000000       0x36 build/FreeRTOS/production/_ext/1664057780/rsa.o
 .text.wc_RsaSSL_VerifyInline
                0x00000000       0x2a build/FreeRTOS/production/_ext/1664057780/rsa.o
 .text.wc_RsaSSL_Verify_ex2
                0x00000000       0x54 build/FreeRTOS/production/_ext/1664057780/rsa.o
 .text.wc_RsaSSL_Verify_ex
                0x00000000       0x18 build/FreeRTOS/production/_ext/1664057780/rsa.o
 .text.wc_RsaSSL_Verify
                0x00000000       0x14 build/FreeRTOS/production/_ext/1664057780/rsa.o
 .text.RsaPublicEncryptEx
                0x00000000      0x12a build/FreeRTOS/production/_ext/1664057780/rsa.o
 .text.wc_RsaPublicEncrypt
                0x00000000       0x28 build/FreeRTOS/production/_ext/1664057780/rsa.o
 .text.wc_RsaPublicEncrypt_ex
                0x00000000       0x34 build/FreeRTOS/production/_ext/1664057780/rsa.o
 .text.wc_RsaSSL_Sign
                0x00000000       0x2a build/FreeRTOS/production/_ext/1664057780/rsa.o
 .text.wc_RsaFlattenPublicKey
                0x00000000       0x8a build/FreeRTOS/production/_ext/1664057780/rsa.o
 .text.wc_RsaExportKey
                0x00000000       0xd0 build/FreeRTOS/production/_ext/1664057780/rsa.o
 .debug_info    0x00000000     0x5d08 build/FreeRTOS/production/_ext/1664057780/rsa.o
 .debug_abbrev  0x00000000      0x50e build/FreeRTOS/production/_ext/1664057780/rsa.o
 .debug_loc     0x00000000     0x4c18 build/FreeRTOS/production/_ext/1664057780/rsa.o
 .debug_aranges
                0x00000000      0x100 build/FreeRTOS/production/_ext/1664057780/rsa.o
 .debug_ranges  0x00000000      0x448 build/FreeRTOS/production/_ext/1664057780/rsa.o
 .debug_line    0x00000000     0x15e9 build/FreeRTOS/production/_ext/1664057780/rsa.o
 .debug_str     0x00000000      0x1ad build/FreeRTOS/production/_ext/1664057780/rsa.o
 .comment       0x00000000       0x54 build/FreeRTOS/production/_ext/1664057780/rsa.o
 .debug_frame   0x00000000      0x40c build/FreeRTOS/production/_ext/1664057780/rsa.o
 .ARM.attributes
                0x00000000       0x34 build/FreeRTOS/production/_ext/1664057780/rsa.o
 .text          0x00000000        0x0 build/FreeRTOS/production/_ext/1664057780/sha3.o
 .data          0x00000000        0x0 build/FreeRTOS/production/_ext/1664057780/sha3.o
 .bss           0x00000000        0x0 build/FreeRTOS/production/_ext/1664057780/sha3.o
 .debug_info    0x00000000      0x35e build/FreeRTOS/production/_ext/1664057780/sha3.o
 .debug_abbrev  0x00000000       0x44 build/FreeRTOS/production/_ext/1664057780/sha3.o
 .debug_aranges
                0x00000000       0x18 build/FreeRTOS/production/_ext/1664057780/sha3.o
 .debug_line    0x00000000       0xe8 build/FreeRTOS/production/_ext/1664057780/sha3.o
 .debug_str     0x00000000        0x0 build/FreeRTOS/production/_ext/1664057780/sha3.o
 .comment       0x00000000       0x54 build/FreeRTOS/production/_ext/1664057780/sha3.o
 .ARM.attributes
                0x00000000       0x39 build/FreeRTOS/production/_ext/1664057780/sha3.o
 .text          0x00000000        0x0 build/FreeRTOS/production/_ext/1664057780/signature.o
 .data          0x00000000        0x0 build/FreeRTOS/production/_ext/1664057780/signature.o
 .bss           0x00000000        0x0 build/FreeRTOS/production/_ext/1664057780/signature.o
 .debug_info    0x00000000     0x115f build/FreeRTOS/production/_ext/1664057780/signature.o
 .debug_abbrev  0x00000000      0x1c1 build/FreeRTOS/production/_ext/1664057780/signature.o
 .debug_aranges
                0x00000000       0x18 build/FreeRTOS/production/_ext/1664057780/signature.o
 .debug_line    0x00000000      0x206 build/FreeRTOS/production/_ext/1664057780/signature.o
 .debug_str     0x00000000       0x1b build/FreeRTOS/production/_ext/1664057780/signature.o
 .comment       0x00000000       0x54 build/FreeRTOS/production/_ext/1664057780/signature.o
 .ARM.attributes
                0x00000000       0x39 build/FreeRTOS/production/_ext/1664057780/signature.o
 .text          0x00000000        0x0 build/FreeRTOS/production/_ext/1664057780/sp_arm32.o
 .data          0x00000000        0x0 build/FreeRTOS/production/_ext/1664057780/sp_arm32.o
 .bss           0x00000000        0x0 build/FreeRTOS/production/_ext/1664057780/sp_arm32.o
 .debug_info    0x00000000      0xf7d build/FreeRTOS/production/_ext/1664057780/sp_arm32.o
 .debug_abbrev  0x00000000      0x1a1 build/FreeRTOS/production/_ext/1664057780/sp_arm32.o
 .debug_aranges
                0x00000000       0x18 build/FreeRTOS/production/_ext/1664057780/sp_arm32.o
 .debug_line    0x00000000      0x1ae build/FreeRTOS/production/_ext/1664057780/sp_arm32.o
 .debug_str     0x00000000        0xe build/FreeRTOS/production/_ext/1664057780/sp_arm32.o
 .comment       0x00000000       0x54 build/FreeRTOS/production/_ext/1664057780/sp_arm32.o
 .ARM.attributes
                0x00000000       0x39 build/FreeRTOS/production/_ext/1664057780/sp_arm32.o
 .text          0x00000000        0x0 build/FreeRTOS/production/_ext/1664057780/sp_arm64.o
 .data          0x00000000        0x0 build/FreeRTOS/production/_ext/1664057780/sp_arm64.o
 .bss           0x00000000        0x0 build/FreeRTOS/production/_ext/1664057780/sp_arm64.o
 .debug_info    0x00000000      0xf7d build/FreeRTOS/production/_ext/1664057780/sp_arm64.o
 .debug_abbrev  0x00000000      0x1a1 build/FreeRTOS/production/_ext/1664057780/sp_arm64.o
 .debug_aranges
                0x00000000       0x18 build/FreeRTOS/production/_ext/1664057780/sp_arm64.o
 .debug_line    0x00000000      0x1ae build/FreeRTOS/production/_ext/1664057780/sp_arm64.o
 .debug_str     0x00000000        0xe build/FreeRTOS/production/_ext/1664057780/sp_arm64.o
 .comment       0x00000000       0x54 build/FreeRTOS/production/_ext/1664057780/sp_arm64.o
 .ARM.attributes
                0x00000000       0x39 build/FreeRTOS/production/_ext/1664057780/sp_arm64.o
 .text          0x00000000        0x0 build/FreeRTOS/production/_ext/1664057780/sp_armthumb.o
 .data          0x00000000        0x0 build/FreeRTOS/production/_ext/1664057780/sp_armthumb.o
 .bss           0x00000000        0x0 build/FreeRTOS/production/_ext/1664057780/sp_armthumb.o
 .debug_info    0x00000000      0xf80 build/FreeRTOS/production/_ext/1664057780/sp_armthumb.o
 .debug_abbrev  0x00000000      0x1a1 build/FreeRTOS/production/_ext/1664057780/sp_armthumb.o
 .debug_aranges
                0x00000000       0x18 build/FreeRTOS/production/_ext/1664057780/sp_armthumb.o
 .debug_line    0x00000000      0x1ae build/FreeRTOS/production/_ext/1664057780/sp_armthumb.o
 .debug_str     0x00000000        0xe build/FreeRTOS/production/_ext/1664057780/sp_armthumb.o
 .comment       0x00000000       0x54 build/FreeRTOS/production/_ext/1664057780/sp_armthumb.o
 .ARM.attributes
                0x00000000       0x39 build/FreeRTOS/production/_ext/1664057780/sp_armthumb.o
 .text          0x00000000        0x0 build/FreeRTOS/production/_ext/1664057780/sp_c32.o
 .data          0x00000000        0x0 build/FreeRTOS/production/_ext/1664057780/sp_c32.o
 .bss           0x00000000        0x0 build/FreeRTOS/production/_ext/1664057780/sp_c32.o
 .debug_info    0x00000000      0xf7b build/FreeRTOS/production/_ext/1664057780/sp_c32.o
 .debug_abbrev  0x00000000      0x1a1 build/FreeRTOS/production/_ext/1664057780/sp_c32.o
 .debug_aranges
                0x00000000       0x18 build/FreeRTOS/production/_ext/1664057780/sp_c32.o
 .debug_line    0x00000000      0x1ae build/FreeRTOS/production/_ext/1664057780/sp_c32.o
 .debug_str     0x00000000        0xe build/FreeRTOS/production/_ext/1664057780/sp_c32.o
 .comment       0x00000000       0x54 build/FreeRTOS/production/_ext/1664057780/sp_c32.o
 .ARM.attributes
                0x00000000       0x39 build/FreeRTOS/production/_ext/1664057780/sp_c32.o
 .text          0x00000000        0x0 build/FreeRTOS/production/_ext/1664057780/sp_c64.o
 .data          0x00000000        0x0 build/FreeRTOS/production/_ext/1664057780/sp_c64.o
 .bss           0x00000000        0x0 build/FreeRTOS/production/_ext/1664057780/sp_c64.o
 .debug_info    0x00000000      0xf7b build/FreeRTOS/production/_ext/1664057780/sp_c64.o
 .debug_abbrev  0x00000000      0x1a1 build/FreeRTOS/production/_ext/1664057780/sp_c64.o
 .debug_aranges
                0x00000000       0x18 build/FreeRTOS/production/_ext/1664057780/sp_c64.o
 .debug_line    0x00000000      0x1ae build/FreeRTOS/production/_ext/1664057780/sp_c64.o
 .debug_str     0x00000000        0xe build/FreeRTOS/production/_ext/1664057780/sp_c64.o
 .comment       0x00000000       0x54 build/FreeRTOS/production/_ext/1664057780/sp_c64.o
 .ARM.attributes
                0x00000000       0x39 build/FreeRTOS/production/_ext/1664057780/sp_c64.o
 .text          0x00000000        0x0 build/FreeRTOS/production/_ext/1664057780/sp_cortexm.o
 .data          0x00000000        0x0 build/FreeRTOS/production/_ext/1664057780/sp_cortexm.o
 .bss           0x00000000        0x0 build/FreeRTOS/production/_ext/1664057780/sp_cortexm.o
 .debug_info    0x00000000      0xf7f build/FreeRTOS/production/_ext/1664057780/sp_cortexm.o
 .debug_abbrev  0x00000000      0x1a1 build/FreeRTOS/production/_ext/1664057780/sp_cortexm.o
 .debug_aranges
                0x00000000       0x18 build/FreeRTOS/production/_ext/1664057780/sp_cortexm.o
 .debug_line    0x00000000      0x1ae build/FreeRTOS/production/_ext/1664057780/sp_cortexm.o
 .debug_str     0x00000000        0xe build/FreeRTOS/production/_ext/1664057780/sp_cortexm.o
 .comment       0x00000000       0x54 build/FreeRTOS/production/_ext/1664057780/sp_cortexm.o
 .ARM.attributes
                0x00000000       0x39 build/FreeRTOS/production/_ext/1664057780/sp_cortexm.o
 .text          0x00000000        0x0 build/FreeRTOS/production/_ext/1664057780/sp_dsp32.o
 .data          0x00000000        0x0 build/FreeRTOS/production/_ext/1664057780/sp_dsp32.o
 .bss           0x00000000        0x0 build/FreeRTOS/production/_ext/1664057780/sp_dsp32.o
 .debug_info    0x00000000      0xf7d build/FreeRTOS/production/_ext/1664057780/sp_dsp32.o
 .debug_abbrev  0x00000000      0x1a1 build/FreeRTOS/production/_ext/1664057780/sp_dsp32.o
 .debug_aranges
                0x00000000       0x18 build/FreeRTOS/production/_ext/1664057780/sp_dsp32.o
 .debug_line    0x00000000      0x1ae build/FreeRTOS/production/_ext/1664057780/sp_dsp32.o
 .debug_str     0x00000000        0xe build/FreeRTOS/production/_ext/1664057780/sp_dsp32.o
 .comment       0x00000000       0x54 build/FreeRTOS/production/_ext/1664057780/sp_dsp32.o
 .ARM.attributes
                0x00000000       0x39 build/FreeRTOS/production/_ext/1664057780/sp_dsp32.o
 .text          0x00000000        0x0 build/FreeRTOS/production/_ext/1664057780/sp_int.o
 .data          0x00000000        0x0 build/FreeRTOS/production/_ext/1664057780/sp_int.o
 .bss           0x00000000        0x0 build/FreeRTOS/production/_ext/1664057780/sp_int.o
 .debug_info    0x00000000      0xf7b build/FreeRTOS/production/_ext/1664057780/sp_int.o
 .debug_abbrev  0x00000000      0x1a1 build/FreeRTOS/production/_ext/1664057780/sp_int.o
 .debug_aranges
                0x00000000       0x18 build/FreeRTOS/production/_ext/1664057780/sp_int.o
 .debug_line    0x00000000      0x1ae build/FreeRTOS/production/_ext/1664057780/sp_int.o
 .debug_str     0x00000000        0xe build/FreeRTOS/production/_ext/1664057780/sp_int.o
 .comment       0x00000000       0x54 build/FreeRTOS/production/_ext/1664057780/sp_int.o
 .ARM.attributes
                0x00000000       0x39 build/FreeRTOS/production/_ext/1664057780/sp_int.o
 .text          0x00000000        0x0 build/FreeRTOS/production/_ext/1664057780/sp_x86_64.o
 .data          0x00000000        0x0 build/FreeRTOS/production/_ext/1664057780/sp_x86_64.o
 .bss           0x00000000        0x0 build/FreeRTOS/production/_ext/1664057780/sp_x86_64.o
 .debug_info    0x00000000      0xf7e build/FreeRTOS/production/_ext/1664057780/sp_x86_64.o
 .debug_abbrev  0x00000000      0x1a1 build/FreeRTOS/production/_ext/1664057780/sp_x86_64.o
 .debug_aranges
                0x00000000       0x18 build/FreeRTOS/production/_ext/1664057780/sp_x86_64.o
 .debug_line    0x00000000      0x1ae build/FreeRTOS/production/_ext/1664057780/sp_x86_64.o
 .debug_str     0x00000000        0xe build/FreeRTOS/production/_ext/1664057780/sp_x86_64.o
 .comment       0x00000000       0x54 build/FreeRTOS/production/_ext/1664057780/sp_x86_64.o
 .ARM.attributes
                0x00000000       0x39 build/FreeRTOS/production/_ext/1664057780/sp_x86_64.o
 .text          0x00000000        0x0 build/FreeRTOS/production/_ext/1664057780/srp.o
 .data          0x00000000        0x0 build/FreeRTOS/production/_ext/1664057780/srp.o
 .bss           0x00000000        0x0 build/FreeRTOS/production/_ext/1664057780/srp.o
 .debug_info    0x00000000      0x35d build/FreeRTOS/production/_ext/1664057780/srp.o
 .debug_abbrev  0x00000000       0x44 build/FreeRTOS/production/_ext/1664057780/srp.o
 .debug_aranges
                0x00000000       0x18 build/FreeRTOS/production/_ext/1664057780/srp.o
 .debug_line    0x00000000       0xe8 build/FreeRTOS/production/_ext/1664057780/srp.o
 .debug_str     0x00000000        0x0 build/FreeRTOS/production/_ext/1664057780/srp.o
 .comment       0x00000000       0x54 build/FreeRTOS/production/_ext/1664057780/srp.o
 .ARM.attributes
                0x00000000       0x39 build/FreeRTOS/production/_ext/1664057780/srp.o
 .text          0x00000000        0x0 build/FreeRTOS/production/_ext/1664057780/tfm.o
 .data          0x00000000        0x0 build/FreeRTOS/production/_ext/1664057780/tfm.o
 .bss           0x00000000        0x0 build/FreeRTOS/production/_ext/1664057780/tfm.o
 .text.fp_cmp_mag_ct
                0x00000000       0x60 build/FreeRTOS/production/_ext/1664057780/tfm.o
 .text.fp_cond_swap_ct
                0x00000000       0xa4 build/FreeRTOS/production/_ext/1664057780/tfm.o
 .text.CheckRunTimeSettings
                0x00000000        0x4 build/FreeRTOS/production/_ext/1664057780/tfm.o
 .text.CheckRunTimeFastMath
                0x00000000        0x4 build/FreeRTOS/production/_ext/1664057780/tfm.o
 .text.s_fp_add
                0x00000000       0xdc build/FreeRTOS/production/_ext/1664057780/tfm.o
 .text.s_fp_sub
                0x00000000       0xda build/FreeRTOS/production/_ext/1664057780/tfm.o
 .text.fp_mul_2
                0x00000000       0x80 build/FreeRTOS/production/_ext/1664057780/tfm.o
 .text.fp_mul_d
                0x00000000       0xea build/FreeRTOS/production/_ext/1664057780/tfm.o
 .text.fp_div_2
                0x00000000       0x8a build/FreeRTOS/production/_ext/1664057780/tfm.o
 .text.fp_div_2_mod_ct
                0x00000000       0xc6 build/FreeRTOS/production/_ext/1664057780/tfm.o
 .text.fp_submod_ct
                0x00000000       0xe6 build/FreeRTOS/production/_ext/1664057780/tfm.o
 .text.fp_addmod_ct
                0x00000000       0xc0 build/FreeRTOS/production/_ext/1664057780/tfm.o
 .text.fp_cmp_d
                0x00000000       0x38 build/FreeRTOS/production/_ext/1664057780/tfm.o
 .text.fp_cmp_mag
                0x00000000       0x66 build/FreeRTOS/production/_ext/1664057780/tfm.o
 .text.fp_add   0x00000000       0x4a build/FreeRTOS/production/_ext/1664057780/tfm.o
 .text.fp_sub   0x00000000       0x48 build/FreeRTOS/production/_ext/1664057780/tfm.o
 .text.fp_cmp   0x00000000       0x32 build/FreeRTOS/production/_ext/1664057780/tfm.o
 .text.fp_montgomery_setup
                0x00000000       0x40 build/FreeRTOS/production/_ext/1664057780/tfm.o
 .text.fp_montgomery_reduce_ex
                0x00000000      0x17a build/FreeRTOS/production/_ext/1664057780/tfm.o
 .text.fp_montgomery_reduce
                0x00000000        0xa build/FreeRTOS/production/_ext/1664057780/tfm.o
 .text.fp_to_unsigned_bin_at_pos
                0x00000000       0x58 build/FreeRTOS/production/_ext/1664057780/tfm.o
 .text.fp_to_unsigned_bin_len
                0x00000000       0x56 build/FreeRTOS/production/_ext/1664057780/tfm.o
 .text.fp_is_bit_set
                0x00000000       0x2c build/FreeRTOS/production/_ext/1664057780/tfm.o
 .text.fp_set_bit
                0x00000000       0x36 build/FreeRTOS/production/_ext/1664057780/tfm.o
 .text.fp_count_bits
                0x00000000       0x1a build/FreeRTOS/production/_ext/1664057780/tfm.o
 .text.fp_unsigned_bin_size
                0x00000000       0x1c build/FreeRTOS/production/_ext/1664057780/tfm.o
 .text.fp_leading_bit
                0x00000000       0x22 build/FreeRTOS/production/_ext/1664057780/tfm.o
 .text.fp_lshd  0x00000000       0x8c build/FreeRTOS/production/_ext/1664057780/tfm.o
 .text.fp_reverse
                0x00000000       0x32 build/FreeRTOS/production/_ext/1664057780/tfm.o
 .text.fp_zero  0x00000000       0x14 build/FreeRTOS/production/_ext/1664057780/tfm.o
 .text.fp_2expt
                0x00000000       0x3c build/FreeRTOS/production/_ext/1664057780/tfm.o
 .text.fp_read_unsigned_bin
                0x00000000       0x70 build/FreeRTOS/production/_ext/1664057780/tfm.o
 .text.fp_set   0x00000000       0x16 build/FreeRTOS/production/_ext/1664057780/tfm.o
 .text.fp_montgomery_calc_normalization
                0x00000000       0x72 build/FreeRTOS/production/_ext/1664057780/tfm.o
 .text.fp_rshd  0x00000000       0x70 build/FreeRTOS/production/_ext/1664057780/tfm.o
 .text.fp_rshb  0x00000000       0xa0 build/FreeRTOS/production/_ext/1664057780/tfm.o
 .text.fp_init  0x00000000        0x8 build/FreeRTOS/production/_ext/1664057780/tfm.o
 .text.mp_init  0x00000000        0xc build/FreeRTOS/production/_ext/1664057780/tfm.o
 .text.fp_sub_d
                0x00000000       0x2a build/FreeRTOS/production/_ext/1664057780/tfm.o
 .text.fp_clear
                0x00000000       0x14 build/FreeRTOS/production/_ext/1664057780/tfm.o
 .text.fp_forcezero
                0x00000000       0x1e build/FreeRTOS/production/_ext/1664057780/tfm.o
 .text.mp_forcezero
                0x00000000        0x8 build/FreeRTOS/production/_ext/1664057780/tfm.o
 .text.fp_free  0x00000000        0x2 build/FreeRTOS/production/_ext/1664057780/tfm.o
 .text.mp_clear
                0x00000000        0xa build/FreeRTOS/production/_ext/1664057780/tfm.o
 .text.mp_free  0x00000000        0x2 build/FreeRTOS/production/_ext/1664057780/tfm.o
 .text.mp_init_multi
                0x00000000       0x3e build/FreeRTOS/production/_ext/1664057780/tfm.o
 .text.mp_add   0x00000000        0x8 build/FreeRTOS/production/_ext/1664057780/tfm.o
 .text.mp_sub   0x00000000        0x8 build/FreeRTOS/production/_ext/1664057780/tfm.o
 .text.mp_mul_d
                0x00000000        0x8 build/FreeRTOS/production/_ext/1664057780/tfm.o
 .text.mp_submod_ct
                0x00000000        0x8 build/FreeRTOS/production/_ext/1664057780/tfm.o
 .text.mp_addmod_ct
                0x00000000        0x8 build/FreeRTOS/production/_ext/1664057780/tfm.o
 .text.mp_cmp   0x00000000        0x8 build/FreeRTOS/production/_ext/1664057780/tfm.o
 .text.mp_cmp_d
                0x00000000        0x8 build/FreeRTOS/production/_ext/1664057780/tfm.o
 .text.mp_unsigned_bin_size
                0x00000000        0x8 build/FreeRTOS/production/_ext/1664057780/tfm.o
 .text.mp_to_unsigned_bin_at_pos
                0x00000000        0x8 build/FreeRTOS/production/_ext/1664057780/tfm.o
 .text.mp_to_unsigned_bin_len
                0x00000000        0x8 build/FreeRTOS/production/_ext/1664057780/tfm.o
 .text.mp_read_unsigned_bin
                0x00000000        0x8 build/FreeRTOS/production/_ext/1664057780/tfm.o
 .text.mp_sub_d
                0x00000000        0x8 build/FreeRTOS/production/_ext/1664057780/tfm.o
 .text.mp_2expt
                0x00000000        0xa build/FreeRTOS/production/_ext/1664057780/tfm.o
 .text.fp_copy  0x00000000       0x24 build/FreeRTOS/production/_ext/1664057780/tfm.o
 .text.fp_mul_2d
                0x00000000       0xba build/FreeRTOS/production/_ext/1664057780/tfm.o
 .text.fp_set_int
                0x00000000       0x74 build/FreeRTOS/production/_ext/1664057780/tfm.o
 .text.mp_mul_2d
                0x00000000        0x8 build/FreeRTOS/production/_ext/1664057780/tfm.o
 .text.fp_mul_comba
                0x00000000      0x148 build/FreeRTOS/production/_ext/1664057780/tfm.o
 .text.fp_mul   0x00000000       0x48 build/FreeRTOS/production/_ext/1664057780/tfm.o
 .text.mp_mul   0x00000000        0x8 build/FreeRTOS/production/_ext/1664057780/tfm.o
 .text.fp_mod_2d
                0x00000000       0xbe build/FreeRTOS/production/_ext/1664057780/tfm.o
 .text.fp_div_2d
                0x00000000       0xaa build/FreeRTOS/production/_ext/1664057780/tfm.o
 .text.mp_div_2d
                0x00000000        0xa build/FreeRTOS/production/_ext/1664057780/tfm.o
 .text.fp_sqr_comba
                0x00000000      0x196 build/FreeRTOS/production/_ext/1664057780/tfm.o
 .text.fp_sqr   0x00000000       0x38 build/FreeRTOS/production/_ext/1664057780/tfm.o
 .text.fp_invmod_mont_ct
                0x00000000      0x1a8 build/FreeRTOS/production/_ext/1664057780/tfm.o
 .text.mp_invmod_mont_ct
                0x00000000        0x8 build/FreeRTOS/production/_ext/1664057780/tfm.o
 .text.fp_div_d
                0x00000000      0x14c build/FreeRTOS/production/_ext/1664057780/tfm.o
 .text.fp_init_copy
                0x00000000       0x1a build/FreeRTOS/production/_ext/1664057780/tfm.o
 .text.fp_div   0x00000000      0x3be build/FreeRTOS/production/_ext/1664057780/tfm.o
 .text.fp_mod   0x00000000       0x48 build/FreeRTOS/production/_ext/1664057780/tfm.o
 .text.fp_mulmod
                0x00000000       0x38 build/FreeRTOS/production/_ext/1664057780/tfm.o
 .text.mp_mulmod
                0x00000000        0x8 build/FreeRTOS/production/_ext/1664057780/tfm.o
 .text.fp_submod
                0x00000000       0x38 build/FreeRTOS/production/_ext/1664057780/tfm.o
 .text.mp_submod
                0x00000000        0x8 build/FreeRTOS/production/_ext/1664057780/tfm.o
 .text.fp_addmod
                0x00000000       0x38 build/FreeRTOS/production/_ext/1664057780/tfm.o
 .text.mp_addmod
                0x00000000        0x8 build/FreeRTOS/production/_ext/1664057780/tfm.o
 .text._fp_exptmod_ct
                0x00000000      0x14c build/FreeRTOS/production/_ext/1664057780/tfm.o
 .text._fp_exptmod_nct
                0x00000000      0x34a build/FreeRTOS/production/_ext/1664057780/tfm.o
 .text.mp_mod   0x00000000        0x8 build/FreeRTOS/production/_ext/1664057780/tfm.o
 .text.fp_invmod
                0x00000000      0x540 build/FreeRTOS/production/_ext/1664057780/tfm.o
 .text.mp_invmod
                0x00000000        0x8 build/FreeRTOS/production/_ext/1664057780/tfm.o
 .text.mp_div   0x00000000        0x8 build/FreeRTOS/production/_ext/1664057780/tfm.o
 .text.fp_exptmod
                0x00000000      0x24c build/FreeRTOS/production/_ext/1664057780/tfm.o
 .text.mp_exptmod
                0x00000000        0x8 build/FreeRTOS/production/_ext/1664057780/tfm.o
 .text.fp_exptmod_ex
                0x00000000       0xa6 build/FreeRTOS/production/_ext/1664057780/tfm.o
 .text.mp_exptmod_ex
                0x00000000       0x10 build/FreeRTOS/production/_ext/1664057780/tfm.o
 .text.fp_exptmod_nct
                0x00000000       0x90 build/FreeRTOS/production/_ext/1664057780/tfm.o
 .text.mp_exptmod_nct
                0x00000000        0x8 build/FreeRTOS/production/_ext/1664057780/tfm.o
 .text.fp_to_unsigned_bin
                0x00000000       0x2a build/FreeRTOS/production/_ext/1664057780/tfm.o
 .text.mp_to_unsigned_bin
                0x00000000        0x8 build/FreeRTOS/production/_ext/1664057780/tfm.o
 .text.mp_init_copy
                0x00000000        0xa build/FreeRTOS/production/_ext/1664057780/tfm.o
 .text.mp_copy  0x00000000        0xa build/FreeRTOS/production/_ext/1664057780/tfm.o
 .text.mp_isodd
                0x00000000       0x10 build/FreeRTOS/production/_ext/1664057780/tfm.o
 .text.mp_iszero
                0x00000000        0xa build/FreeRTOS/production/_ext/1664057780/tfm.o
 .text.mp_count_bits
                0x00000000        0x8 build/FreeRTOS/production/_ext/1664057780/tfm.o
 .text.mp_leading_bit
                0x00000000        0x8 build/FreeRTOS/production/_ext/1664057780/tfm.o
 .text.mp_rshb  0x00000000        0x8 build/FreeRTOS/production/_ext/1664057780/tfm.o
 .text.mp_rshd  0x00000000        0x8 build/FreeRTOS/production/_ext/1664057780/tfm.o
 .text.mp_set_int
                0x00000000        0x8 build/FreeRTOS/production/_ext/1664057780/tfm.o
 .text.mp_is_bit_set
                0x00000000        0x8 build/FreeRTOS/production/_ext/1664057780/tfm.o
 .text.mp_set_bit
                0x00000000        0x8 build/FreeRTOS/production/_ext/1664057780/tfm.o
 .text.fp_sqrmod
                0x00000000       0x34 build/FreeRTOS/production/_ext/1664057780/tfm.o
 .text.mp_sqrmod
                0x00000000        0x8 build/FreeRTOS/production/_ext/1664057780/tfm.o
 .text.mp_montgomery_calc_normalization
                0x00000000        0x8 build/FreeRTOS/production/_ext/1664057780/tfm.o
 .text.fp_cnt_lsb
                0x00000000       0x5c build/FreeRTOS/production/_ext/1664057780/tfm.o
 .text.fp_prime_miller_rabin_ex
                0x00000000       0xce build/FreeRTOS/production/_ext/1664057780/tfm.o
 .text.fp_isprime_ex
                0x00000000      0x110 build/FreeRTOS/production/_ext/1664057780/tfm.o
 .text.mp_mod_d
                0x00000000        0xc build/FreeRTOS/production/_ext/1664057780/tfm.o
 .text.mp_prime_is_prime
                0x00000000        0x8 build/FreeRTOS/production/_ext/1664057780/tfm.o
 .text.mp_prime_is_prime_ex
                0x00000000      0x1ac build/FreeRTOS/production/_ext/1664057780/tfm.o
 .text.mp_cond_swap_ct
                0x00000000        0x8 build/FreeRTOS/production/_ext/1664057780/tfm.o
 .text.fp_add_d
                0x00000000       0x2a build/FreeRTOS/production/_ext/1664057780/tfm.o
 .text.mp_add_d
                0x00000000        0x8 build/FreeRTOS/production/_ext/1664057780/tfm.o
 .text.mp_read_radix
                0x00000000      0x194 build/FreeRTOS/production/_ext/1664057780/tfm.o
 .text.mp_sqr   0x00000000        0x8 build/FreeRTOS/production/_ext/1664057780/tfm.o
 .text.mp_montgomery_reduce
                0x00000000        0x8 build/FreeRTOS/production/_ext/1664057780/tfm.o
 .text.mp_montgomery_reduce_ex
                0x00000000        0x8 build/FreeRTOS/production/_ext/1664057780/tfm.o
 .text.mp_montgomery_setup
                0x00000000        0x8 build/FreeRTOS/production/_ext/1664057780/tfm.o
 .text.mp_div_2
                0x00000000        0xa build/FreeRTOS/production/_ext/1664057780/tfm.o
 .text.mp_div_2_mod_ct
                0x00000000        0x8 build/FreeRTOS/production/_ext/1664057780/tfm.o
 .text.mp_set   0x00000000        0xa build/FreeRTOS/production/_ext/1664057780/tfm.o
 .text.mp_radix_size
                0x00000000       0xc8 build/FreeRTOS/production/_ext/1664057780/tfm.o
 .text.mp_toradix
                0x00000000       0xcc build/FreeRTOS/production/_ext/1664057780/tfm.o
 .text.mp_abs   0x00000000        0xe build/FreeRTOS/production/_ext/1664057780/tfm.o
 .text.mp_lshd  0x00000000        0x8 build/FreeRTOS/production/_ext/1664057780/tfm.o
 .rodata        0x00000000       0x44 build/FreeRTOS/production/_ext/1664057780/tfm.o
 .rodata.lnz    0x00000000       0x40 build/FreeRTOS/production/_ext/1664057780/tfm.o
 .rodata.primes
                0x00000000      0x400 build/FreeRTOS/production/_ext/1664057780/tfm.o
 .debug_info    0x00000000     0x96e1 build/FreeRTOS/production/_ext/1664057780/tfm.o
 .debug_abbrev  0x00000000      0x60a build/FreeRTOS/production/_ext/1664057780/tfm.o
 .debug_loc     0x00000000     0xad35 build/FreeRTOS/production/_ext/1664057780/tfm.o
 .debug_aranges
                0x00000000      0x438 build/FreeRTOS/production/_ext/1664057780/tfm.o
 .debug_ranges  0x00000000      0x5d0 build/FreeRTOS/production/_ext/1664057780/tfm.o
 .debug_line    0x00000000     0x40f8 build/FreeRTOS/production/_ext/1664057780/tfm.o
 .debug_str     0x00000000       0x52 build/FreeRTOS/production/_ext/1664057780/tfm.o
 .comment       0x00000000       0x54 build/FreeRTOS/production/_ext/1664057780/tfm.o
 .debug_frame   0x00000000      0xff0 build/FreeRTOS/production/_ext/1664057780/tfm.o
 .ARM.attributes
                0x00000000       0x34 build/FreeRTOS/production/_ext/1664057780/tfm.o
 .text          0x00000000        0x0 build/FreeRTOS/production/_ext/1664057780/wc_dsp.o
 .data          0x00000000        0x0 build/FreeRTOS/production/_ext/1664057780/wc_dsp.o
 .bss           0x00000000        0x0 build/FreeRTOS/production/_ext/1664057780/wc_dsp.o
 .debug_info    0x00000000      0xf7b build/FreeRTOS/production/_ext/1664057780/wc_dsp.o
 .debug_abbrev  0x00000000      0x1a1 build/FreeRTOS/production/_ext/1664057780/wc_dsp.o
 .debug_aranges
                0x00000000       0x18 build/FreeRTOS/production/_ext/1664057780/wc_dsp.o
 .debug_line    0x00000000      0x1ae build/FreeRTOS/production/_ext/1664057780/wc_dsp.o
 .debug_str     0x00000000        0xe build/FreeRTOS/production/_ext/1664057780/wc_dsp.o
 .comment       0x00000000       0x54 build/FreeRTOS/production/_ext/1664057780/wc_dsp.o
 .ARM.attributes
                0x00000000       0x39 build/FreeRTOS/production/_ext/1664057780/wc_dsp.o
 .text          0x00000000        0x0 build/FreeRTOS/production/_ext/1664057780/wc_encrypt.o
 .data          0x00000000        0x0 build/FreeRTOS/production/_ext/1664057780/wc_encrypt.o
 .bss           0x00000000        0x0 build/FreeRTOS/production/_ext/1664057780/wc_encrypt.o
 .text.wc_AesCbcDecryptWithKey
                0x00000000       0x74 build/FreeRTOS/production/_ext/1664057780/wc_encrypt.o
 .text.wc_AesCbcEncryptWithKey
                0x00000000       0x52 build/FreeRTOS/production/_ext/1664057780/wc_encrypt.o
 .text.wc_Des_CbcEncryptWithKey
                0x00000000       0x30 build/FreeRTOS/production/_ext/1664057780/wc_encrypt.o
 .text.wc_Des_CbcDecryptWithKey
                0x00000000       0x30 build/FreeRTOS/production/_ext/1664057780/wc_encrypt.o
 .text.wc_Des3_CbcEncryptWithKey
                0x00000000       0x4e build/FreeRTOS/production/_ext/1664057780/wc_encrypt.o
 .text.wc_Des3_CbcDecryptWithKey
                0x00000000       0x4e build/FreeRTOS/production/_ext/1664057780/wc_encrypt.o
 .debug_info    0x00000000     0x2717 build/FreeRTOS/production/_ext/1664057780/wc_encrypt.o
 .debug_abbrev  0x00000000      0x26f build/FreeRTOS/production/_ext/1664057780/wc_encrypt.o
 .debug_loc     0x00000000      0x97d build/FreeRTOS/production/_ext/1664057780/wc_encrypt.o
 .debug_aranges
                0x00000000       0x48 build/FreeRTOS/production/_ext/1664057780/wc_encrypt.o
 .debug_ranges  0x00000000       0x38 build/FreeRTOS/production/_ext/1664057780/wc_encrypt.o
 .debug_line    0x00000000      0x466 build/FreeRTOS/production/_ext/1664057780/wc_encrypt.o
 .debug_str     0x00000000       0xd2 build/FreeRTOS/production/_ext/1664057780/wc_encrypt.o
 .comment       0x00000000       0x54 build/FreeRTOS/production/_ext/1664057780/wc_encrypt.o
 .debug_frame   0x00000000      0x110 build/FreeRTOS/production/_ext/1664057780/wc_encrypt.o
 .ARM.attributes
                0x00000000       0x34 build/FreeRTOS/production/_ext/1664057780/wc_encrypt.o
 .text          0x00000000        0x0 build/FreeRTOS/production/_ext/1664057780/wc_pkcs11.o
 .data          0x00000000        0x0 build/FreeRTOS/production/_ext/1664057780/wc_pkcs11.o
 .bss           0x00000000        0x0 build/FreeRTOS/production/_ext/1664057780/wc_pkcs11.o
 .debug_info    0x00000000      0x363 build/FreeRTOS/production/_ext/1664057780/wc_pkcs11.o
 .debug_abbrev  0x00000000       0x44 build/FreeRTOS/production/_ext/1664057780/wc_pkcs11.o
 .debug_aranges
                0x00000000       0x18 build/FreeRTOS/production/_ext/1664057780/wc_pkcs11.o
 .debug_line    0x00000000       0xe8 build/FreeRTOS/production/_ext/1664057780/wc_pkcs11.o
 .debug_str     0x00000000        0x0 build/FreeRTOS/production/_ext/1664057780/wc_pkcs11.o
 .comment       0x00000000       0x54 build/FreeRTOS/production/_ext/1664057780/wc_pkcs11.o
 .ARM.attributes
                0x00000000       0x39 build/FreeRTOS/production/_ext/1664057780/wc_pkcs11.o
 .text          0x00000000        0x0 build/FreeRTOS/production/_ext/1664057780/wc_port.o
 .data          0x00000000        0x0 build/FreeRTOS/production/_ext/1664057780/wc_port.o
 .bss           0x00000000        0x0 build/FreeRTOS/production/_ext/1664057780/wc_port.o
 .text.wolfCrypt_Init
                0x00000000       0x20 build/FreeRTOS/production/_ext/1664057780/wc_port.o
 .text.wolfCrypt_Cleanup
                0x00000000       0x24 build/FreeRTOS/production/_ext/1664057780/wc_port.o
 .text.wc_InitAndAllocMutex
                0x00000000        0xa build/FreeRTOS/production/_ext/1664057780/wc_port.o
 .text.wc_strtok
                0x00000000       0x84 build/FreeRTOS/production/_ext/1664057780/wc_port.o
 .text.wc_strsep
                0x00000000       0x40 build/FreeRTOS/production/_ext/1664057780/wc_port.o
 .text.wc_InitMutex
                0x00000000        0x4 build/FreeRTOS/production/_ext/1664057780/wc_port.o
 .text.wc_FreeMutex
                0x00000000        0x4 build/FreeRTOS/production/_ext/1664057780/wc_port.o
 .text.wc_LockMutex
                0x00000000        0x4 build/FreeRTOS/production/_ext/1664057780/wc_port.o
 .text.wc_UnLockMutex
                0x00000000        0x4 build/FreeRTOS/production/_ext/1664057780/wc_port.o
 .text.mystrnstr
                0x00000000       0x5c build/FreeRTOS/production/_ext/1664057780/wc_port.o
 .bss.initRefCount
                0x00000000        0x4 build/FreeRTOS/production/_ext/1664057780/wc_port.o
 .debug_info    0x00000000     0x1d2e build/FreeRTOS/production/_ext/1664057780/wc_port.o
 .debug_abbrev  0x00000000      0x381 build/FreeRTOS/production/_ext/1664057780/wc_port.o
 .debug_loc     0x00000000      0x4f4 build/FreeRTOS/production/_ext/1664057780/wc_port.o
 .debug_aranges
                0x00000000       0x68 build/FreeRTOS/production/_ext/1664057780/wc_port.o
 .debug_ranges  0x00000000       0x58 build/FreeRTOS/production/_ext/1664057780/wc_port.o
 .debug_line    0x00000000      0x564 build/FreeRTOS/production/_ext/1664057780/wc_port.o
 .debug_str     0x00000000       0x2c build/FreeRTOS/production/_ext/1664057780/wc_port.o
 .comment       0x00000000       0x54 build/FreeRTOS/production/_ext/1664057780/wc_port.o
 .debug_frame   0x00000000      0x120 build/FreeRTOS/production/_ext/1664057780/wc_port.o
 .ARM.attributes
                0x00000000       0x34 build/FreeRTOS/production/_ext/1664057780/wc_port.o
 .text          0x00000000        0x0 build/FreeRTOS/production/_ext/1664057780/wolfevent.o
 .data          0x00000000        0x0 build/FreeRTOS/production/_ext/1664057780/wolfevent.o
 .bss           0x00000000        0x0 build/FreeRTOS/production/_ext/1664057780/wolfevent.o
 .debug_info    0x00000000      0x363 build/FreeRTOS/production/_ext/1664057780/wolfevent.o
 .debug_abbrev  0x00000000       0x44 build/FreeRTOS/production/_ext/1664057780/wolfevent.o
 .debug_aranges
                0x00000000       0x18 build/FreeRTOS/production/_ext/1664057780/wolfevent.o
 .debug_line    0x00000000       0xe8 build/FreeRTOS/production/_ext/1664057780/wolfevent.o
 .debug_str     0x00000000        0x0 build/FreeRTOS/production/_ext/1664057780/wolfevent.o
 .comment       0x00000000       0x54 build/FreeRTOS/production/_ext/1664057780/wolfevent.o
 .ARM.attributes
                0x00000000       0x39 build/FreeRTOS/production/_ext/1664057780/wolfevent.o
 .text          0x00000000        0x0 build/FreeRTOS/production/_ext/1664057780/wolfmath.o
 .data          0x00000000        0x0 build/FreeRTOS/production/_ext/1664057780/wolfmath.o
 .bss           0x00000000        0x0 build/FreeRTOS/production/_ext/1664057780/wolfmath.o
 .text.get_digit_count
                0x00000000        0xa build/FreeRTOS/production/_ext/1664057780/wolfmath.o
 .text.get_digit
                0x00000000       0x20 build/FreeRTOS/production/_ext/1664057780/wolfmath.o
 .text.mp_cond_copy
                0x00000000       0xb6 build/FreeRTOS/production/_ext/1664057780/wolfmath.o
 .text.get_rand_digit
                0x00000000        0xa build/FreeRTOS/production/_ext/1664057780/wolfmath.o
 .text.wc_export_int
                0x00000000       0x4e build/FreeRTOS/production/_ext/1664057780/wolfmath.o
 .rodata.wc_off_on_addr
                0x00000000        0x8 build/FreeRTOS/production/_ext/1664057780/wolfmath.o
 .debug_info    0x00000000     0x2208 build/FreeRTOS/production/_ext/1664057780/wolfmath.o
 .debug_abbrev  0x00000000      0x2c3 build/FreeRTOS/production/_ext/1664057780/wolfmath.o
 .debug_loc     0x00000000      0x4a1 build/FreeRTOS/production/_ext/1664057780/wolfmath.o
 .debug_aranges
                0x00000000       0x40 build/FreeRTOS/production/_ext/1664057780/wolfmath.o
 .debug_ranges  0x00000000       0x30 build/FreeRTOS/production/_ext/1664057780/wolfmath.o
 .debug_line    0x00000000      0x407 build/FreeRTOS/production/_ext/1664057780/wolfmath.o
 .debug_str     0x00000000       0x56 build/FreeRTOS/production/_ext/1664057780/wolfmath.o
 .comment       0x00000000       0x54 build/FreeRTOS/production/_ext/1664057780/wolfmath.o
 .debug_frame   0x00000000       0xb0 build/FreeRTOS/production/_ext/1664057780/wolfmath.o
 .ARM.attributes
                0x00000000       0x34 build/FreeRTOS/production/_ext/1664057780/wolfmath.o
 .text          0x00000000        0x0 build/FreeRTOS/production/_ext/1664057780/aes.o
 .data          0x00000000        0x0 build/FreeRTOS/production/_ext/1664057780/aes.o
 .bss           0x00000000        0x0 build/FreeRTOS/production/_ext/1664057780/aes.o
 .text.col_mul  0x00000000       0x3a build/FreeRTOS/production/_ext/1664057780/aes.o
 .text.inv_col_mul
                0x00000000       0x66 build/FreeRTOS/production/_ext/1664057780/aes.o
 .text.wc_AesEncrypt
                0x00000000      0x3a0 build/FreeRTOS/production/_ext/1664057780/aes.o
 .text.wc_AesDecrypt
                0x00000000      0x390 build/FreeRTOS/production/_ext/1664057780/aes.o
 .text.GMULT    0x00000000       0xb8 build/FreeRTOS/production/_ext/1664057780/aes.o
 .text.roll_x   0x00000000       0xcc build/FreeRTOS/production/_ext/1664057780/aes.o
 .text.roll_auth
                0x00000000       0xf0 build/FreeRTOS/production/_ext/1664057780/aes.o
 .text.wc_AesSetIV
                0x00000000       0x40 build/FreeRTOS/production/_ext/1664057780/aes.o
 .text.wc_AesSetKeyLocal
                0x00000000      0x2a8 build/FreeRTOS/production/_ext/1664057780/aes.o
 .text.wc_AesSetKey
                0x00000000       0x26 build/FreeRTOS/production/_ext/1664057780/aes.o
 .text.wc_AesSetKeyDirect
                0x00000000       0x26 build/FreeRTOS/production/_ext/1664057780/aes.o
 .text.wc_AesEncryptDirect
                0x00000000        0xe build/FreeRTOS/production/_ext/1664057780/aes.o
 .text.wc_AesDecryptDirect
                0x00000000        0xe build/FreeRTOS/production/_ext/1664057780/aes.o
 .text.wc_AesCbcEncrypt
                0x00000000       0xca build/FreeRTOS/production/_ext/1664057780/aes.o
 .text.wc_AesCbcDecrypt
                0x00000000       0xf2 build/FreeRTOS/production/_ext/1664057780/aes.o
 .text.wc_AesCtrEncrypt
                0x00000000      0x1aa build/FreeRTOS/production/_ext/1664057780/aes.o
 .text.wc_AesGcmSetKey
                0x00000000       0x5e build/FreeRTOS/production/_ext/1664057780/aes.o
 .text.GHASH    0x00000000      0x38e build/FreeRTOS/production/_ext/1664057780/aes.o
 .text.wc_AesGcmSetExtIV
                0x00000000       0x4a build/FreeRTOS/production/_ext/1664057780/aes.o
 .text.wc_AesGcmSetIV
                0x00000000       0x86 build/FreeRTOS/production/_ext/1664057780/aes.o
 .text.wc_GmacSetKey
                0x00000000       0x18 build/FreeRTOS/production/_ext/1664057780/aes.o
 .text.wc_AesCcmSetKey
                0x00000000       0x24 build/FreeRTOS/production/_ext/1664057780/aes.o
 .text.wc_AesCcmCheckTagSize
                0x00000000       0x24 build/FreeRTOS/production/_ext/1664057780/aes.o
 .text.wc_AesCcmEncrypt
                0x00000000      0x308 build/FreeRTOS/production/_ext/1664057780/aes.o
 .text.wc_AesCcmDecrypt
                0x00000000      0x3a0 build/FreeRTOS/production/_ext/1664057780/aes.o
 .text.wc_AesCcmSetNonce
                0x00000000       0x3c build/FreeRTOS/production/_ext/1664057780/aes.o
 .text.wc_AesCcmEncrypt_ex
                0x00000000       0xda build/FreeRTOS/production/_ext/1664057780/aes.o
 .text.wc_AesInit
                0x00000000       0x1a build/FreeRTOS/production/_ext/1664057780/aes.o
 .text.wc_AesFree
                0x00000000       0x1a build/FreeRTOS/production/_ext/1664057780/aes.o
 .text.wc_AesGetKeySize
                0x00000000       0x42 build/FreeRTOS/production/_ext/1664057780/aes.o
 .text.wc_AesEcbEncrypt
                0x00000000       0x40 build/FreeRTOS/production/_ext/1664057780/aes.o
 .text.wc_AesGcmEncrypt
                0x00000000      0x34c build/FreeRTOS/production/_ext/1664057780/aes.o
 .text.wc_AesGcmEncrypt_ex
                0x00000000       0xf4 build/FreeRTOS/production/_ext/1664057780/aes.o
 .text.wc_Gmac  0x00000000       0xc4 build/FreeRTOS/production/_ext/1664057780/aes.o
 .text.wc_GmacUpdate
                0x00000000       0x24 build/FreeRTOS/production/_ext/1664057780/aes.o
 .text.wc_AesGcmDecrypt
                0x00000000      0x384 build/FreeRTOS/production/_ext/1664057780/aes.o
 .text.wc_GmacVerify
                0x00000000       0xa4 build/FreeRTOS/production/_ext/1664057780/aes.o
 .text.wc_AesEcbDecrypt
                0x00000000       0x40 build/FreeRTOS/production/_ext/1664057780/aes.o
 .text.wc_AesOfbEncrypt
                0x00000000      0x17a build/FreeRTOS/production/_ext/1664057780/aes.o
 .text.wc_AesOfbDecrypt
                0x00000000      0x184 build/FreeRTOS/production/_ext/1664057780/aes.o
 .rodata.Td4    0x00000000      0x100 build/FreeRTOS/production/_ext/1664057780/aes.o
 .rodata.Tsbox  0x00000000      0x100 build/FreeRTOS/production/_ext/1664057780/aes.o
 .rodata.rcon   0x00000000       0x28 build/FreeRTOS/production/_ext/1664057780/aes.o
 .debug_info    0x00000000     0x862f build/FreeRTOS/production/_ext/1664057780/aes.o
 .debug_abbrev  0x00000000      0x64c build/FreeRTOS/production/_ext/1664057780/aes.o
 .debug_loc     0x00000000     0x9a74 build/FreeRTOS/production/_ext/1664057780/aes.o
 .debug_aranges
                0x00000000      0x158 build/FreeRTOS/production/_ext/1664057780/aes.o
 .debug_ranges  0x00000000      0xb50 build/FreeRTOS/production/_ext/1664057780/aes.o
 .debug_line    0x00000000     0x330a build/FreeRTOS/production/_ext/1664057780/aes.o
 .debug_str     0x00000000      0x115 build/FreeRTOS/production/_ext/1664057780/aes.o
 .comment       0x00000000       0x54 build/FreeRTOS/production/_ext/1664057780/aes.o
 .debug_frame   0x00000000      0x6b4 build/FreeRTOS/production/_ext/1664057780/aes.o
 .ARM.attributes
                0x00000000       0x34 build/FreeRTOS/production/_ext/1664057780/aes.o
 .text          0x00000000        0x0 build/FreeRTOS/production/_ext/1664057780/des3.o
 .data          0x00000000        0x0 build/FreeRTOS/production/_ext/1664057780/des3.o
 .bss           0x00000000        0x0 build/FreeRTOS/production/_ext/1664057780/des3.o
 .text.DesRawProcessBlock
                0x00000000      0x130 build/FreeRTOS/production/_ext/1664057780/des3.o
 .text.Des3ProcessBlock
                0x00000000      0x12a build/FreeRTOS/production/_ext/1664057780/des3.o
 .text.DesSetKey
                0x00000000      0x16c build/FreeRTOS/production/_ext/1664057780/des3.o
 .text.DesProcessBlock
                0x00000000      0x112 build/FreeRTOS/production/_ext/1664057780/des3.o
 .text.wc_Des_CbcEncrypt
                0x00000000       0x78 build/FreeRTOS/production/_ext/1664057780/des3.o
 .text.wc_Des_CbcDecrypt
                0x00000000       0x84 build/FreeRTOS/production/_ext/1664057780/des3.o
 .text.wc_Des3_CbcEncrypt
                0x00000000       0xbe build/FreeRTOS/production/_ext/1664057780/des3.o
 .text.wc_Des3_CbcDecrypt
                0x00000000       0xc6 build/FreeRTOS/production/_ext/1664057780/des3.o
 .text.wc_Des_SetIV
                0x00000000       0x18 build/FreeRTOS/production/_ext/1664057780/des3.o
 .text.wc_Des_SetKey
                0x00000000       0x1c build/FreeRTOS/production/_ext/1664057780/des3.o
 .text.wc_Des3_SetIV
                0x00000000       0x28 build/FreeRTOS/production/_ext/1664057780/des3.o
 .text.wc_Des3_SetKey
                0x00000000       0xb8 build/FreeRTOS/production/_ext/1664057780/des3.o
 .text.wc_Des3Init
                0x00000000       0x1a build/FreeRTOS/production/_ext/1664057780/des3.o
 .text.wc_Des3Free
                0x00000000       0x1a build/FreeRTOS/production/_ext/1664057780/des3.o
 .rodata.Spbox  0x00000000      0x800 build/FreeRTOS/production/_ext/1664057780/des3.o
 .rodata.bytebit
                0x00000000       0x20 build/FreeRTOS/production/_ext/1664057780/des3.o
 .rodata.pc1    0x00000000       0x38 build/FreeRTOS/production/_ext/1664057780/des3.o
 .rodata.pc2    0x00000000       0x30 build/FreeRTOS/production/_ext/1664057780/des3.o
 .rodata.totrot
                0x00000000       0x10 build/FreeRTOS/production/_ext/1664057780/des3.o
 .debug_info    0x00000000     0x3cea build/FreeRTOS/production/_ext/1664057780/des3.o
 .debug_abbrev  0x00000000      0x48b build/FreeRTOS/production/_ext/1664057780/des3.o
 .debug_loc     0x00000000     0x74c8 build/FreeRTOS/production/_ext/1664057780/des3.o
 .debug_aranges
                0x00000000       0x88 build/FreeRTOS/production/_ext/1664057780/des3.o
 .debug_ranges  0x00000000      0x450 build/FreeRTOS/production/_ext/1664057780/des3.o
 .debug_line    0x00000000     0x1081 build/FreeRTOS/production/_ext/1664057780/des3.o
 .debug_str     0x00000000       0x52 build/FreeRTOS/production/_ext/1664057780/des3.o
 .comment       0x00000000       0x54 build/FreeRTOS/production/_ext/1664057780/des3.o
 .debug_frame   0x00000000      0x1fc build/FreeRTOS/production/_ext/1664057780/des3.o
 .ARM.attributes
                0x00000000       0x34 build/FreeRTOS/production/_ext/1664057780/des3.o
 .text          0x00000000        0x0 build/FreeRTOS/production/_ext/1664057780/random.o
 .data          0x00000000        0x0 build/FreeRTOS/production/_ext/1664057780/random.o
 .bss           0x00000000        0x0 build/FreeRTOS/production/_ext/1664057780/random.o
 .text.wc_RNG_DRBG_Reseed
                0x00000000       0x1a build/FreeRTOS/production/_ext/1664057780/random.o
 .text.wc_FreeRng
                0x00000000       0x34 build/FreeRTOS/production/_ext/1664057780/random.o
 .text.wc_rng_free
                0x00000000       0x28 build/FreeRTOS/production/_ext/1664057780/random.o
 .text.wc_rng_new
                0x00000000       0x36 build/FreeRTOS/production/_ext/1664057780/random.o
 .text.wc_InitRng_ex
                0x00000000       0x16 build/FreeRTOS/production/_ext/1664057780/random.o
 .text.wc_InitRngNonce
                0x00000000       0x16 build/FreeRTOS/production/_ext/1664057780/random.o
 .text.wc_InitRngNonce_ex
                0x00000000       0x10 build/FreeRTOS/production/_ext/1664057780/random.o
 .text.wc_RNG_GenerateByte
                0x00000000        0xa build/FreeRTOS/production/_ext/1664057780/random.o
 .text          0x00000000        0x0 build/FreeRTOS/production/_ext/1664057780/sha.o
 .data          0x00000000        0x0 build/FreeRTOS/production/_ext/1664057780/sha.o
 .bss           0x00000000        0x0 build/FreeRTOS/production/_ext/1664057780/sha.o
 .text.Transform
                0x00000000      0xdb8 build/FreeRTOS/production/_ext/1664057780/sha.o
 .text.wc_InitSha_ex
                0x00000000       0x44 build/FreeRTOS/production/_ext/1664057780/sha.o
 .text.wc_ShaUpdate
                0x00000000      0x15c build/FreeRTOS/production/_ext/1664057780/sha.o
 .text.wc_ShaFinalRaw
                0x00000000       0x54 build/FreeRTOS/production/_ext/1664057780/sha.o
 .text.wc_ShaFinal
                0x00000000      0x15c build/FreeRTOS/production/_ext/1664057780/sha.o
 .text.wc_InitSha
                0x00000000        0xe build/FreeRTOS/production/_ext/1664057780/sha.o
 .text.wc_ShaFree
                0x00000000        0x2 build/FreeRTOS/production/_ext/1664057780/sha.o
 .text.wc_ShaCopy
                0x00000000       0x2a build/FreeRTOS/production/_ext/1664057780/sha.o
 .text.wc_ShaGetHash
                0x00000000       0x34 build/FreeRTOS/production/_ext/1664057780/sha.o
 .text.wc_ShaSetFlags
                0x00000000        0x8 build/FreeRTOS/production/_ext/1664057780/sha.o
 .text.wc_ShaGetFlags
                0x00000000        0xc build/FreeRTOS/production/_ext/1664057780/sha.o
 .debug_info    0x00000000     0x593e build/FreeRTOS/production/_ext/1664057780/sha.o
 .debug_abbrev  0x00000000      0x45f build/FreeRTOS/production/_ext/1664057780/sha.o
 .debug_loc     0x00000000     0x69a4 build/FreeRTOS/production/_ext/1664057780/sha.o
 .debug_aranges
                0x00000000       0x70 build/FreeRTOS/production/_ext/1664057780/sha.o
 .debug_ranges  0x00000000      0x6d8 build/FreeRTOS/production/_ext/1664057780/sha.o
 .debug_line    0x00000000     0x1f49 build/FreeRTOS/production/_ext/1664057780/sha.o
 .debug_str     0x00000000       0x2f build/FreeRTOS/production/_ext/1664057780/sha.o
 .comment       0x00000000       0x54 build/FreeRTOS/production/_ext/1664057780/sha.o
 .debug_frame   0x00000000      0x154 build/FreeRTOS/production/_ext/1664057780/sha.o
 .ARM.attributes
                0x00000000       0x34 build/FreeRTOS/production/_ext/1664057780/sha.o
 .text          0x00000000        0x0 build/FreeRTOS/production/_ext/1664057780/sha256.o
 .data          0x00000000        0x0 build/FreeRTOS/production/_ext/1664057780/sha256.o
 .bss           0x00000000        0x0 build/FreeRTOS/production/_ext/1664057780/sha256.o
 .text.wc_Sha256FinalRaw
                0x00000000       0x5a build/FreeRTOS/production/_ext/1664057780/sha256.o
 .text.wc_InitSha224_ex
                0x00000000       0x64 build/FreeRTOS/production/_ext/1664057780/sha256.o
 .text.wc_Sha224Update
                0x00000000      0x12c build/FreeRTOS/production/_ext/1664057780/sha256.o
 .text.wc_Sha224Final
                0x00000000      0x16c build/FreeRTOS/production/_ext/1664057780/sha256.o
 .text.wc_InitSha224
                0x00000000        0xe build/FreeRTOS/production/_ext/1664057780/sha256.o
 .text.wc_Sha224Free
                0x00000000        0x2 build/FreeRTOS/production/_ext/1664057780/sha256.o
 .text.wc_InitSha256
                0x00000000        0xe build/FreeRTOS/production/_ext/1664057780/sha256.o
 .text.wc_Sha224Copy
                0x00000000       0x2a build/FreeRTOS/production/_ext/1664057780/sha256.o
 .text.wc_Sha224GetHash
                0x00000000       0x34 build/FreeRTOS/production/_ext/1664057780/sha256.o
 .text.wc_Sha224SetFlags
                0x00000000        0x8 build/FreeRTOS/production/_ext/1664057780/sha256.o
 .text.wc_Sha224GetFlags
                0x00000000        0xc build/FreeRTOS/production/_ext/1664057780/sha256.o
 .text.wc_Sha256Copy
                0x00000000       0x2a build/FreeRTOS/production/_ext/1664057780/sha256.o
 .text.wc_Sha256GetHash
                0x00000000       0x34 build/FreeRTOS/production/_ext/1664057780/sha256.o
 .text.wc_Sha256SetFlags
                0x00000000        0x8 build/FreeRTOS/production/_ext/1664057780/sha256.o
 .text.wc_Sha256GetFlags
                0x00000000        0xc build/FreeRTOS/production/_ext/1664057780/sha256.o
 .text          0x00000000        0x0 build/FreeRTOS/production/_ext/1664057780/sha512.o
 .data          0x00000000        0x0 build/FreeRTOS/production/_ext/1664057780/sha512.o
 .bss           0x00000000        0x0 build/FreeRTOS/production/_ext/1664057780/sha512.o
 .debug_info    0x00000000      0x360 build/FreeRTOS/production/_ext/1664057780/sha512.o
 .debug_abbrev  0x00000000       0x44 build/FreeRTOS/production/_ext/1664057780/sha512.o
 .debug_aranges
                0x00000000       0x18 build/FreeRTOS/production/_ext/1664057780/sha512.o
 .debug_line    0x00000000       0xe8 build/FreeRTOS/production/_ext/1664057780/sha512.o
 .debug_str     0x00000000        0x0 build/FreeRTOS/production/_ext/1664057780/sha512.o
 .comment       0x00000000       0x54 build/FreeRTOS/production/_ext/1664057780/sha512.o
 .ARM.attributes
                0x00000000       0x39 build/FreeRTOS/production/_ext/1664057780/sha512.o
 .text          0x00000000        0x0 build/FreeRTOS/production/_ext/1664057780/ecc.o
 .data          0x00000000        0x0 build/FreeRTOS/production/_ext/1664057780/ecc.o
 .bss           0x00000000        0x0 build/FreeRTOS/production/_ext/1664057780/ecc.o
 .text.ecc_point_to_mont
                0x00000000       0xa8 build/FreeRTOS/production/_ext/1664057780/ecc.o
 .text.wc_ecc_cmp_param
                0x00000000       0x84 build/FreeRTOS/production/_ext/1664057780/ecc.o
 .text.wc_ecc_curve_cache_load_item
                0x00000000       0x50 build/FreeRTOS/production/_ext/1664057780/ecc.o
 .text.wc_ecc_curve_free
                0x00000000       0xa8 build/FreeRTOS/production/_ext/1664057780/ecc.o
 .text.wc_ecc_curve_load
                0x00000000       0xbe build/FreeRTOS/production/_ext/1664057780/ecc.o
 .text.wc_ecc_get_curve_order_bit_count
                0x00000000       0x46 build/FreeRTOS/production/_ext/1664057780/ecc.o
 .text.wc_ecc_set_curve
                0x00000000       0x6c build/FreeRTOS/production/_ext/1664057780/ecc.o
 .text.wc_ecc_import_raw_private
                0x00000000      0x142 build/FreeRTOS/production/_ext/1664057780/ecc.o
 .text.ecc_projective_dbl_point
                0x00000000      0x27a build/FreeRTOS/production/_ext/1664057780/ecc.o
 .text.ecc_projective_add_point
                0x00000000      0x46c build/FreeRTOS/production/_ext/1664057780/ecc.o
 .text.ecc_map_ex
                0x00000000      0x13a build/FreeRTOS/production/_ext/1664057780/ecc.o
 .text.ecc_map  0x00000000        0xa build/FreeRTOS/production/_ext/1664057780/ecc.o
 .text.wc_ecc_new_point_h
                0x00000000       0x40 build/FreeRTOS/production/_ext/1664057780/ecc.o
 .text.wc_ecc_new_point
                0x00000000        0xa build/FreeRTOS/production/_ext/1664057780/ecc.o
 .text.wc_ecc_del_point_h
                0x00000000       0x24 build/FreeRTOS/production/_ext/1664057780/ecc.o
 .text.wc_ecc_del_point
                0x00000000        0xa build/FreeRTOS/production/_ext/1664057780/ecc.o
 .text.wc_ecc_copy_point
                0x00000000       0x44 build/FreeRTOS/production/_ext/1664057780/ecc.o
 .text.wc_ecc_cmp_point
                0x00000000       0x44 build/FreeRTOS/production/_ext/1664057780/ecc.o
 .text.wc_ecc_is_valid_idx
                0x00000000       0x14 build/FreeRTOS/production/_ext/1664057780/ecc.o
 .text.wc_ecc_get_curve_idx
                0x00000000       0x28 build/FreeRTOS/production/_ext/1664057780/ecc.o
 .text.wc_ecc_get_name
                0x00000000       0x20 build/FreeRTOS/production/_ext/1664057780/ecc.o
 .text.wc_ecc_get_curve_id
                0x00000000       0x20 build/FreeRTOS/production/_ext/1664057780/ecc.o
 .text.wc_ecc_get_curve_size_from_id
                0x00000000       0x24 build/FreeRTOS/production/_ext/1664057780/ecc.o
 .text.wc_ecc_get_curve_idx_from_name
                0x00000000       0x50 build/FreeRTOS/production/_ext/1664057780/ecc.o
 .text.wc_ecc_get_curve_size_from_name
                0x00000000       0x24 build/FreeRTOS/production/_ext/1664057780/ecc.o
 .text.wc_ecc_get_curve_id_from_name
                0x00000000       0x24 build/FreeRTOS/production/_ext/1664057780/ecc.o
 .text.wc_ecc_get_curve_id_from_params
                0x00000000       0xfc build/FreeRTOS/production/_ext/1664057780/ecc.o
 .text.wc_ecc_get_curve_id_from_dp_params
                0x00000000      0x138 build/FreeRTOS/production/_ext/1664057780/ecc.o
 .text.wc_ecc_get_curve_id_from_oid
                0x00000000       0x58 build/FreeRTOS/production/_ext/1664057780/ecc.o
 .text.wc_ecc_get_curve_params
                0x00000000       0x14 build/FreeRTOS/production/_ext/1664057780/ecc.o
 .text.wc_ecc_point_is_at_infinity
                0x00000000       0x26 build/FreeRTOS/production/_ext/1664057780/ecc.o
 .text.wc_ecc_gen_k
                0x00000000       0x72 build/FreeRTOS/production/_ext/1664057780/ecc.o
 .text.wc_ecc_init_ex
                0x00000000       0x4e build/FreeRTOS/production/_ext/1664057780/ecc.o
 .text.wc_ecc_key_new
                0x00000000       0x2a build/FreeRTOS/production/_ext/1664057780/ecc.o
 .text.wc_ecc_init
                0x00000000        0xe build/FreeRTOS/production/_ext/1664057780/ecc.o
 .text.wc_ecc_init_id
                0x00000000       0x42 build/FreeRTOS/production/_ext/1664057780/ecc.o
 .text.wc_ecc_init_label
                0x00000000       0x5a build/FreeRTOS/production/_ext/1664057780/ecc.o
 .text.wc_ecc_set_flags
                0x00000000       0x12 build/FreeRTOS/production/_ext/1664057780/ecc.o
 .text.wc_ecc_free
                0x00000000       0x2c build/FreeRTOS/production/_ext/1664057780/ecc.o
 .text.wc_ecc_key_free
                0x00000000       0x28 build/FreeRTOS/production/_ext/1664057780/ecc.o
 .text.ecc_projective_add_point_safe
                0x00000000      0x14c build/FreeRTOS/production/_ext/1664057780/ecc.o
 .text.ecc_projective_dbl_point_safe
                0x00000000       0x3a build/FreeRTOS/production/_ext/1664057780/ecc.o
 .text.ecc_mulmod
                0x00000000      0x270 build/FreeRTOS/production/_ext/1664057780/ecc.o
 .text.wc_ecc_mulmod_ex
                0x00000000       0xfa build/FreeRTOS/production/_ext/1664057780/ecc.o
 .text.wc_ecc_mulmod
                0x00000000       0x18 build/FreeRTOS/production/_ext/1664057780/ecc.o
 .text.wc_ecc_mulmod_ex2
                0x00000000      0x100 build/FreeRTOS/production/_ext/1664057780/ecc.o
 .text.wc_ecc_shared_secret_gen
                0x00000000      0x12a build/FreeRTOS/production/_ext/1664057780/ecc.o
 .text.wc_ecc_shared_secret_ex
                0x00000000       0x94 build/FreeRTOS/production/_ext/1664057780/ecc.o
 .text.wc_ecc_shared_secret
                0x00000000       0x90 build/FreeRTOS/production/_ext/1664057780/ecc.o
 .text.ecc_make_pub_ex
                0x00000000      0x196 build/FreeRTOS/production/_ext/1664057780/ecc.o
 .text.wc_ecc_make_pub
                0x00000000        0xe build/FreeRTOS/production/_ext/1664057780/ecc.o
 .text.wc_ecc_make_pub_ex
                0x00000000        0xe build/FreeRTOS/production/_ext/1664057780/ecc.o
 .text.wc_ecc_make_key_ex2
                0x00000000       0xd6 build/FreeRTOS/production/_ext/1664057780/ecc.o
 .text.wc_ecc_make_key_ex
                0x00000000       0x10 build/FreeRTOS/production/_ext/1664057780/ecc.o
 .text.wc_ecc_make_key
                0x00000000        0xa build/FreeRTOS/production/_ext/1664057780/ecc.o
 .text.wc_ecc_sign_hash_ex
                0x00000000      0x2b6 build/FreeRTOS/production/_ext/1664057780/ecc.o
 .text.wc_ecc_sign_hash
                0x00000000       0xe0 build/FreeRTOS/production/_ext/1664057780/ecc.o
 .text.wc_ecc_verify_hash_ex
                0x00000000      0x494 build/FreeRTOS/production/_ext/1664057780/ecc.o
 .text.wc_ecc_verify_hash
                0x00000000       0xee build/FreeRTOS/production/_ext/1664057780/ecc.o
 .text.wc_ecc_import_point_der_ex
                0x00000000       0xcc build/FreeRTOS/production/_ext/1664057780/ecc.o
 .text.wc_ecc_import_point_der
                0x00000000       0x10 build/FreeRTOS/production/_ext/1664057780/ecc.o
 .text.wc_ecc_export_point_der
                0x00000000       0xe8 build/FreeRTOS/production/_ext/1664057780/ecc.o
 .text.wc_ecc_export_point_der_ex
                0x00000000       0x12 build/FreeRTOS/production/_ext/1664057780/ecc.o
 .text.wc_ecc_export_x963
                0x00000000      0x11c build/FreeRTOS/production/_ext/1664057780/ecc.o
 .text.wc_ecc_export_x963_ex
                0x00000000       0x10 build/FreeRTOS/production/_ext/1664057780/ecc.o
 .text.wc_ecc_is_point
                0x00000000      0x110 build/FreeRTOS/production/_ext/1664057780/ecc.o
 .text.wc_ecc_check_key
                0x00000000      0x29a build/FreeRTOS/production/_ext/1664057780/ecc.o
 .text.wc_ecc_import_x963_ex
                0x00000000       0xd6 build/FreeRTOS/production/_ext/1664057780/ecc.o
 .text.wc_ecc_import_x963
                0x00000000        0xa build/FreeRTOS/production/_ext/1664057780/ecc.o
 .text.wc_ecc_export_ex
                0x00000000       0xca build/FreeRTOS/production/_ext/1664057780/ecc.o
 .text.wc_ecc_export_private_only
                0x00000000       0x30 build/FreeRTOS/production/_ext/1664057780/ecc.o
 .text.wc_ecc_export_public_raw
                0x00000000       0x3a build/FreeRTOS/production/_ext/1664057780/ecc.o
 .text.wc_ecc_export_private_raw
                0x00000000       0x1c build/FreeRTOS/production/_ext/1664057780/ecc.o
 .text.wc_ecc_import_private_key_ex
                0x00000000       0x70 build/FreeRTOS/production/_ext/1664057780/ecc.o
 .text.wc_ecc_import_private_key
                0x00000000       0x14 build/FreeRTOS/production/_ext/1664057780/ecc.o
 .text.wc_ecc_rs_to_sig
                0x00000000       0xb2 build/FreeRTOS/production/_ext/1664057780/ecc.o
 .text.wc_ecc_rs_raw_to_sig
                0x00000000       0x40 build/FreeRTOS/production/_ext/1664057780/ecc.o
 .text.wc_ecc_sig_to_rs
                0x00000000       0x3c build/FreeRTOS/production/_ext/1664057780/ecc.o
 .text.wc_ecc_import_raw_ex
                0x00000000       0x14 build/FreeRTOS/production/_ext/1664057780/ecc.o
 .text.wc_ecc_import_unsigned
                0x00000000       0x14 build/FreeRTOS/production/_ext/1664057780/ecc.o
 .text.wc_ecc_import_raw
                0x00000000       0x88 build/FreeRTOS/production/_ext/1664057780/ecc.o
 .text.wc_ecc_size
                0x00000000        0xc build/FreeRTOS/production/_ext/1664057780/ecc.o
 .text.wc_ecc_sig_size_calc
                0x00000000       0x10 build/FreeRTOS/production/_ext/1664057780/ecc.o
 .text.wc_ecc_sig_size
                0x00000000       0x3a build/FreeRTOS/production/_ext/1664057780/ecc.o
 .text.wc_ecc_get_oid
                0x00000000       0x5c build/FreeRTOS/production/_ext/1664057780/ecc.o
 .rodata        0x00000000      0xa2c build/FreeRTOS/production/_ext/1664057780/ecc.o
 .rodata.ecc_oid_prime239v1
                0x00000000        0x8 build/FreeRTOS/production/_ext/1664057780/ecc.o
 .rodata.ecc_oid_secp224r1
                0x00000000        0x8 build/FreeRTOS/production/_ext/1664057780/ecc.o
 .rodata.ecc_oid_secp256r1
                0x00000000        0x8 build/FreeRTOS/production/_ext/1664057780/ecc.o
 .rodata.ecc_oid_secp384r1
                0x00000000        0x8 build/FreeRTOS/production/_ext/1664057780/ecc.o
 .rodata.ecc_oid_secp521r1
                0x00000000        0x8 build/FreeRTOS/production/_ext/1664057780/ecc.o
 .rodata.ecc_sets
                0x00000000      0x138 build/FreeRTOS/production/_ext/1664057780/ecc.o
 .rodata.ecc_sets_count
                0x00000000        0x4 build/FreeRTOS/production/_ext/1664057780/ecc.o
 .debug_info    0x00000000     0xb59d build/FreeRTOS/production/_ext/1664057780/ecc.o
 .debug_abbrev  0x00000000      0x564 build/FreeRTOS/production/_ext/1664057780/ecc.o
 .debug_loc     0x00000000     0x9dc3 build/FreeRTOS/production/_ext/1664057780/ecc.o
 .debug_aranges
                0x00000000      0x2c0 build/FreeRTOS/production/_ext/1664057780/ecc.o
 .debug_ranges  0x00000000      0x458 build/FreeRTOS/production/_ext/1664057780/ecc.o
 .debug_line    0x00000000     0x39d2 build/FreeRTOS/production/_ext/1664057780/ecc.o
 .debug_str     0x00000000      0x326 build/FreeRTOS/production/_ext/1664057780/ecc.o
 .comment       0x00000000       0x54 build/FreeRTOS/production/_ext/1664057780/ecc.o
 .debug_frame   0x00000000      0xc24 build/FreeRTOS/production/_ext/1664057780/ecc.o
 .ARM.attributes
                0x00000000       0x34 build/FreeRTOS/production/_ext/1664057780/ecc.o
 .text          0x00000000        0x0 build/FreeRTOS/production/_ext/1360937237/app.o
 .data          0x00000000        0x0 build/FreeRTOS/production/_ext/1360937237/app.o
 .bss           0x00000000        0x0 build/FreeRTOS/production/_ext/1360937237/app.o
 .text          0x00000000        0x0 build/FreeRTOS/production/_ext/1360937237/main.o
 .data          0x00000000        0x0 build/FreeRTOS/production/_ext/1360937237/main.o
 .bss           0x00000000        0x0 build/FreeRTOS/production/_ext/1360937237/main.o
 .text          0x00000000        0x0 build/FreeRTOS/production/_ext/1664057780/misc.o
 .data          0x00000000        0x0 build/FreeRTOS/production/_ext/1664057780/misc.o
 .bss           0x00000000        0x0 build/FreeRTOS/production/_ext/1664057780/misc.o
 .debug_info    0x00000000      0xf79 build/FreeRTOS/production/_ext/1664057780/misc.o
 .debug_abbrev  0x00000000      0x1a1 build/FreeRTOS/production/_ext/1664057780/misc.o
 .debug_aranges
                0x00000000       0x18 build/FreeRTOS/production/_ext/1664057780/misc.o
 .debug_line    0x00000000      0x1ae build/FreeRTOS/production/_ext/1664057780/misc.o
 .debug_str     0x00000000        0xe build/FreeRTOS/production/_ext/1664057780/misc.o
 .comment       0x00000000       0x54 build/FreeRTOS/production/_ext/1664057780/misc.o
 .ARM.attributes
                0x00000000       0x39 build/FreeRTOS/production/_ext/1664057780/misc.o
 .text          0x00000000        0x0 build/FreeRTOS/production/_ext/1664057780/evp.o
 .data          0x00000000        0x0 build/FreeRTOS/production/_ext/1664057780/evp.o
 .bss           0x00000000        0x0 build/FreeRTOS/production/_ext/1664057780/evp.o
 .debug_info    0x00000000      0x35d build/FreeRTOS/production/_ext/1664057780/evp.o
 .debug_abbrev  0x00000000       0x44 build/FreeRTOS/production/_ext/1664057780/evp.o
 .debug_aranges
                0x00000000       0x18 build/FreeRTOS/production/_ext/1664057780/evp.o
 .debug_line    0x00000000       0xe8 build/FreeRTOS/production/_ext/1664057780/evp.o
 .debug_str     0x00000000        0x0 build/FreeRTOS/production/_ext/1664057780/evp.o
 .comment       0x00000000       0x54 build/FreeRTOS/production/_ext/1664057780/evp.o
 .ARM.attributes
                0x00000000       0x39 build/FreeRTOS/production/_ext/1664057780/evp.o
 .text          0x00000000        0x0 build/FreeRTOS/production/_ext/1428073114/plib_sercom0_spi_master.o
 .data          0x00000000        0x0 build/FreeRTOS/production/_ext/1428073114/plib_sercom0_spi_master.o
 .bss           0x00000000        0x0 build/FreeRTOS/production/_ext/1428073114/plib_sercom0_spi_master.o
 .text.SERCOM0_SPI_TransferSetup
                0x00000000       0x98 build/FreeRTOS/production/_ext/1428073114/plib_sercom0_spi_master.o
 .text.SERCOM0_SPI_CallbackRegister
                0x00000000        0xc build/FreeRTOS/production/_ext/1428073114/plib_sercom0_spi_master.o
 .text.SERCOM0_SPI_IsTransmitterBusy
                0x00000000       0x14 build/FreeRTOS/production/_ext/1428073114/plib_sercom0_spi_master.o
 .text.SERCOM0_SPI_Read
                0x00000000       0x10 build/FreeRTOS/production/_ext/1428073114/plib_sercom0_spi_master.o
 .text          0x00000000        0x0 build/FreeRTOS/production/_ext/1434865757/gfx_mono_framebuffer.o
 .data          0x00000000        0x0 build/FreeRTOS/production/_ext/1434865757/gfx_mono_framebuffer.o
 .bss           0x00000000        0x0 build/FreeRTOS/production/_ext/1434865757/gfx_mono_framebuffer.o
 .text.gfx_mono_framebuffer_put_page
                0x00000000       0x34 build/FreeRTOS/production/_ext/1434865757/gfx_mono_framebuffer.o
 .text.gfx_mono_framebuffer_get_page
                0x00000000       0x2c build/FreeRTOS/production/_ext/1434865757/gfx_mono_framebuffer.o
 .text.gfx_mono_framebuffer_draw_pixel
                0x00000000       0x5e build/FreeRTOS/production/_ext/1434865757/gfx_mono_framebuffer.o
 .text.gfx_mono_framebuffer_get_pixel
                0x00000000       0x2e build/FreeRTOS/production/_ext/1434865757/gfx_mono_framebuffer.o
 .text.gfx_mono_framebuffer_mask_byte
                0x00000000       0x3c build/FreeRTOS/production/_ext/1434865757/gfx_mono_framebuffer.o
 .text          0x00000000        0x0 build/FreeRTOS/production/_ext/1434865757/gfx_mono_generic.o
 .data          0x00000000        0x0 build/FreeRTOS/production/_ext/1434865757/gfx_mono_generic.o
 .bss           0x00000000        0x0 build/FreeRTOS/production/_ext/1434865757/gfx_mono_generic.o
 .text.gfx_mono_generic_draw_vertical_line
                0x00000000       0x94 build/FreeRTOS/production/_ext/1434865757/gfx_mono_generic.o
 .text.gfx_mono_generic_draw_line
                0x00000000       0xdc build/FreeRTOS/production/_ext/1434865757/gfx_mono_generic.o
 .text.gfx_mono_generic_draw_rect
                0x00000000       0x48 build/FreeRTOS/production/_ext/1434865757/gfx_mono_generic.o
 .text.gfx_mono_generic_draw_circle
                0x00000000      0x138 build/FreeRTOS/production/_ext/1434865757/gfx_mono_generic.o
 .text.gfx_mono_generic_draw_filled_circle
                0x00000000      0x120 build/FreeRTOS/production/_ext/1434865757/gfx_mono_generic.o
 .text.gfx_mono_generic_put_bitmap
                0x00000000       0x82 build/FreeRTOS/production/_ext/1434865757/gfx_mono_generic.o
 .text          0x00000000        0x0 build/FreeRTOS/production/_ext/1434865757/gfx_mono_text.o
 .data          0x00000000        0x0 build/FreeRTOS/production/_ext/1434865757/gfx_mono_text.o
 .bss           0x00000000        0x0 build/FreeRTOS/production/_ext/1434865757/gfx_mono_text.o
 .text.gfx_mono_draw_progmem_string
                0x00000000       0x74 build/FreeRTOS/production/_ext/1434865757/gfx_mono_text.o
 .text.gfx_mono_get_string_bounding_box
                0x00000000       0x5c build/FreeRTOS/production/_ext/1434865757/gfx_mono_text.o
 .text.gfx_mono_get_progmem_string_bounding_box
                0x00000000       0x64 build/FreeRTOS/production/_ext/1434865757/gfx_mono_text.o
 .rodata.__func__.8958
                0x00000000       0x20 build/FreeRTOS/production/_ext/1434865757/gfx_mono_text.o
 .rodata.__func__.8974
                0x00000000       0x24 build/FreeRTOS/production/_ext/1434865757/gfx_mono_text.o
 .rodata.__func__.8989
                0x00000000       0x2c build/FreeRTOS/production/_ext/1434865757/gfx_mono_text.o
 .text          0x00000000        0x0 build/FreeRTOS/production/_ext/1434865757/gfx_mono_ug_2832hsweg04.o
 .data          0x00000000        0x0 build/FreeRTOS/production/_ext/1434865757/gfx_mono_ug_2832hsweg04.o
 .bss           0x00000000        0x0 build/FreeRTOS/production/_ext/1434865757/gfx_mono_ug_2832hsweg04.o
 .text.gfx_mono_ssd1306_get_pixel
                0x00000000       0x2e build/FreeRTOS/production/_ext/1434865757/gfx_mono_ug_2832hsweg04.o
 .text.gfx_mono_ssd1306_put_page
                0x00000000       0x44 build/FreeRTOS/production/_ext/1434865757/gfx_mono_ug_2832hsweg04.o
 .text.gfx_mono_ssd1306_put_framebuffer
                0x00000000       0x44 build/FreeRTOS/production/_ext/1434865757/gfx_mono_ug_2832hsweg04.o
 .text.gfx_mono_ssd1306_get_page
                0x00000000        0x8 build/FreeRTOS/production/_ext/1434865757/gfx_mono_ug_2832hsweg04.o
 .text.gfx_mono_ssd1306_mask_byte
                0x00000000       0x3c build/FreeRTOS/production/_ext/1434865757/gfx_mono_ug_2832hsweg04.o
 .text          0x00000000        0x0 build/FreeRTOS/production/_ext/1434865757/gfx_ssd1306.o
 .data          0x00000000        0x0 build/FreeRTOS/production/_ext/1434865757/gfx_ssd1306.o
 .bss           0x00000000        0x0 build/FreeRTOS/production/_ext/1434865757/gfx_ssd1306.o
 .text          0x00000000        0x0 build/FreeRTOS/production/_ext/1434865757/gfx_sysfont.o
 .data          0x00000000        0x0 build/FreeRTOS/production/_ext/1434865757/gfx_sysfont.o
 .bss           0x00000000        0x0 build/FreeRTOS/production/_ext/1434865757/gfx_sysfont.o
 .text          0x00000000        0x0 c:/program files/microchip/xc32/v3.01/bin/bin/../../lib/gcc/pic32c/8.3.1/../../../../pic32c/lib/thumb/v7e-m+fp/hard\libpic32c.a(data_init.o)
 .data          0x00000000        0x0 c:/program files/microchip/xc32/v3.01/bin/bin/../../lib/gcc/pic32c/8.3.1/../../../../pic32c/lib/thumb/v7e-m+fp/hard\libpic32c.a(data_init.o)
 .xc_stack_usage
                0x00000000       0x2a c:/program files/microchip/xc32/v3.01/bin/bin/../../lib/gcc/pic32c/8.3.1/../../../../pic32c/lib/thumb/v7e-m+fp/hard\libpic32c.a(data_init.o)
 .xc_stack_usage.hdr
                0x00000000        0xe c:/program files/microchip/xc32/v3.01/bin/bin/../../lib/gcc/pic32c/8.3.1/../../../../pic32c/lib/thumb/v7e-m+fp/hard\libpic32c.a(data_init.o)
 .data          0x00000000        0x0 c:/program files/microchip/xc32/v3.01/bin/bin/../../lib/gcc/pic32c/8.3.1/thumb/v7e-m+fp/hard\libgcc.a(_arm_addsubdf3.o)
 .bss           0x00000000        0x0 c:/program files/microchip/xc32/v3.01/bin/bin/../../lib/gcc/pic32c/8.3.1/thumb/v7e-m+fp/hard\libgcc.a(_arm_addsubdf3.o)
 .xc_stack_usage.hdr
                0x00000000        0xe c:/program files/microchip/xc32/v3.01/bin/bin/../../lib/gcc/pic32c/8.3.1/thumb/v7e-m+fp/hard\libgcc.a(_arm_addsubdf3.o)
 .xc_stack_usage
                0x00000000       0xca c:/program files/microchip/xc32/v3.01/bin/bin/../../lib/gcc/pic32c/8.3.1/thumb/v7e-m+fp/hard\libgcc.a(_arm_addsubdf3.o)
 .data          0x00000000        0x0 c:/program files/microchip/xc32/v3.01/bin/bin/../../lib/gcc/pic32c/8.3.1/thumb/v7e-m+fp/hard\libgcc.a(_arm_muldivdf3.o)
 .bss           0x00000000        0x0 c:/program files/microchip/xc32/v3.01/bin/bin/../../lib/gcc/pic32c/8.3.1/thumb/v7e-m+fp/hard\libgcc.a(_arm_muldivdf3.o)
 .xc_stack_usage.hdr
                0x00000000        0xe c:/program files/microchip/xc32/v3.01/bin/bin/../../lib/gcc/pic32c/8.3.1/thumb/v7e-m+fp/hard\libgcc.a(_arm_muldivdf3.o)
 .xc_stack_usage
                0x00000000       0x2c c:/program files/microchip/xc32/v3.01/bin/bin/../../lib/gcc/pic32c/8.3.1/thumb/v7e-m+fp/hard\libgcc.a(_arm_muldivdf3.o)
 .data          0x00000000        0x0 c:/program files/microchip/xc32/v3.01/bin/bin/../../lib/gcc/pic32c/8.3.1/thumb/v7e-m+fp/hard\libgcc.a(_arm_cmpdf2.o)
 .bss           0x00000000        0x0 c:/program files/microchip/xc32/v3.01/bin/bin/../../lib/gcc/pic32c/8.3.1/thumb/v7e-m+fp/hard\libgcc.a(_arm_cmpdf2.o)
 .xc_stack_usage.hdr
                0x00000000        0xe c:/program files/microchip/xc32/v3.01/bin/bin/../../lib/gcc/pic32c/8.3.1/thumb/v7e-m+fp/hard\libgcc.a(_arm_cmpdf2.o)
 .xc_stack_usage
                0x00000000      0x107 c:/program files/microchip/xc32/v3.01/bin/bin/../../lib/gcc/pic32c/8.3.1/thumb/v7e-m+fp/hard\libgcc.a(_arm_cmpdf2.o)
 .data          0x00000000        0x0 c:/program files/microchip/xc32/v3.01/bin/bin/../../lib/gcc/pic32c/8.3.1/thumb/v7e-m+fp/hard\libgcc.a(_arm_fixunsdfsi.o)
 .bss           0x00000000        0x0 c:/program files/microchip/xc32/v3.01/bin/bin/../../lib/gcc/pic32c/8.3.1/thumb/v7e-m+fp/hard\libgcc.a(_arm_fixunsdfsi.o)
 .xc_stack_usage.hdr
                0x00000000        0xe c:/program files/microchip/xc32/v3.01/bin/bin/../../lib/gcc/pic32c/8.3.1/thumb/v7e-m+fp/hard\libgcc.a(_arm_fixunsdfsi.o)
 .xc_stack_usage
                0x00000000       0x1a c:/program files/microchip/xc32/v3.01/bin/bin/../../lib/gcc/pic32c/8.3.1/thumb/v7e-m+fp/hard\libgcc.a(_arm_fixunsdfsi.o)
 .data          0x00000000        0x0 c:/program files/microchip/xc32/v3.01/bin/bin/../../lib/gcc/pic32c/8.3.1/thumb/v7e-m+fp/hard\libgcc.a(_aeabi_uldivmod.o)
 .bss           0x00000000        0x0 c:/program files/microchip/xc32/v3.01/bin/bin/../../lib/gcc/pic32c/8.3.1/thumb/v7e-m+fp/hard\libgcc.a(_aeabi_uldivmod.o)
 .xc_stack_usage.hdr
                0x00000000        0xe c:/program files/microchip/xc32/v3.01/bin/bin/../../lib/gcc/pic32c/8.3.1/thumb/v7e-m+fp/hard\libgcc.a(_aeabi_uldivmod.o)
 .xc_stack_usage
                0x00000000       0x1e c:/program files/microchip/xc32/v3.01/bin/bin/../../lib/gcc/pic32c/8.3.1/thumb/v7e-m+fp/hard\libgcc.a(_aeabi_uldivmod.o)
 .data          0x00000000        0x0 c:/program files/microchip/xc32/v3.01/bin/bin/../../lib/gcc/pic32c/8.3.1/thumb/v7e-m+fp/hard\libgcc.a(_udivmoddi4.o)
 .bss           0x00000000        0x0 c:/program files/microchip/xc32/v3.01/bin/bin/../../lib/gcc/pic32c/8.3.1/thumb/v7e-m+fp/hard\libgcc.a(_udivmoddi4.o)
 .xc_stack_usage
                0x00000000       0x1a c:/program files/microchip/xc32/v3.01/bin/bin/../../lib/gcc/pic32c/8.3.1/thumb/v7e-m+fp/hard\libgcc.a(_udivmoddi4.o)
 .ARM.extab     0x00000000        0x0 c:/program files/microchip/xc32/v3.01/bin/bin/../../lib/gcc/pic32c/8.3.1/thumb/v7e-m+fp/hard\libgcc.a(_udivmoddi4.o)
 .xc_stack_usage.hdr
                0x00000000        0xe c:/program files/microchip/xc32/v3.01/bin/bin/../../lib/gcc/pic32c/8.3.1/thumb/v7e-m+fp/hard\libgcc.a(_udivmoddi4.o)
 .data          0x00000000        0x0 c:/program files/microchip/xc32/v3.01/bin/bin/../../lib/gcc/pic32c/8.3.1/thumb/v7e-m+fp/hard\libgcc.a(_dvmd_tls.o)
 .bss           0x00000000        0x0 c:/program files/microchip/xc32/v3.01/bin/bin/../../lib/gcc/pic32c/8.3.1/thumb/v7e-m+fp/hard\libgcc.a(_dvmd_tls.o)
 .xc_stack_usage.hdr
                0x00000000        0xe c:/program files/microchip/xc32/v3.01/bin/bin/../../lib/gcc/pic32c/8.3.1/thumb/v7e-m+fp/hard\libgcc.a(_dvmd_tls.o)
 .xc_stack_usage
                0x00000000       0x36 c:/program files/microchip/xc32/v3.01/bin/bin/../../lib/gcc/pic32c/8.3.1/thumb/v7e-m+fp/hard\libgcc.a(_dvmd_tls.o)
 .text          0x00000000        0x0 c:/program files/microchip/xc32/v3.01/bin/bin/../../lib/gcc/pic32c/8.3.1/../../../../pic32c/lib/thumb/v7e-m+fp/hard\libc_nano.a(lib_a-assert.o)
 .data          0x00000000        0x0 c:/program files/microchip/xc32/v3.01/bin/bin/../../lib/gcc/pic32c/8.3.1/../../../../pic32c/lib/thumb/v7e-m+fp/hard\libc_nano.a(lib_a-assert.o)
 .bss           0x00000000        0x0 c:/program files/microchip/xc32/v3.01/bin/bin/../../lib/gcc/pic32c/8.3.1/../../../../pic32c/lib/thumb/v7e-m+fp/hard\libc_nano.a(lib_a-assert.o)
 .xc_stack_usage
                0x00000000       0x31 c:/program files/microchip/xc32/v3.01/bin/bin/../../lib/gcc/pic32c/8.3.1/../../../../pic32c/lib/thumb/v7e-m+fp/hard\libc_nano.a(lib_a-assert.o)
 .text.__assert
                0x00000000        0xa c:/program files/microchip/xc32/v3.01/bin/bin/../../lib/gcc/pic32c/8.3.1/../../../../pic32c/lib/thumb/v7e-m+fp/hard\libc_nano.a(lib_a-assert.o)
 .xc_stack_usage.hdr
                0x00000000        0xe c:/program files/microchip/xc32/v3.01/bin/bin/../../lib/gcc/pic32c/8.3.1/../../../../pic32c/lib/thumb/v7e-m+fp/hard\libc_nano.a(lib_a-assert.o)
 .text          0x00000000        0x0 c:/program files/microchip/xc32/v3.01/bin/bin/../../lib/gcc/pic32c/8.3.1/../../../../pic32c/lib/thumb/v7e-m+fp/hard\libc_nano.a(lib_a-atoi.o)
 .data          0x00000000        0x0 c:/program files/microchip/xc32/v3.01/bin/bin/../../lib/gcc/pic32c/8.3.1/../../../../pic32c/lib/thumb/v7e-m+fp/hard\libc_nano.a(lib_a-atoi.o)
 .bss           0x00000000        0x0 c:/program files/microchip/xc32/v3.01/bin/bin/../../lib/gcc/pic32c/8.3.1/../../../../pic32c/lib/thumb/v7e-m+fp/hard\libc_nano.a(lib_a-atoi.o)
 .xc_stack_usage
                0x00000000       0x27 c:/program files/microchip/xc32/v3.01/bin/bin/../../lib/gcc/pic32c/8.3.1/../../../../pic32c/lib/thumb/v7e-m+fp/hard\libc_nano.a(lib_a-atoi.o)
 .text._atoi_r  0x00000000        0x8 c:/program files/microchip/xc32/v3.01/bin/bin/../../lib/gcc/pic32c/8.3.1/../../../../pic32c/lib/thumb/v7e-m+fp/hard\libc_nano.a(lib_a-atoi.o)
 .xc_stack_usage.hdr
                0x00000000        0xe c:/program files/microchip/xc32/v3.01/bin/bin/../../lib/gcc/pic32c/8.3.1/../../../../pic32c/lib/thumb/v7e-m+fp/hard\libc_nano.a(lib_a-atoi.o)
 .text          0x00000000        0x0 c:/program files/microchip/xc32/v3.01/bin/bin/../../lib/gcc/pic32c/8.3.1/../../../../pic32c/lib/thumb/v7e-m+fp/hard\libc_nano.a(lib_a-calloc.o)
 .data          0x00000000        0x0 c:/program files/microchip/xc32/v3.01/bin/bin/../../lib/gcc/pic32c/8.3.1/../../../../pic32c/lib/thumb/v7e-m+fp/hard\libc_nano.a(lib_a-calloc.o)
 .bss           0x00000000        0x0 c:/program files/microchip/xc32/v3.01/bin/bin/../../lib/gcc/pic32c/8.3.1/../../../../pic32c/lib/thumb/v7e-m+fp/hard\libc_nano.a(lib_a-calloc.o)
 .xc_stack_usage
                0x00000000       0x14 c:/program files/microchip/xc32/v3.01/bin/bin/../../lib/gcc/pic32c/8.3.1/../../../../pic32c/lib/thumb/v7e-m+fp/hard\libc_nano.a(lib_a-calloc.o)
 .xc_stack_usage.hdr
                0x00000000        0xe c:/program files/microchip/xc32/v3.01/bin/bin/../../lib/gcc/pic32c/8.3.1/../../../../pic32c/lib/thumb/v7e-m+fp/hard\libc_nano.a(lib_a-calloc.o)
 .text          0x00000000        0x0 c:/program files/microchip/xc32/v3.01/bin/bin/../../lib/gcc/pic32c/8.3.1/../../../../pic32c/lib/thumb/v7e-m+fp/hard\libc_nano.a(lib_a-ctype_.o)
 .data          0x00000000        0x0 c:/program files/microchip/xc32/v3.01/bin/bin/../../lib/gcc/pic32c/8.3.1/../../../../pic32c/lib/thumb/v7e-m+fp/hard\libc_nano.a(lib_a-ctype_.o)
 .bss           0x00000000        0x0 c:/program files/microchip/xc32/v3.01/bin/bin/../../lib/gcc/pic32c/8.3.1/../../../../pic32c/lib/thumb/v7e-m+fp/hard\libc_nano.a(lib_a-ctype_.o)
 .xc_stack_usage.hdr
                0x00000000        0xe c:/program files/microchip/xc32/v3.01/bin/bin/../../lib/gcc/pic32c/8.3.1/../../../../pic32c/lib/thumb/v7e-m+fp/hard\libc_nano.a(lib_a-ctype_.o)
 .text          0x00000000        0x0 c:/program files/microchip/xc32/v3.01/bin/bin/../../lib/gcc/pic32c/8.3.1/../../../../pic32c/lib/thumb/v7e-m+fp/hard\libc_nano.a(lib_a-fprintf.o)
 .data          0x00000000        0x0 c:/program files/microchip/xc32/v3.01/bin/bin/../../lib/gcc/pic32c/8.3.1/../../../../pic32c/lib/thumb/v7e-m+fp/hard\libc_nano.a(lib_a-fprintf.o)
 .bss           0x00000000        0x0 c:/program files/microchip/xc32/v3.01/bin/bin/../../lib/gcc/pic32c/8.3.1/../../../../pic32c/lib/thumb/v7e-m+fp/hard\libc_nano.a(lib_a-fprintf.o)
 .xc_stack_usage
                0x00000000       0x2d c:/program files/microchip/xc32/v3.01/bin/bin/../../lib/gcc/pic32c/8.3.1/../../../../pic32c/lib/thumb/v7e-m+fp/hard\libc_nano.a(lib_a-fprintf.o)
 .text._fprintf_r
                0x00000000       0x1a c:/program files/microchip/xc32/v3.01/bin/bin/../../lib/gcc/pic32c/8.3.1/../../../../pic32c/lib/thumb/v7e-m+fp/hard\libc_nano.a(lib_a-fprintf.o)
 .xc_stack_usage.hdr
                0x00000000        0xe c:/program files/microchip/xc32/v3.01/bin/bin/../../lib/gcc/pic32c/8.3.1/../../../../pic32c/lib/thumb/v7e-m+fp/hard\libc_nano.a(lib_a-fprintf.o)
 .text          0x00000000        0x0 c:/program files/microchip/xc32/v3.01/bin/bin/../../lib/gcc/pic32c/8.3.1/../../../../pic32c/lib/thumb/v7e-m+fp/hard\libc_nano.a(lib_a-gmtime.o)
 .data          0x00000000        0x0 c:/program files/microchip/xc32/v3.01/bin/bin/../../lib/gcc/pic32c/8.3.1/../../../../pic32c/lib/thumb/v7e-m+fp/hard\libc_nano.a(lib_a-gmtime.o)
 .bss           0x00000000        0x0 c:/program files/microchip/xc32/v3.01/bin/bin/../../lib/gcc/pic32c/8.3.1/../../../../pic32c/lib/thumb/v7e-m+fp/hard\libc_nano.a(lib_a-gmtime.o)
 .xc_stack_usage
                0x00000000       0x14 c:/program files/microchip/xc32/v3.01/bin/bin/../../lib/gcc/pic32c/8.3.1/../../../../pic32c/lib/thumb/v7e-m+fp/hard\libc_nano.a(lib_a-gmtime.o)
 .text.gmtime   0x00000000       0x24 c:/program files/microchip/xc32/v3.01/bin/bin/../../lib/gcc/pic32c/8.3.1/../../../../pic32c/lib/thumb/v7e-m+fp/hard\libc_nano.a(lib_a-gmtime.o)
 .xc_stack_usage.hdr
                0x00000000        0xe c:/program files/microchip/xc32/v3.01/bin/bin/../../lib/gcc/pic32c/8.3.1/../../../../pic32c/lib/thumb/v7e-m+fp/hard\libc_nano.a(lib_a-gmtime.o)
 .comment       0x00000000       0x54 c:/program files/microchip/xc32/v3.01/bin/bin/../../lib/gcc/pic32c/8.3.1/../../../../pic32c/lib/thumb/v7e-m+fp/hard\libc_nano.a(lib_a-gmtime.o)
 .ARM.attributes
                0x00000000       0x34 c:/program files/microchip/xc32/v3.01/bin/bin/../../lib/gcc/pic32c/8.3.1/../../../../pic32c/lib/thumb/v7e-m+fp/hard\libc_nano.a(lib_a-gmtime.o)
 .text          0x00000000        0x0 c:/program files/microchip/xc32/v3.01/bin/bin/../../lib/gcc/pic32c/8.3.1/../../../../pic32c/lib/thumb/v7e-m+fp/hard\libc_nano.a(lib_a-gmtime_r.o)
 .data          0x00000000        0x0 c:/program files/microchip/xc32/v3.01/bin/bin/../../lib/gcc/pic32c/8.3.1/../../../../pic32c/lib/thumb/v7e-m+fp/hard\libc_nano.a(lib_a-gmtime_r.o)
 .bss           0x00000000        0x0 c:/program files/microchip/xc32/v3.01/bin/bin/../../lib/gcc/pic32c/8.3.1/../../../../pic32c/lib/thumb/v7e-m+fp/hard\libc_nano.a(lib_a-gmtime_r.o)
 .xc_stack_usage
                0x00000000       0x16 c:/program files/microchip/xc32/v3.01/bin/bin/../../lib/gcc/pic32c/8.3.1/../../../../pic32c/lib/thumb/v7e-m+fp/hard\libc_nano.a(lib_a-gmtime_r.o)
 .text.gmtime_r
                0x00000000      0x11c c:/program files/microchip/xc32/v3.01/bin/bin/../../lib/gcc/pic32c/8.3.1/../../../../pic32c/lib/thumb/v7e-m+fp/hard\libc_nano.a(lib_a-gmtime_r.o)
 .xc_stack_usage.hdr
                0x00000000        0xe c:/program files/microchip/xc32/v3.01/bin/bin/../../lib/gcc/pic32c/8.3.1/../../../../pic32c/lib/thumb/v7e-m+fp/hard\libc_nano.a(lib_a-gmtime_r.o)
 .comment       0x00000000       0x54 c:/program files/microchip/xc32/v3.01/bin/bin/../../lib/gcc/pic32c/8.3.1/../../../../pic32c/lib/thumb/v7e-m+fp/hard\libc_nano.a(lib_a-gmtime_r.o)
 .ARM.attributes
                0x00000000       0x34 c:/program files/microchip/xc32/v3.01/bin/bin/../../lib/gcc/pic32c/8.3.1/../../../../pic32c/lib/thumb/v7e-m+fp/hard\libc_nano.a(lib_a-gmtime_r.o)
 .text          0x00000000        0x0 c:/program files/microchip/xc32/v3.01/bin/bin/../../lib/gcc/pic32c/8.3.1/../../../../pic32c/lib/thumb/v7e-m+fp/hard\libc_nano.a(lib_a-impure.o)
 .data          0x00000000        0x0 c:/program files/microchip/xc32/v3.01/bin/bin/../../lib/gcc/pic32c/8.3.1/../../../../pic32c/lib/thumb/v7e-m+fp/hard\libc_nano.a(lib_a-impure.o)
 .bss           0x00000000        0x0 c:/program files/microchip/xc32/v3.01/bin/bin/../../lib/gcc/pic32c/8.3.1/../../../../pic32c/lib/thumb/v7e-m+fp/hard\libc_nano.a(lib_a-impure.o)
 .xc_stack_usage.hdr
                0x00000000        0xe c:/program files/microchip/xc32/v3.01/bin/bin/../../lib/gcc/pic32c/8.3.1/../../../../pic32c/lib/thumb/v7e-m+fp/hard\libc_nano.a(lib_a-impure.o)
 .text          0x00000000        0x0 c:/program files/microchip/xc32/v3.01/bin/bin/../../lib/gcc/pic32c/8.3.1/../../../../pic32c/lib/thumb/v7e-m+fp/hard\libc_nano.a(lib_a-init.o)
 .data          0x00000000        0x0 c:/program files/microchip/xc32/v3.01/bin/bin/../../lib/gcc/pic32c/8.3.1/../../../../pic32c/lib/thumb/v7e-m+fp/hard\libc_nano.a(lib_a-init.o)
 .bss           0x00000000        0x0 c:/program files/microchip/xc32/v3.01/bin/bin/../../lib/gcc/pic32c/8.3.1/../../../../pic32c/lib/thumb/v7e-m+fp/hard\libc_nano.a(lib_a-init.o)
 .xc_stack_usage
                0x00000000       0x1f c:/program files/microchip/xc32/v3.01/bin/bin/../../lib/gcc/pic32c/8.3.1/../../../../pic32c/lib/thumb/v7e-m+fp/hard\libc_nano.a(lib_a-init.o)
 .xc_stack_usage.hdr
                0x00000000        0xe c:/program files/microchip/xc32/v3.01/bin/bin/../../lib/gcc/pic32c/8.3.1/../../../../pic32c/lib/thumb/v7e-m+fp/hard\libc_nano.a(lib_a-init.o)
 .text          0x00000000        0x0 c:/program files/microchip/xc32/v3.01/bin/bin/../../lib/gcc/pic32c/8.3.1/../../../../pic32c/lib/thumb/v7e-m+fp/hard\libc_nano.a(lib_a-malloc.o)
 .data          0x00000000        0x0 c:/program files/microchip/xc32/v3.01/bin/bin/../../lib/gcc/pic32c/8.3.1/../../../../pic32c/lib/thumb/v7e-m+fp/hard\libc_nano.a(lib_a-malloc.o)
 .bss           0x00000000        0x0 c:/program files/microchip/xc32/v3.01/bin/bin/../../lib/gcc/pic32c/8.3.1/../../../../pic32c/lib/thumb/v7e-m+fp/hard\libc_nano.a(lib_a-malloc.o)
 .xc_stack_usage
                0x00000000       0x26 c:/program files/microchip/xc32/v3.01/bin/bin/../../lib/gcc/pic32c/8.3.1/../../../../pic32c/lib/thumb/v7e-m+fp/hard\libc_nano.a(lib_a-malloc.o)
 .xc_stack_usage.hdr
                0x00000000        0xe c:/program files/microchip/xc32/v3.01/bin/bin/../../lib/gcc/pic32c/8.3.1/../../../../pic32c/lib/thumb/v7e-m+fp/hard\libc_nano.a(lib_a-malloc.o)
 .text          0x00000000        0x0 c:/program files/microchip/xc32/v3.01/bin/bin/../../lib/gcc/pic32c/8.3.1/../../../../pic32c/lib/thumb/v7e-m+fp/hard\libc_nano.a(lib_a-memcmp.o)
 .data          0x00000000        0x0 c:/program files/microchip/xc32/v3.01/bin/bin/../../lib/gcc/pic32c/8.3.1/../../../../pic32c/lib/thumb/v7e-m+fp/hard\libc_nano.a(lib_a-memcmp.o)
 .bss           0x00000000        0x0 c:/program files/microchip/xc32/v3.01/bin/bin/../../lib/gcc/pic32c/8.3.1/../../../../pic32c/lib/thumb/v7e-m+fp/hard\libc_nano.a(lib_a-memcmp.o)
 .xc_stack_usage
                0x00000000       0x14 c:/program files/microchip/xc32/v3.01/bin/bin/../../lib/gcc/pic32c/8.3.1/../../../../pic32c/lib/thumb/v7e-m+fp/hard\libc_nano.a(lib_a-memcmp.o)
 .xc_stack_usage.hdr
                0x00000000        0xe c:/program files/microchip/xc32/v3.01/bin/bin/../../lib/gcc/pic32c/8.3.1/../../../../pic32c/lib/thumb/v7e-m+fp/hard\libc_nano.a(lib_a-memcmp.o)
 .text          0x00000000        0x0 c:/program files/microchip/xc32/v3.01/bin/bin/../../lib/gcc/pic32c/8.3.1/../../../../pic32c/lib/thumb/v7e-m+fp/hard\libc_nano.a(lib_a-memcpy-stub.o)
 .data          0x00000000        0x0 c:/program files/microchip/xc32/v3.01/bin/bin/../../lib/gcc/pic32c/8.3.1/../../../../pic32c/lib/thumb/v7e-m+fp/hard\libc_nano.a(lib_a-memcpy-stub.o)
 .bss           0x00000000        0x0 c:/program files/microchip/xc32/v3.01/bin/bin/../../lib/gcc/pic32c/8.3.1/../../../../pic32c/lib/thumb/v7e-m+fp/hard\libc_nano.a(lib_a-memcpy-stub.o)
 .xc_stack_usage
                0x00000000       0x14 c:/program files/microchip/xc32/v3.01/bin/bin/../../lib/gcc/pic32c/8.3.1/../../../../pic32c/lib/thumb/v7e-m+fp/hard\libc_nano.a(lib_a-memcpy-stub.o)
 .xc_stack_usage.hdr
                0x00000000        0xe c:/program files/microchip/xc32/v3.01/bin/bin/../../lib/gcc/pic32c/8.3.1/../../../../pic32c/lib/thumb/v7e-m+fp/hard\libc_nano.a(lib_a-memcpy-stub.o)
 .text          0x00000000        0x0 c:/program files/microchip/xc32/v3.01/bin/bin/../../lib/gcc/pic32c/8.3.1/../../../../pic32c/lib/thumb/v7e-m+fp/hard\libc_nano.a(lib_a-memmove.o)
 .data          0x00000000        0x0 c:/program files/microchip/xc32/v3.01/bin/bin/../../lib/gcc/pic32c/8.3.1/../../../../pic32c/lib/thumb/v7e-m+fp/hard\libc_nano.a(lib_a-memmove.o)
 .bss           0x00000000        0x0 c:/program files/microchip/xc32/v3.01/bin/bin/../../lib/gcc/pic32c/8.3.1/../../../../pic32c/lib/thumb/v7e-m+fp/hard\libc_nano.a(lib_a-memmove.o)
 .xc_stack_usage
                0x00000000       0x15 c:/program files/microchip/xc32/v3.01/bin/bin/../../lib/gcc/pic32c/8.3.1/../../../../pic32c/lib/thumb/v7e-m+fp/hard\libc_nano.a(lib_a-memmove.o)
 .xc_stack_usage.hdr
                0x00000000        0xe c:/program files/microchip/xc32/v3.01/bin/bin/../../lib/gcc/pic32c/8.3.1/../../../../pic32c/lib/thumb/v7e-m+fp/hard\libc_nano.a(lib_a-memmove.o)
 .text          0x00000000        0x0 c:/program files/microchip/xc32/v3.01/bin/bin/../../lib/gcc/pic32c/8.3.1/../../../../pic32c/lib/thumb/v7e-m+fp/hard\libc_nano.a(lib_a-memset.o)
 .data          0x00000000        0x0 c:/program files/microchip/xc32/v3.01/bin/bin/../../lib/gcc/pic32c/8.3.1/../../../../pic32c/lib/thumb/v7e-m+fp/hard\libc_nano.a(lib_a-memset.o)
 .bss           0x00000000        0x0 c:/program files/microchip/xc32/v3.01/bin/bin/../../lib/gcc/pic32c/8.3.1/../../../../pic32c/lib/thumb/v7e-m+fp/hard\libc_nano.a(lib_a-memset.o)
 .xc_stack_usage
                0x00000000       0x14 c:/program files/microchip/xc32/v3.01/bin/bin/../../lib/gcc/pic32c/8.3.1/../../../../pic32c/lib/thumb/v7e-m+fp/hard\libc_nano.a(lib_a-memset.o)
 .xc_stack_usage.hdr
                0x00000000        0xe c:/program files/microchip/xc32/v3.01/bin/bin/../../lib/gcc/pic32c/8.3.1/../../../../pic32c/lib/thumb/v7e-m+fp/hard\libc_nano.a(lib_a-memset.o)
 .text          0x00000000        0x0 c:/program files/microchip/xc32/v3.01/bin/bin/../../lib/gcc/pic32c/8.3.1/../../../../pic32c/lib/thumb/v7e-m+fp/hard\libc_nano.a(lib_a-nano-callocr.o)
 .data          0x00000000        0x0 c:/program files/microchip/xc32/v3.01/bin/bin/../../lib/gcc/pic32c/8.3.1/../../../../pic32c/lib/thumb/v7e-m+fp/hard\libc_nano.a(lib_a-nano-callocr.o)
 .bss           0x00000000        0x0 c:/program files/microchip/xc32/v3.01/bin/bin/../../lib/gcc/pic32c/8.3.1/../../../../pic32c/lib/thumb/v7e-m+fp/hard\libc_nano.a(lib_a-nano-callocr.o)
 .xc_stack_usage
                0x00000000       0x17 c:/program files/microchip/xc32/v3.01/bin/bin/../../lib/gcc/pic32c/8.3.1/../../../../pic32c/lib/thumb/v7e-m+fp/hard\libc_nano.a(lib_a-nano-callocr.o)
 .xc_stack_usage.hdr
                0x00000000        0xe c:/program files/microchip/xc32/v3.01/bin/bin/../../lib/gcc/pic32c/8.3.1/../../../../pic32c/lib/thumb/v7e-m+fp/hard\libc_nano.a(lib_a-nano-callocr.o)
 .text          0x00000000        0x0 c:/program files/microchip/xc32/v3.01/bin/bin/../../lib/gcc/pic32c/8.3.1/../../../../pic32c/lib/thumb/v7e-m+fp/hard\libc_nano.a(lib_a-nano-freer.o)
 .data          0x00000000        0x0 c:/program files/microchip/xc32/v3.01/bin/bin/../../lib/gcc/pic32c/8.3.1/../../../../pic32c/lib/thumb/v7e-m+fp/hard\libc_nano.a(lib_a-nano-freer.o)
 .bss           0x00000000        0x0 c:/program files/microchip/xc32/v3.01/bin/bin/../../lib/gcc/pic32c/8.3.1/../../../../pic32c/lib/thumb/v7e-m+fp/hard\libc_nano.a(lib_a-nano-freer.o)
 .xc_stack_usage
                0x00000000       0x15 c:/program files/microchip/xc32/v3.01/bin/bin/../../lib/gcc/pic32c/8.3.1/../../../../pic32c/lib/thumb/v7e-m+fp/hard\libc_nano.a(lib_a-nano-freer.o)
 .xc_stack_usage.hdr
                0x00000000        0xe c:/program files/microchip/xc32/v3.01/bin/bin/../../lib/gcc/pic32c/8.3.1/../../../../pic32c/lib/thumb/v7e-m+fp/hard\libc_nano.a(lib_a-nano-freer.o)
 .text          0x00000000        0x0 c:/program files/microchip/xc32/v3.01/bin/bin/../../lib/gcc/pic32c/8.3.1/../../../../pic32c/lib/thumb/v7e-m+fp/hard\libc_nano.a(lib_a-nano-mallocr.o)
 .data          0x00000000        0x0 c:/program files/microchip/xc32/v3.01/bin/bin/../../lib/gcc/pic32c/8.3.1/../../../../pic32c/lib/thumb/v7e-m+fp/hard\libc_nano.a(lib_a-nano-mallocr.o)
 .bss           0x00000000        0x0 c:/program files/microchip/xc32/v3.01/bin/bin/../../lib/gcc/pic32c/8.3.1/../../../../pic32c/lib/thumb/v7e-m+fp/hard\libc_nano.a(lib_a-nano-mallocr.o)
 .xc_stack_usage
                0x00000000       0x17 c:/program files/microchip/xc32/v3.01/bin/bin/../../lib/gcc/pic32c/8.3.1/../../../../pic32c/lib/thumb/v7e-m+fp/hard\libc_nano.a(lib_a-nano-mallocr.o)
 .xc_stack_usage.hdr
                0x00000000        0xe c:/program files/microchip/xc32/v3.01/bin/bin/../../lib/gcc/pic32c/8.3.1/../../../../pic32c/lib/thumb/v7e-m+fp/hard\libc_nano.a(lib_a-nano-mallocr.o)
 .text          0x00000000        0x0 c:/program files/microchip/xc32/v3.01/bin/bin/../../lib/gcc/pic32c/8.3.1/../../../../pic32c/lib/thumb/v7e-m+fp/hard\libc_nano.a(lib_a-nano-vfprintf.o)
 .data          0x00000000        0x0 c:/program files/microchip/xc32/v3.01/bin/bin/../../lib/gcc/pic32c/8.3.1/../../../../pic32c/lib/thumb/v7e-m+fp/hard\libc_nano.a(lib_a-nano-vfprintf.o)
 .bss           0x00000000        0x0 c:/program files/microchip/xc32/v3.01/bin/bin/../../lib/gcc/pic32c/8.3.1/../../../../pic32c/lib/thumb/v7e-m+fp/hard\libc_nano.a(lib_a-nano-vfprintf.o)
 .xc_stack_usage
                0x00000000       0x2f c:/program files/microchip/xc32/v3.01/bin/bin/../../lib/gcc/pic32c/8.3.1/../../../../pic32c/lib/thumb/v7e-m+fp/hard\libc_nano.a(lib_a-nano-vfprintf.o)
 .text.vfprintf
                0x00000000       0x14 c:/program files/microchip/xc32/v3.01/bin/bin/../../lib/gcc/pic32c/8.3.1/../../../../pic32c/lib/thumb/v7e-m+fp/hard\libc_nano.a(lib_a-nano-vfprintf.o)
 .xc_stack_usage.hdr
                0x00000000        0xe c:/program files/microchip/xc32/v3.01/bin/bin/../../lib/gcc/pic32c/8.3.1/../../../../pic32c/lib/thumb/v7e-m+fp/hard\libc_nano.a(lib_a-nano-vfprintf.o)
 .text          0x00000000        0x0 c:/program files/microchip/xc32/v3.01/bin/bin/../../lib/gcc/pic32c/8.3.1/../../../../pic32c/lib/thumb/v7e-m+fp/hard\libc_nano.a(lib_a-nano-vfprintf_float.o)
 .data          0x00000000        0x0 c:/program files/microchip/xc32/v3.01/bin/bin/../../lib/gcc/pic32c/8.3.1/../../../../pic32c/lib/thumb/v7e-m+fp/hard\libc_nano.a(lib_a-nano-vfprintf_float.o)
 .bss           0x00000000        0x0 c:/program files/microchip/xc32/v3.01/bin/bin/../../lib/gcc/pic32c/8.3.1/../../../../pic32c/lib/thumb/v7e-m+fp/hard\libc_nano.a(lib_a-nano-vfprintf_float.o)
 .xc_stack_usage
                0x00000000       0x1b c:/program files/microchip/xc32/v3.01/bin/bin/../../lib/gcc/pic32c/8.3.1/../../../../pic32c/lib/thumb/v7e-m+fp/hard\libc_nano.a(lib_a-nano-vfprintf_float.o)
 .xc_stack_usage.hdr
                0x00000000        0xe c:/program files/microchip/xc32/v3.01/bin/bin/../../lib/gcc/pic32c/8.3.1/../../../../pic32c/lib/thumb/v7e-m+fp/hard\libc_nano.a(lib_a-nano-vfprintf_float.o)
 .text          0x00000000        0x0 c:/program files/microchip/xc32/v3.01/bin/bin/../../lib/gcc/pic32c/8.3.1/../../../../pic32c/lib/thumb/v7e-m+fp/hard\libc_nano.a(lib_a-nano-vfprintf_i.o)
 .data          0x00000000        0x0 c:/program files/microchip/xc32/v3.01/bin/bin/../../lib/gcc/pic32c/8.3.1/../../../../pic32c/lib/thumb/v7e-m+fp/hard\libc_nano.a(lib_a-nano-vfprintf_i.o)
 .bss           0x00000000        0x0 c:/program files/microchip/xc32/v3.01/bin/bin/../../lib/gcc/pic32c/8.3.1/../../../../pic32c/lib/thumb/v7e-m+fp/hard\libc_nano.a(lib_a-nano-vfprintf_i.o)
 .xc_stack_usage
                0x00000000       0x33 c:/program files/microchip/xc32/v3.01/bin/bin/../../lib/gcc/pic32c/8.3.1/../../../../pic32c/lib/thumb/v7e-m+fp/hard\libc_nano.a(lib_a-nano-vfprintf_i.o)
 .xc_stack_usage.hdr
                0x00000000        0xe c:/program files/microchip/xc32/v3.01/bin/bin/../../lib/gcc/pic32c/8.3.1/../../../../pic32c/lib/thumb/v7e-m+fp/hard\libc_nano.a(lib_a-nano-vfprintf_i.o)
 .text          0x00000000        0x0 c:/program files/microchip/xc32/v3.01/bin/bin/../../lib/gcc/pic32c/8.3.1/../../../../pic32c/lib/thumb/v7e-m+fp/hard\libc_nano.a(lib_a-rand.o)
 .data          0x00000000        0x0 c:/program files/microchip/xc32/v3.01/bin/bin/../../lib/gcc/pic32c/8.3.1/../../../../pic32c/lib/thumb/v7e-m+fp/hard\libc_nano.a(lib_a-rand.o)
 .bss           0x00000000        0x0 c:/program files/microchip/xc32/v3.01/bin/bin/../../lib/gcc/pic32c/8.3.1/../../../../pic32c/lib/thumb/v7e-m+fp/hard\libc_nano.a(lib_a-rand.o)
 .xc_stack_usage
                0x00000000       0x25 c:/program files/microchip/xc32/v3.01/bin/bin/../../lib/gcc/pic32c/8.3.1/../../../../pic32c/lib/thumb/v7e-m+fp/hard\libc_nano.a(lib_a-rand.o)
 .xc_stack_usage.hdr
                0x00000000        0xe c:/program files/microchip/xc32/v3.01/bin/bin/../../lib/gcc/pic32c/8.3.1/../../../../pic32c/lib/thumb/v7e-m+fp/hard\libc_nano.a(lib_a-rand.o)
 .text          0x00000000        0x0 c:/program files/microchip/xc32/v3.01/bin/bin/../../lib/gcc/pic32c/8.3.1/../../../../pic32c/lib/thumb/v7e-m+fp/hard\libc_nano.a(lib_a-sbrkr.o)
 .data          0x00000000        0x0 c:/program files/microchip/xc32/v3.01/bin/bin/../../lib/gcc/pic32c/8.3.1/../../../../pic32c/lib/thumb/v7e-m+fp/hard\libc_nano.a(lib_a-sbrkr.o)
 .bss           0x00000000        0x0 c:/program files/microchip/xc32/v3.01/bin/bin/../../lib/gcc/pic32c/8.3.1/../../../../pic32c/lib/thumb/v7e-m+fp/hard\libc_nano.a(lib_a-sbrkr.o)
 .xc_stack_usage
                0x00000000       0x15 c:/program files/microchip/xc32/v3.01/bin/bin/../../lib/gcc/pic32c/8.3.1/../../../../pic32c/lib/thumb/v7e-m+fp/hard\libc_nano.a(lib_a-sbrkr.o)
 .xc_stack_usage.hdr
                0x00000000        0xe c:/program files/microchip/xc32/v3.01/bin/bin/../../lib/gcc/pic32c/8.3.1/../../../../pic32c/lib/thumb/v7e-m+fp/hard\libc_nano.a(lib_a-sbrkr.o)
 .text          0x00000000        0x0 c:/program files/microchip/xc32/v3.01/bin/bin/../../lib/gcc/pic32c/8.3.1/../../../../pic32c/lib/thumb/v7e-m+fp/hard\libc_nano.a(lib_a-snprintf.o)
 .data          0x00000000        0x0 c:/program files/microchip/xc32/v3.01/bin/bin/../../lib/gcc/pic32c/8.3.1/../../../../pic32c/lib/thumb/v7e-m+fp/hard\libc_nano.a(lib_a-snprintf.o)
 .bss           0x00000000        0x0 c:/program files/microchip/xc32/v3.01/bin/bin/../../lib/gcc/pic32c/8.3.1/../../../../pic32c/lib/thumb/v7e-m+fp/hard\libc_nano.a(lib_a-snprintf.o)
 .xc_stack_usage
                0x00000000       0x2f c:/program files/microchip/xc32/v3.01/bin/bin/../../lib/gcc/pic32c/8.3.1/../../../../pic32c/lib/thumb/v7e-m+fp/hard\libc_nano.a(lib_a-snprintf.o)
 .text._snprintf_r
                0x00000000       0x62 c:/program files/microchip/xc32/v3.01/bin/bin/../../lib/gcc/pic32c/8.3.1/../../../../pic32c/lib/thumb/v7e-m+fp/hard\libc_nano.a(lib_a-snprintf.o)
 .xc_stack_usage.hdr
                0x00000000        0xe c:/program files/microchip/xc32/v3.01/bin/bin/../../lib/gcc/pic32c/8.3.1/../../../../pic32c/lib/thumb/v7e-m+fp/hard\libc_nano.a(lib_a-snprintf.o)
 .text          0x00000000        0x0 c:/program files/microchip/xc32/v3.01/bin/bin/../../lib/gcc/pic32c/8.3.1/../../../../pic32c/lib/thumb/v7e-m+fp/hard\libc_nano.a(lib_a-sprintf.o)
 .data          0x00000000        0x0 c:/program files/microchip/xc32/v3.01/bin/bin/../../lib/gcc/pic32c/8.3.1/../../../../pic32c/lib/thumb/v7e-m+fp/hard\libc_nano.a(lib_a-sprintf.o)
 .bss           0x00000000        0x0 c:/program files/microchip/xc32/v3.01/bin/bin/../../lib/gcc/pic32c/8.3.1/../../../../pic32c/lib/thumb/v7e-m+fp/hard\libc_nano.a(lib_a-sprintf.o)
 .xc_stack_usage
                0x00000000       0x2d c:/program files/microchip/xc32/v3.01/bin/bin/../../lib/gcc/pic32c/8.3.1/../../../../pic32c/lib/thumb/v7e-m+fp/hard\libc_nano.a(lib_a-sprintf.o)
 .text._sprintf_r
                0x00000000       0x3c c:/program files/microchip/xc32/v3.01/bin/bin/../../lib/gcc/pic32c/8.3.1/../../../../pic32c/lib/thumb/v7e-m+fp/hard\libc_nano.a(lib_a-sprintf.o)
 .xc_stack_usage.hdr
                0x00000000        0xe c:/program files/microchip/xc32/v3.01/bin/bin/../../lib/gcc/pic32c/8.3.1/../../../../pic32c/lib/thumb/v7e-m+fp/hard\libc_nano.a(lib_a-sprintf.o)
 .text          0x00000000        0x0 c:/program files/microchip/xc32/v3.01/bin/bin/../../lib/gcc/pic32c/8.3.1/../../../../pic32c/lib/thumb/v7e-m+fp/hard\libc_nano.a(lib_a-strchr.o)
 .data          0x00000000        0x0 c:/program files/microchip/xc32/v3.01/bin/bin/../../lib/gcc/pic32c/8.3.1/../../../../pic32c/lib/thumb/v7e-m+fp/hard\libc_nano.a(lib_a-strchr.o)
 .bss           0x00000000        0x0 c:/program files/microchip/xc32/v3.01/bin/bin/../../lib/gcc/pic32c/8.3.1/../../../../pic32c/lib/thumb/v7e-m+fp/hard\libc_nano.a(lib_a-strchr.o)
 .xc_stack_usage
                0x00000000       0x14 c:/program files/microchip/xc32/v3.01/bin/bin/../../lib/gcc/pic32c/8.3.1/../../../../pic32c/lib/thumb/v7e-m+fp/hard\libc_nano.a(lib_a-strchr.o)
 .xc_stack_usage.hdr
                0x00000000        0xe c:/program files/microchip/xc32/v3.01/bin/bin/../../lib/gcc/pic32c/8.3.1/../../../../pic32c/lib/thumb/v7e-m+fp/hard\libc_nano.a(lib_a-strchr.o)
 .data          0x00000000        0x0 c:/program files/microchip/xc32/v3.01/bin/bin/../../lib/gcc/pic32c/8.3.1/../../../../pic32c/lib/thumb/v7e-m+fp/hard\libc_nano.a(lib_a-strcmp.o)
 .bss           0x00000000        0x0 c:/program files/microchip/xc32/v3.01/bin/bin/../../lib/gcc/pic32c/8.3.1/../../../../pic32c/lib/thumb/v7e-m+fp/hard\libc_nano.a(lib_a-strcmp.o)
 .xc_stack_usage.hdr
                0x00000000        0xe c:/program files/microchip/xc32/v3.01/bin/bin/../../lib/gcc/pic32c/8.3.1/../../../../pic32c/lib/thumb/v7e-m+fp/hard\libc_nano.a(lib_a-strcmp.o)
 .xc_stack_usage
                0x00000000       0x14 c:/program files/microchip/xc32/v3.01/bin/bin/../../lib/gcc/pic32c/8.3.1/../../../../pic32c/lib/thumb/v7e-m+fp/hard\libc_nano.a(lib_a-strcmp.o)
 .text          0x00000000        0x0 c:/program files/microchip/xc32/v3.01/bin/bin/../../lib/gcc/pic32c/8.3.1/../../../../pic32c/lib/thumb/v7e-m+fp/hard\libc_nano.a(lib_a-strcpy.o)
 .data          0x00000000        0x0 c:/program files/microchip/xc32/v3.01/bin/bin/../../lib/gcc/pic32c/8.3.1/../../../../pic32c/lib/thumb/v7e-m+fp/hard\libc_nano.a(lib_a-strcpy.o)
 .bss           0x00000000        0x0 c:/program files/microchip/xc32/v3.01/bin/bin/../../lib/gcc/pic32c/8.3.1/../../../../pic32c/lib/thumb/v7e-m+fp/hard\libc_nano.a(lib_a-strcpy.o)
 .xc_stack_usage
                0x00000000       0x14 c:/program files/microchip/xc32/v3.01/bin/bin/../../lib/gcc/pic32c/8.3.1/../../../../pic32c/lib/thumb/v7e-m+fp/hard\libc_nano.a(lib_a-strcpy.o)
 .xc_stack_usage.hdr
                0x00000000        0xe c:/program files/microchip/xc32/v3.01/bin/bin/../../lib/gcc/pic32c/8.3.1/../../../../pic32c/lib/thumb/v7e-m+fp/hard\libc_nano.a(lib_a-strcpy.o)
 .data          0x00000000        0x0 c:/program files/microchip/xc32/v3.01/bin/bin/../../lib/gcc/pic32c/8.3.1/../../../../pic32c/lib/thumb/v7e-m+fp/hard\libc_nano.a(lib_a-strlen.o)
 .bss           0x00000000        0x0 c:/program files/microchip/xc32/v3.01/bin/bin/../../lib/gcc/pic32c/8.3.1/../../../../pic32c/lib/thumb/v7e-m+fp/hard\libc_nano.a(lib_a-strlen.o)
 .xc_stack_usage.hdr
                0x00000000        0xe c:/program files/microchip/xc32/v3.01/bin/bin/../../lib/gcc/pic32c/8.3.1/../../../../pic32c/lib/thumb/v7e-m+fp/hard\libc_nano.a(lib_a-strlen.o)
 .xc_stack_usage
                0x00000000       0x14 c:/program files/microchip/xc32/v3.01/bin/bin/../../lib/gcc/pic32c/8.3.1/../../../../pic32c/lib/thumb/v7e-m+fp/hard\libc_nano.a(lib_a-strlen.o)
 .text          0x00000000        0x0 c:/program files/microchip/xc32/v3.01/bin/bin/../../lib/gcc/pic32c/8.3.1/../../../../pic32c/lib/thumb/v7e-m+fp/hard\libc_nano.a(lib_a-strncmp.o)
 .data          0x00000000        0x0 c:/program files/microchip/xc32/v3.01/bin/bin/../../lib/gcc/pic32c/8.3.1/../../../../pic32c/lib/thumb/v7e-m+fp/hard\libc_nano.a(lib_a-strncmp.o)
 .bss           0x00000000        0x0 c:/program files/microchip/xc32/v3.01/bin/bin/../../lib/gcc/pic32c/8.3.1/../../../../pic32c/lib/thumb/v7e-m+fp/hard\libc_nano.a(lib_a-strncmp.o)
 .xc_stack_usage
                0x00000000       0x15 c:/program files/microchip/xc32/v3.01/bin/bin/../../lib/gcc/pic32c/8.3.1/../../../../pic32c/lib/thumb/v7e-m+fp/hard\libc_nano.a(lib_a-strncmp.o)
 .xc_stack_usage.hdr
                0x00000000        0xe c:/program files/microchip/xc32/v3.01/bin/bin/../../lib/gcc/pic32c/8.3.1/../../../../pic32c/lib/thumb/v7e-m+fp/hard\libc_nano.a(lib_a-strncmp.o)
 .text          0x00000000        0x0 c:/program files/microchip/xc32/v3.01/bin/bin/../../lib/gcc/pic32c/8.3.1/../../../../pic32c/lib/thumb/v7e-m+fp/hard\libc_nano.a(lib_a-strncpy.o)
 .data          0x00000000        0x0 c:/program files/microchip/xc32/v3.01/bin/bin/../../lib/gcc/pic32c/8.3.1/../../../../pic32c/lib/thumb/v7e-m+fp/hard\libc_nano.a(lib_a-strncpy.o)
 .bss           0x00000000        0x0 c:/program files/microchip/xc32/v3.01/bin/bin/../../lib/gcc/pic32c/8.3.1/../../../../pic32c/lib/thumb/v7e-m+fp/hard\libc_nano.a(lib_a-strncpy.o)
 .xc_stack_usage
                0x00000000       0x15 c:/program files/microchip/xc32/v3.01/bin/bin/../../lib/gcc/pic32c/8.3.1/../../../../pic32c/lib/thumb/v7e-m+fp/hard\libc_nano.a(lib_a-strncpy.o)
 .xc_stack_usage.hdr
                0x00000000        0xe c:/program files/microchip/xc32/v3.01/bin/bin/../../lib/gcc/pic32c/8.3.1/../../../../pic32c/lib/thumb/v7e-m+fp/hard\libc_nano.a(lib_a-strncpy.o)
 .text          0x00000000        0x0 c:/program files/microchip/xc32/v3.01/bin/bin/../../lib/gcc/pic32c/8.3.1/../../../../pic32c/lib/thumb/v7e-m+fp/hard\libc_nano.a(lib_a-strtok.o)
 .data          0x00000000        0x0 c:/program files/microchip/xc32/v3.01/bin/bin/../../lib/gcc/pic32c/8.3.1/../../../../pic32c/lib/thumb/v7e-m+fp/hard\libc_nano.a(lib_a-strtok.o)
 .bss           0x00000000        0x0 c:/program files/microchip/xc32/v3.01/bin/bin/../../lib/gcc/pic32c/8.3.1/../../../../pic32c/lib/thumb/v7e-m+fp/hard\libc_nano.a(lib_a-strtok.o)
 .xc_stack_usage
                0x00000000       0x14 c:/program files/microchip/xc32/v3.01/bin/bin/../../lib/gcc/pic32c/8.3.1/../../../../pic32c/lib/thumb/v7e-m+fp/hard\libc_nano.a(lib_a-strtok.o)
 .xc_stack_usage.hdr
                0x00000000        0xe c:/program files/microchip/xc32/v3.01/bin/bin/../../lib/gcc/pic32c/8.3.1/../../../../pic32c/lib/thumb/v7e-m+fp/hard\libc_nano.a(lib_a-strtok.o)
 .text          0x00000000        0x0 c:/program files/microchip/xc32/v3.01/bin/bin/../../lib/gcc/pic32c/8.3.1/../../../../pic32c/lib/thumb/v7e-m+fp/hard\libc_nano.a(lib_a-strtok_r.o)
 .data          0x00000000        0x0 c:/program files/microchip/xc32/v3.01/bin/bin/../../lib/gcc/pic32c/8.3.1/../../../../pic32c/lib/thumb/v7e-m+fp/hard\libc_nano.a(lib_a-strtok_r.o)
 .bss           0x00000000        0x0 c:/program files/microchip/xc32/v3.01/bin/bin/../../lib/gcc/pic32c/8.3.1/../../../../pic32c/lib/thumb/v7e-m+fp/hard\libc_nano.a(lib_a-strtok_r.o)
 .xc_stack_usage
                0x00000000       0x2e c:/program files/microchip/xc32/v3.01/bin/bin/../../lib/gcc/pic32c/8.3.1/../../../../pic32c/lib/thumb/v7e-m+fp/hard\libc_nano.a(lib_a-strtok_r.o)
 .text.strtok_r
                0x00000000        0x6 c:/program files/microchip/xc32/v3.01/bin/bin/../../lib/gcc/pic32c/8.3.1/../../../../pic32c/lib/thumb/v7e-m+fp/hard\libc_nano.a(lib_a-strtok_r.o)
 .xc_stack_usage.hdr
                0x00000000        0xe c:/program files/microchip/xc32/v3.01/bin/bin/../../lib/gcc/pic32c/8.3.1/../../../../pic32c/lib/thumb/v7e-m+fp/hard\libc_nano.a(lib_a-strtok_r.o)
 .text          0x00000000        0x0 c:/program files/microchip/xc32/v3.01/bin/bin/../../lib/gcc/pic32c/8.3.1/../../../../pic32c/lib/thumb/v7e-m+fp/hard\libc_nano.a(lib_a-strtol.o)
 .data          0x00000000        0x0 c:/program files/microchip/xc32/v3.01/bin/bin/../../lib/gcc/pic32c/8.3.1/../../../../pic32c/lib/thumb/v7e-m+fp/hard\libc_nano.a(lib_a-strtol.o)
 .bss           0x00000000        0x0 c:/program files/microchip/xc32/v3.01/bin/bin/../../lib/gcc/pic32c/8.3.1/../../../../pic32c/lib/thumb/v7e-m+fp/hard\libc_nano.a(lib_a-strtol.o)
 .xc_stack_usage
                0x00000000       0x5f c:/program files/microchip/xc32/v3.01/bin/bin/../../lib/gcc/pic32c/8.3.1/../../../../pic32c/lib/thumb/v7e-m+fp/hard\libc_nano.a(lib_a-strtol.o)
 .text._strtol_r
                0x00000000        0x4 c:/program files/microchip/xc32/v3.01/bin/bin/../../lib/gcc/pic32c/8.3.1/../../../../pic32c/lib/thumb/v7e-m+fp/hard\libc_nano.a(lib_a-strtol.o)
 .text.strtol_l
                0x00000000       0x14 c:/program files/microchip/xc32/v3.01/bin/bin/../../lib/gcc/pic32c/8.3.1/../../../../pic32c/lib/thumb/v7e-m+fp/hard\libc_nano.a(lib_a-strtol.o)
 .xc_stack_usage.hdr
                0x00000000        0xe c:/program files/microchip/xc32/v3.01/bin/bin/../../lib/gcc/pic32c/8.3.1/../../../../pic32c/lib/thumb/v7e-m+fp/hard\libc_nano.a(lib_a-strtol.o)
 .text          0x00000000        0x0 c:/program files/microchip/xc32/v3.01/bin/bin/../../lib/gcc/pic32c/8.3.1/../../../../pic32c/lib/thumb/v7e-m+fp/hard\libc_nano.a(lib_a-time.o)
 .data          0x00000000        0x0 c:/program files/microchip/xc32/v3.01/bin/bin/../../lib/gcc/pic32c/8.3.1/../../../../pic32c/lib/thumb/v7e-m+fp/hard\libc_nano.a(lib_a-time.o)
 .bss           0x00000000        0x0 c:/program files/microchip/xc32/v3.01/bin/bin/../../lib/gcc/pic32c/8.3.1/../../../../pic32c/lib/thumb/v7e-m+fp/hard\libc_nano.a(lib_a-time.o)
 .xc_stack_usage
                0x00000000       0x12 c:/program files/microchip/xc32/v3.01/bin/bin/../../lib/gcc/pic32c/8.3.1/../../../../pic32c/lib/thumb/v7e-m+fp/hard\libc_nano.a(lib_a-time.o)
 .text.time     0x00000000       0x28 c:/program files/microchip/xc32/v3.01/bin/bin/../../lib/gcc/pic32c/8.3.1/../../../../pic32c/lib/thumb/v7e-m+fp/hard\libc_nano.a(lib_a-time.o)
 .xc_stack_usage.hdr
                0x00000000        0xe c:/program files/microchip/xc32/v3.01/bin/bin/../../lib/gcc/pic32c/8.3.1/../../../../pic32c/lib/thumb/v7e-m+fp/hard\libc_nano.a(lib_a-time.o)
 .comment       0x00000000       0x54 c:/program files/microchip/xc32/v3.01/bin/bin/../../lib/gcc/pic32c/8.3.1/../../../../pic32c/lib/thumb/v7e-m+fp/hard\libc_nano.a(lib_a-time.o)
 .ARM.attributes
                0x00000000       0x34 c:/program files/microchip/xc32/v3.01/bin/bin/../../lib/gcc/pic32c/8.3.1/../../../../pic32c/lib/thumb/v7e-m+fp/hard\libc_nano.a(lib_a-time.o)
 .text          0x00000000        0x0 c:/program files/microchip/xc32/v3.01/bin/bin/../../lib/gcc/pic32c/8.3.1/../../../../pic32c/lib/thumb/v7e-m+fp/hard\libc_nano.a(lib_a-vsnprintf.o)
 .data          0x00000000        0x0 c:/program files/microchip/xc32/v3.01/bin/bin/../../lib/gcc/pic32c/8.3.1/../../../../pic32c/lib/thumb/v7e-m+fp/hard\libc_nano.a(lib_a-vsnprintf.o)
 .bss           0x00000000        0x0 c:/program files/microchip/xc32/v3.01/bin/bin/../../lib/gcc/pic32c/8.3.1/../../../../pic32c/lib/thumb/v7e-m+fp/hard\libc_nano.a(lib_a-vsnprintf.o)
 .xc_stack_usage
                0x00000000       0x31 c:/program files/microchip/xc32/v3.01/bin/bin/../../lib/gcc/pic32c/8.3.1/../../../../pic32c/lib/thumb/v7e-m+fp/hard\libc_nano.a(lib_a-vsnprintf.o)
 .xc_stack_usage.hdr
                0x00000000        0xe c:/program files/microchip/xc32/v3.01/bin/bin/../../lib/gcc/pic32c/8.3.1/../../../../pic32c/lib/thumb/v7e-m+fp/hard\libc_nano.a(lib_a-vsnprintf.o)
 .text          0x00000000        0x0 c:/program files/microchip/xc32/v3.01/bin/bin/../../lib/gcc/pic32c/8.3.1/../../../../pic32c/lib/thumb/v7e-m+fp/hard\libc_nano.a(lib_a-wsetup.o)
 .data          0x00000000        0x0 c:/program files/microchip/xc32/v3.01/bin/bin/../../lib/gcc/pic32c/8.3.1/../../../../pic32c/lib/thumb/v7e-m+fp/hard\libc_nano.a(lib_a-wsetup.o)
 .bss           0x00000000        0x0 c:/program files/microchip/xc32/v3.01/bin/bin/../../lib/gcc/pic32c/8.3.1/../../../../pic32c/lib/thumb/v7e-m+fp/hard\libc_nano.a(lib_a-wsetup.o)
 .xc_stack_usage
                0x00000000       0x19 c:/program files/microchip/xc32/v3.01/bin/bin/../../lib/gcc/pic32c/8.3.1/../../../../pic32c/lib/thumb/v7e-m+fp/hard\libc_nano.a(lib_a-wsetup.o)
 .xc_stack_usage.hdr
                0x00000000        0xe c:/program files/microchip/xc32/v3.01/bin/bin/../../lib/gcc/pic32c/8.3.1/../../../../pic32c/lib/thumb/v7e-m+fp/hard\libc_nano.a(lib_a-wsetup.o)
 .text          0x00000000        0x0 c:/program files/microchip/xc32/v3.01/bin/bin/../../lib/gcc/pic32c/8.3.1/../../../../pic32c/lib/thumb/v7e-m+fp/hard\libc_nano.a(lib_a-__ssfputs.o)
 .data          0x00000000        0x0 c:/program files/microchip/xc32/v3.01/bin/bin/../../lib/gcc/pic32c/8.3.1/../../../../pic32c/lib/thumb/v7e-m+fp/hard\libc_nano.a(lib_a-__ssfputs.o)
 .bss           0x00000000        0x0 c:/program files/microchip/xc32/v3.01/bin/bin/../../lib/gcc/pic32c/8.3.1/../../../../pic32c/lib/thumb/v7e-m+fp/hard\libc_nano.a(lib_a-__ssfputs.o)
 .xc_stack_usage
                0x00000000       0x31 c:/program files/microchip/xc32/v3.01/bin/bin/../../lib/gcc/pic32c/8.3.1/../../../../pic32c/lib/thumb/v7e-m+fp/hard\libc_nano.a(lib_a-__ssfputs.o)
 .xc_stack_usage.hdr
                0x00000000        0xe c:/program files/microchip/xc32/v3.01/bin/bin/../../lib/gcc/pic32c/8.3.1/../../../../pic32c/lib/thumb/v7e-m+fp/hard\libc_nano.a(lib_a-__ssfputs.o)
 .text          0x00000000        0x0 c:/program files/microchip/xc32/v3.01/bin/bin/../../lib/gcc/pic32c/8.3.1/../../../../pic32c/lib/thumb/v7e-m+fp/hard\libc_nano.a(lib_a-abort.o)
 .data          0x00000000        0x0 c:/program files/microchip/xc32/v3.01/bin/bin/../../lib/gcc/pic32c/8.3.1/../../../../pic32c/lib/thumb/v7e-m+fp/hard\libc_nano.a(lib_a-abort.o)
 .bss           0x00000000        0x0 c:/program files/microchip/xc32/v3.01/bin/bin/../../lib/gcc/pic32c/8.3.1/../../../../pic32c/lib/thumb/v7e-m+fp/hard\libc_nano.a(lib_a-abort.o)
 .xc_stack_usage
                0x00000000       0x13 c:/program files/microchip/xc32/v3.01/bin/bin/../../lib/gcc/pic32c/8.3.1/../../../../pic32c/lib/thumb/v7e-m+fp/hard\libc_nano.a(lib_a-abort.o)
 .xc_stack_usage.hdr
                0x00000000        0xe c:/program files/microchip/xc32/v3.01/bin/bin/../../lib/gcc/pic32c/8.3.1/../../../../pic32c/lib/thumb/v7e-m+fp/hard\libc_nano.a(lib_a-abort.o)
 .text          0x00000000        0x0 c:/program files/microchip/xc32/v3.01/bin/bin/../../lib/gcc/pic32c/8.3.1/../../../../pic32c/lib/thumb/v7e-m+fp/hard\libc_nano.a(lib_a-dtoa.o)
 .data          0x00000000        0x0 c:/program files/microchip/xc32/v3.01/bin/bin/../../lib/gcc/pic32c/8.3.1/../../../../pic32c/lib/thumb/v7e-m+fp/hard\libc_nano.a(lib_a-dtoa.o)
 .bss           0x00000000        0x0 c:/program files/microchip/xc32/v3.01/bin/bin/../../lib/gcc/pic32c/8.3.1/../../../../pic32c/lib/thumb/v7e-m+fp/hard\libc_nano.a(lib_a-dtoa.o)
 .xc_stack_usage
                0x00000000       0x29 c:/program files/microchip/xc32/v3.01/bin/bin/../../lib/gcc/pic32c/8.3.1/../../../../pic32c/lib/thumb/v7e-m+fp/hard\libc_nano.a(lib_a-dtoa.o)
 .xc_stack_usage.hdr
                0x00000000        0xe c:/program files/microchip/xc32/v3.01/bin/bin/../../lib/gcc/pic32c/8.3.1/../../../../pic32c/lib/thumb/v7e-m+fp/hard\libc_nano.a(lib_a-dtoa.o)
 .text          0x00000000        0x0 c:/program files/microchip/xc32/v3.01/bin/bin/../../lib/gcc/pic32c/8.3.1/../../../../pic32c/lib/thumb/v7e-m+fp/hard\libc_nano.a(lib_a-findfp.o)
 .data          0x00000000        0x0 c:/program files/microchip/xc32/v3.01/bin/bin/../../lib/gcc/pic32c/8.3.1/../../../../pic32c/lib/thumb/v7e-m+fp/hard\libc_nano.a(lib_a-findfp.o)
 .bss           0x00000000        0x0 c:/program files/microchip/xc32/v3.01/bin/bin/../../lib/gcc/pic32c/8.3.1/../../../../pic32c/lib/thumb/v7e-m+fp/hard\libc_nano.a(lib_a-findfp.o)
 .xc_stack_usage
                0x00000000       0x81 c:/program files/microchip/xc32/v3.01/bin/bin/../../lib/gcc/pic32c/8.3.1/../../../../pic32c/lib/thumb/v7e-m+fp/hard\libc_nano.a(lib_a-findfp.o)
 .text._cleanup
                0x00000000        0xc c:/program files/microchip/xc32/v3.01/bin/bin/../../lib/gcc/pic32c/8.3.1/../../../../pic32c/lib/thumb/v7e-m+fp/hard\libc_nano.a(lib_a-findfp.o)
 .xc_stack_usage.hdr
                0x00000000        0xe c:/program files/microchip/xc32/v3.01/bin/bin/../../lib/gcc/pic32c/8.3.1/../../../../pic32c/lib/thumb/v7e-m+fp/hard\libc_nano.a(lib_a-findfp.o)
 .text          0x00000000        0x0 c:/program files/microchip/xc32/v3.01/bin/bin/../../lib/gcc/pic32c/8.3.1/../../../../pic32c/lib/thumb/v7e-m+fp/hard\libc_nano.a(lib_a-fputwc.o)
 .data          0x00000000        0x0 c:/program files/microchip/xc32/v3.01/bin/bin/../../lib/gcc/pic32c/8.3.1/../../../../pic32c/lib/thumb/v7e-m+fp/hard\libc_nano.a(lib_a-fputwc.o)
 .bss           0x00000000        0x0 c:/program files/microchip/xc32/v3.01/bin/bin/../../lib/gcc/pic32c/8.3.1/../../../../pic32c/lib/thumb/v7e-m+fp/hard\libc_nano.a(lib_a-fputwc.o)
 .xc_stack_usage
                0x00000000       0x41 c:/program files/microchip/xc32/v3.01/bin/bin/../../lib/gcc/pic32c/8.3.1/../../../../pic32c/lib/thumb/v7e-m+fp/hard\libc_nano.a(lib_a-fputwc.o)
 .text.fputwc   0x00000000       0x50 c:/program files/microchip/xc32/v3.01/bin/bin/../../lib/gcc/pic32c/8.3.1/../../../../pic32c/lib/thumb/v7e-m+fp/hard\libc_nano.a(lib_a-fputwc.o)
 .xc_stack_usage.hdr
                0x00000000        0xe c:/program files/microchip/xc32/v3.01/bin/bin/../../lib/gcc/pic32c/8.3.1/../../../../pic32c/lib/thumb/v7e-m+fp/hard\libc_nano.a(lib_a-fputwc.o)
 .text          0x00000000        0x0 c:/program files/microchip/xc32/v3.01/bin/bin/../../lib/gcc/pic32c/8.3.1/../../../../pic32c/lib/thumb/v7e-m+fp/hard\libc_nano.a(lib_a-fwalk.o)
 .data          0x00000000        0x0 c:/program files/microchip/xc32/v3.01/bin/bin/../../lib/gcc/pic32c/8.3.1/../../../../pic32c/lib/thumb/v7e-m+fp/hard\libc_nano.a(lib_a-fwalk.o)
 .bss           0x00000000        0x0 c:/program files/microchip/xc32/v3.01/bin/bin/../../lib/gcc/pic32c/8.3.1/../../../../pic32c/lib/thumb/v7e-m+fp/hard\libc_nano.a(lib_a-fwalk.o)
 .xc_stack_usage
                0x00000000       0x2e c:/program files/microchip/xc32/v3.01/bin/bin/../../lib/gcc/pic32c/8.3.1/../../../../pic32c/lib/thumb/v7e-m+fp/hard\libc_nano.a(lib_a-fwalk.o)
 .text._fwalk   0x00000000       0x38 c:/program files/microchip/xc32/v3.01/bin/bin/../../lib/gcc/pic32c/8.3.1/../../../../pic32c/lib/thumb/v7e-m+fp/hard\libc_nano.a(lib_a-fwalk.o)
 .xc_stack_usage.hdr
                0x00000000        0xe c:/program files/microchip/xc32/v3.01/bin/bin/../../lib/gcc/pic32c/8.3.1/../../../../pic32c/lib/thumb/v7e-m+fp/hard\libc_nano.a(lib_a-fwalk.o)
 .text          0x00000000        0x0 c:/program files/microchip/xc32/v3.01/bin/bin/../../lib/gcc/pic32c/8.3.1/../../../../pic32c/lib/thumb/v7e-m+fp/hard\libc_nano.a(lib_a-gettimeofdayr.o)
 .data          0x00000000        0x0 c:/program files/microchip/xc32/v3.01/bin/bin/../../lib/gcc/pic32c/8.3.1/../../../../pic32c/lib/thumb/v7e-m+fp/hard\libc_nano.a(lib_a-gettimeofdayr.o)
 .bss           0x00000000        0x0 c:/program files/microchip/xc32/v3.01/bin/bin/../../lib/gcc/pic32c/8.3.1/../../../../pic32c/lib/thumb/v7e-m+fp/hard\libc_nano.a(lib_a-gettimeofdayr.o)
 .xc_stack_usage
                0x00000000       0x1d c:/program files/microchip/xc32/v3.01/bin/bin/../../lib/gcc/pic32c/8.3.1/../../../../pic32c/lib/thumb/v7e-m+fp/hard\libc_nano.a(lib_a-gettimeofdayr.o)
 .text._gettimeofday_r
                0x00000000       0x24 c:/program files/microchip/xc32/v3.01/bin/bin/../../lib/gcc/pic32c/8.3.1/../../../../pic32c/lib/thumb/v7e-m+fp/hard\libc_nano.a(lib_a-gettimeofdayr.o)
 .xc_stack_usage.hdr
                0x00000000        0xe c:/program files/microchip/xc32/v3.01/bin/bin/../../lib/gcc/pic32c/8.3.1/../../../../pic32c/lib/thumb/v7e-m+fp/hard\libc_nano.a(lib_a-gettimeofdayr.o)
 .comment       0x00000000       0x54 c:/program files/microchip/xc32/v3.01/bin/bin/../../lib/gcc/pic32c/8.3.1/../../../../pic32c/lib/thumb/v7e-m+fp/hard\libc_nano.a(lib_a-gettimeofdayr.o)
 .ARM.attributes
                0x00000000       0x34 c:/program files/microchip/xc32/v3.01/bin/bin/../../lib/gcc/pic32c/8.3.1/../../../../pic32c/lib/thumb/v7e-m+fp/hard\libc_nano.a(lib_a-gettimeofdayr.o)
 .text          0x00000000        0x0 c:/program files/microchip/xc32/v3.01/bin/bin/../../lib/gcc/pic32c/8.3.1/../../../../pic32c/lib/thumb/v7e-m+fp/hard\libc_nano.a(lib_a-locale.o)
 .data          0x00000000        0x0 c:/program files/microchip/xc32/v3.01/bin/bin/../../lib/gcc/pic32c/8.3.1/../../../../pic32c/lib/thumb/v7e-m+fp/hard\libc_nano.a(lib_a-locale.o)
 .bss           0x00000000        0x0 c:/program files/microchip/xc32/v3.01/bin/bin/../../lib/gcc/pic32c/8.3.1/../../../../pic32c/lib/thumb/v7e-m+fp/hard\libc_nano.a(lib_a-locale.o)
 .xc_stack_usage
                0x00000000       0x52 c:/program files/microchip/xc32/v3.01/bin/bin/../../lib/gcc/pic32c/8.3.1/../../../../pic32c/lib/thumb/v7e-m+fp/hard\libc_nano.a(lib_a-locale.o)
 .text._setlocale_r
                0x00000000       0x40 c:/program files/microchip/xc32/v3.01/bin/bin/../../lib/gcc/pic32c/8.3.1/../../../../pic32c/lib/thumb/v7e-m+fp/hard\libc_nano.a(lib_a-locale.o)
 .text.setlocale
                0x00000000       0x10 c:/program files/microchip/xc32/v3.01/bin/bin/../../lib/gcc/pic32c/8.3.1/../../../../pic32c/lib/thumb/v7e-m+fp/hard\libc_nano.a(lib_a-locale.o)
 .bss._PathLocale
                0x00000000        0x4 c:/program files/microchip/xc32/v3.01/bin/bin/../../lib/gcc/pic32c/8.3.1/../../../../pic32c/lib/thumb/v7e-m+fp/hard\libc_nano.a(lib_a-locale.o)
 .xc_stack_usage.hdr
                0x00000000        0xe c:/program files/microchip/xc32/v3.01/bin/bin/../../lib/gcc/pic32c/8.3.1/../../../../pic32c/lib/thumb/v7e-m+fp/hard\libc_nano.a(lib_a-locale.o)
 .text          0x00000000        0x0 c:/program files/microchip/xc32/v3.01/bin/bin/../../lib/gcc/pic32c/8.3.1/../../../../pic32c/lib/thumb/v7e-m+fp/hard\libc_nano.a(lib_a-localeconv.o)
 .data          0x00000000        0x0 c:/program files/microchip/xc32/v3.01/bin/bin/../../lib/gcc/pic32c/8.3.1/../../../../pic32c/lib/thumb/v7e-m+fp/hard\libc_nano.a(lib_a-localeconv.o)
 .bss           0x00000000        0x0 c:/program files/microchip/xc32/v3.01/bin/bin/../../lib/gcc/pic32c/8.3.1/../../../../pic32c/lib/thumb/v7e-m+fp/hard\libc_nano.a(lib_a-localeconv.o)
 .xc_stack_usage
                0x00000000       0x4f c:/program files/microchip/xc32/v3.01/bin/bin/../../lib/gcc/pic32c/8.3.1/../../../../pic32c/lib/thumb/v7e-m+fp/hard\libc_nano.a(lib_a-localeconv.o)
 .text.__localeconv_l
                0x00000000        0x4 c:/program files/microchip/xc32/v3.01/bin/bin/../../lib/gcc/pic32c/8.3.1/../../../../pic32c/lib/thumb/v7e-m+fp/hard\libc_nano.a(lib_a-localeconv.o)
 .text.localeconv
                0x00000000        0x8 c:/program files/microchip/xc32/v3.01/bin/bin/../../lib/gcc/pic32c/8.3.1/../../../../pic32c/lib/thumb/v7e-m+fp/hard\libc_nano.a(lib_a-localeconv.o)
 .xc_stack_usage.hdr
                0x00000000        0xe c:/program files/microchip/xc32/v3.01/bin/bin/../../lib/gcc/pic32c/8.3.1/../../../../pic32c/lib/thumb/v7e-m+fp/hard\libc_nano.a(lib_a-localeconv.o)
 .text          0x00000000        0x0 c:/program files/microchip/xc32/v3.01/bin/bin/../../lib/gcc/pic32c/8.3.1/../../../../pic32c/lib/thumb/v7e-m+fp/hard\libc_nano.a(lib_a-makebuf.o)
 .data          0x00000000        0x0 c:/program files/microchip/xc32/v3.01/bin/bin/../../lib/gcc/pic32c/8.3.1/../../../../pic32c/lib/thumb/v7e-m+fp/hard\libc_nano.a(lib_a-makebuf.o)
 .bss           0x00000000        0x0 c:/program files/microchip/xc32/v3.01/bin/bin/../../lib/gcc/pic32c/8.3.1/../../../../pic32c/lib/thumb/v7e-m+fp/hard\libc_nano.a(lib_a-makebuf.o)
 .xc_stack_usage
                0x00000000       0x34 c:/program files/microchip/xc32/v3.01/bin/bin/../../lib/gcc/pic32c/8.3.1/../../../../pic32c/lib/thumb/v7e-m+fp/hard\libc_nano.a(lib_a-makebuf.o)
 .xc_stack_usage.hdr
                0x00000000        0xe c:/program files/microchip/xc32/v3.01/bin/bin/../../lib/gcc/pic32c/8.3.1/../../../../pic32c/lib/thumb/v7e-m+fp/hard\libc_nano.a(lib_a-makebuf.o)
 .text          0x00000000        0x0 c:/program files/microchip/xc32/v3.01/bin/bin/../../lib/gcc/pic32c/8.3.1/../../../../pic32c/lib/thumb/v7e-m+fp/hard\libc_nano.a(lib_a-mbtowc_r.o)
 .data          0x00000000        0x0 c:/program files/microchip/xc32/v3.01/bin/bin/../../lib/gcc/pic32c/8.3.1/../../../../pic32c/lib/thumb/v7e-m+fp/hard\libc_nano.a(lib_a-mbtowc_r.o)
 .bss           0x00000000        0x0 c:/program files/microchip/xc32/v3.01/bin/bin/../../lib/gcc/pic32c/8.3.1/../../../../pic32c/lib/thumb/v7e-m+fp/hard\libc_nano.a(lib_a-mbtowc_r.o)
 .xc_stack_usage
                0x00000000       0x33 c:/program files/microchip/xc32/v3.01/bin/bin/../../lib/gcc/pic32c/8.3.1/../../../../pic32c/lib/thumb/v7e-m+fp/hard\libc_nano.a(lib_a-mbtowc_r.o)
 .text._mbtowc_r
                0x00000000       0x14 c:/program files/microchip/xc32/v3.01/bin/bin/../../lib/gcc/pic32c/8.3.1/../../../../pic32c/lib/thumb/v7e-m+fp/hard\libc_nano.a(lib_a-mbtowc_r.o)
 .xc_stack_usage.hdr
                0x00000000        0xe c:/program files/microchip/xc32/v3.01/bin/bin/../../lib/gcc/pic32c/8.3.1/../../../../pic32c/lib/thumb/v7e-m+fp/hard\libc_nano.a(lib_a-mbtowc_r.o)
 .data          0x00000000        0x0 c:/program files/microchip/xc32/v3.01/bin/bin/../../lib/gcc/pic32c/8.3.1/../../../../pic32c/lib/thumb/v7e-m+fp/hard\libc_nano.a(lib_a-memchr.o)
 .bss           0x00000000        0x0 c:/program files/microchip/xc32/v3.01/bin/bin/../../lib/gcc/pic32c/8.3.1/../../../../pic32c/lib/thumb/v7e-m+fp/hard\libc_nano.a(lib_a-memchr.o)
 .xc_stack_usage.hdr
                0x00000000        0xe c:/program files/microchip/xc32/v3.01/bin/bin/../../lib/gcc/pic32c/8.3.1/../../../../pic32c/lib/thumb/v7e-m+fp/hard\libc_nano.a(lib_a-memchr.o)
 .xc_stack_usage
                0x00000000       0x14 c:/program files/microchip/xc32/v3.01/bin/bin/../../lib/gcc/pic32c/8.3.1/../../../../pic32c/lib/thumb/v7e-m+fp/hard\libc_nano.a(lib_a-memchr.o)
 .text          0x00000000        0x0 c:/program files/microchip/xc32/v3.01/bin/bin/../../lib/gcc/pic32c/8.3.1/../../../../pic32c/lib/thumb/v7e-m+fp/hard\libc_nano.a(lib_a-mlock.o)
 .data          0x00000000        0x0 c:/program files/microchip/xc32/v3.01/bin/bin/../../lib/gcc/pic32c/8.3.1/../../../../pic32c/lib/thumb/v7e-m+fp/hard\libc_nano.a(lib_a-mlock.o)
 .bss           0x00000000        0x0 c:/program files/microchip/xc32/v3.01/bin/bin/../../lib/gcc/pic32c/8.3.1/../../../../pic32c/lib/thumb/v7e-m+fp/hard\libc_nano.a(lib_a-mlock.o)
 .xc_stack_usage
                0x00000000       0x38 c:/program files/microchip/xc32/v3.01/bin/bin/../../lib/gcc/pic32c/8.3.1/../../../../pic32c/lib/thumb/v7e-m+fp/hard\libc_nano.a(lib_a-mlock.o)
 .xc_stack_usage.hdr
                0x00000000        0xe c:/program files/microchip/xc32/v3.01/bin/bin/../../lib/gcc/pic32c/8.3.1/../../../../pic32c/lib/thumb/v7e-m+fp/hard\libc_nano.a(lib_a-mlock.o)
 .text          0x00000000        0x0 c:/program files/microchip/xc32/v3.01/bin/bin/../../lib/gcc/pic32c/8.3.1/../../../../pic32c/lib/thumb/v7e-m+fp/hard\libc_nano.a(lib_a-mprec.o)
 .data          0x00000000        0x0 c:/program files/microchip/xc32/v3.01/bin/bin/../../lib/gcc/pic32c/8.3.1/../../../../pic32c/lib/thumb/v7e-m+fp/hard\libc_nano.a(lib_a-mprec.o)
 .bss           0x00000000        0x0 c:/program files/microchip/xc32/v3.01/bin/bin/../../lib/gcc/pic32c/8.3.1/../../../../pic32c/lib/thumb/v7e-m+fp/hard\libc_nano.a(lib_a-mprec.o)
 .xc_stack_usage
                0x00000000      0x199 c:/program files/microchip/xc32/v3.01/bin/bin/../../lib/gcc/pic32c/8.3.1/../../../../pic32c/lib/thumb/v7e-m+fp/hard\libc_nano.a(lib_a-mprec.o)
 .text.__s2b    0x00000000       0x7c c:/program files/microchip/xc32/v3.01/bin/bin/../../lib/gcc/pic32c/8.3.1/../../../../pic32c/lib/thumb/v7e-m+fp/hard\libc_nano.a(lib_a-mprec.o)
 .text.__ulp    0x00000000       0x4c c:/program files/microchip/xc32/v3.01/bin/bin/../../lib/gcc/pic32c/8.3.1/../../../../pic32c/lib/thumb/v7e-m+fp/hard\libc_nano.a(lib_a-mprec.o)
 .text.__b2d    0x00000000       0xa0 c:/program files/microchip/xc32/v3.01/bin/bin/../../lib/gcc/pic32c/8.3.1/../../../../pic32c/lib/thumb/v7e-m+fp/hard\libc_nano.a(lib_a-mprec.o)
 .text.__ratio  0x00000000       0x62 c:/program files/microchip/xc32/v3.01/bin/bin/../../lib/gcc/pic32c/8.3.1/../../../../pic32c/lib/thumb/v7e-m+fp/hard\libc_nano.a(lib_a-mprec.o)
 .text._mprec_log10
                0x00000000       0x3c c:/program files/microchip/xc32/v3.01/bin/bin/../../lib/gcc/pic32c/8.3.1/../../../../pic32c/lib/thumb/v7e-m+fp/hard\libc_nano.a(lib_a-mprec.o)
 .text.__copybits
                0x00000000       0x34 c:/program files/microchip/xc32/v3.01/bin/bin/../../lib/gcc/pic32c/8.3.1/../../../../pic32c/lib/thumb/v7e-m+fp/hard\libc_nano.a(lib_a-mprec.o)
 .text.__any_on
                0x00000000       0x42 c:/program files/microchip/xc32/v3.01/bin/bin/../../lib/gcc/pic32c/8.3.1/../../../../pic32c/lib/thumb/v7e-m+fp/hard\libc_nano.a(lib_a-mprec.o)
 .rodata.__mprec_tinytens
                0x00000000       0x28 c:/program files/microchip/xc32/v3.01/bin/bin/../../lib/gcc/pic32c/8.3.1/../../../../pic32c/lib/thumb/v7e-m+fp/hard\libc_nano.a(lib_a-mprec.o)
 .xc_stack_usage.hdr
                0x00000000        0xe c:/program files/microchip/xc32/v3.01/bin/bin/../../lib/gcc/pic32c/8.3.1/../../../../pic32c/lib/thumb/v7e-m+fp/hard\libc_nano.a(lib_a-mprec.o)
 .text          0x00000000        0x0 c:/program files/microchip/xc32/v3.01/bin/bin/../../lib/gcc/pic32c/8.3.1/../../../../pic32c/lib/thumb/v7e-m+fp/hard\libc_nano.a(lib_a-nano-svfprintf.o)
 .data          0x00000000        0x0 c:/program files/microchip/xc32/v3.01/bin/bin/../../lib/gcc/pic32c/8.3.1/../../../../pic32c/lib/thumb/v7e-m+fp/hard\libc_nano.a(lib_a-nano-svfprintf.o)
 .bss           0x00000000        0x0 c:/program files/microchip/xc32/v3.01/bin/bin/../../lib/gcc/pic32c/8.3.1/../../../../pic32c/lib/thumb/v7e-m+fp/hard\libc_nano.a(lib_a-nano-svfprintf.o)
 .xc_stack_usage
                0x00000000       0x1a c:/program files/microchip/xc32/v3.01/bin/bin/../../lib/gcc/pic32c/8.3.1/../../../../pic32c/lib/thumb/v7e-m+fp/hard\libc_nano.a(lib_a-nano-svfprintf.o)
 .xc_stack_usage.hdr
                0x00000000        0xe c:/program files/microchip/xc32/v3.01/bin/bin/../../lib/gcc/pic32c/8.3.1/../../../../pic32c/lib/thumb/v7e-m+fp/hard\libc_nano.a(lib_a-nano-svfprintf.o)
 .text          0x00000000        0x0 c:/program files/microchip/xc32/v3.01/bin/bin/../../lib/gcc/pic32c/8.3.1/../../../../pic32c/lib/thumb/v7e-m+fp/hard\libc_nano.a(lib_a-reent.o)
 .data          0x00000000        0x0 c:/program files/microchip/xc32/v3.01/bin/bin/../../lib/gcc/pic32c/8.3.1/../../../../pic32c/lib/thumb/v7e-m+fp/hard\libc_nano.a(lib_a-reent.o)
 .bss           0x00000000        0x0 c:/program files/microchip/xc32/v3.01/bin/bin/../../lib/gcc/pic32c/8.3.1/../../../../pic32c/lib/thumb/v7e-m+fp/hard\libc_nano.a(lib_a-reent.o)
 .xc_stack_usage
                0x00000000       0x36 c:/program files/microchip/xc32/v3.01/bin/bin/../../lib/gcc/pic32c/8.3.1/../../../../pic32c/lib/thumb/v7e-m+fp/hard\libc_nano.a(lib_a-reent.o)
 .text.cleanup_glue
                0x00000000       0x1a c:/program files/microchip/xc32/v3.01/bin/bin/../../lib/gcc/pic32c/8.3.1/../../../../pic32c/lib/thumb/v7e-m+fp/hard\libc_nano.a(lib_a-reent.o)
 .text._reclaim_reent
                0x00000000       0xb8 c:/program files/microchip/xc32/v3.01/bin/bin/../../lib/gcc/pic32c/8.3.1/../../../../pic32c/lib/thumb/v7e-m+fp/hard\libc_nano.a(lib_a-reent.o)
 .xc_stack_usage.hdr
                0x00000000        0xe c:/program files/microchip/xc32/v3.01/bin/bin/../../lib/gcc/pic32c/8.3.1/../../../../pic32c/lib/thumb/v7e-m+fp/hard\libc_nano.a(lib_a-reent.o)
 .text          0x00000000        0x0 c:/program files/microchip/xc32/v3.01/bin/bin/../../lib/gcc/pic32c/8.3.1/../../../../pic32c/lib/thumb/v7e-m+fp/hard\libc_nano.a(lib_a-signal.o)
 .data          0x00000000        0x0 c:/program files/microchip/xc32/v3.01/bin/bin/../../lib/gcc/pic32c/8.3.1/../../../../pic32c/lib/thumb/v7e-m+fp/hard\libc_nano.a(lib_a-signal.o)
 .bss           0x00000000        0x0 c:/program files/microchip/xc32/v3.01/bin/bin/../../lib/gcc/pic32c/8.3.1/../../../../pic32c/lib/thumb/v7e-m+fp/hard\libc_nano.a(lib_a-signal.o)
 .xc_stack_usage
                0x00000000       0xbc c:/program files/microchip/xc32/v3.01/bin/bin/../../lib/gcc/pic32c/8.3.1/../../../../pic32c/lib/thumb/v7e-m+fp/hard\libc_nano.a(lib_a-signal.o)
 .text._init_signal_r
                0x00000000       0x28 c:/program files/microchip/xc32/v3.01/bin/bin/../../lib/gcc/pic32c/8.3.1/../../../../pic32c/lib/thumb/v7e-m+fp/hard\libc_nano.a(lib_a-signal.o)
 .text._signal_r
                0x00000000       0x30 c:/program files/microchip/xc32/v3.01/bin/bin/../../lib/gcc/pic32c/8.3.1/../../../../pic32c/lib/thumb/v7e-m+fp/hard\libc_nano.a(lib_a-signal.o)
 .text.__sigtramp_r
                0x00000000       0x48 c:/program files/microchip/xc32/v3.01/bin/bin/../../lib/gcc/pic32c/8.3.1/../../../../pic32c/lib/thumb/v7e-m+fp/hard\libc_nano.a(lib_a-signal.o)
 .text.signal   0x00000000       0x10 c:/program files/microchip/xc32/v3.01/bin/bin/../../lib/gcc/pic32c/8.3.1/../../../../pic32c/lib/thumb/v7e-m+fp/hard\libc_nano.a(lib_a-signal.o)
 .text._init_signal
                0x00000000        0xc c:/program files/microchip/xc32/v3.01/bin/bin/../../lib/gcc/pic32c/8.3.1/../../../../pic32c/lib/thumb/v7e-m+fp/hard\libc_nano.a(lib_a-signal.o)
 .text.__sigtramp
                0x00000000       0x10 c:/program files/microchip/xc32/v3.01/bin/bin/../../lib/gcc/pic32c/8.3.1/../../../../pic32c/lib/thumb/v7e-m+fp/hard\libc_nano.a(lib_a-signal.o)
 .xc_stack_usage.hdr
                0x00000000        0xe c:/program files/microchip/xc32/v3.01/bin/bin/../../lib/gcc/pic32c/8.3.1/../../../../pic32c/lib/thumb/v7e-m+fp/hard\libc_nano.a(lib_a-signal.o)
 .text          0x00000000        0x0 c:/program files/microchip/xc32/v3.01/bin/bin/../../lib/gcc/pic32c/8.3.1/../../../../pic32c/lib/thumb/v7e-m+fp/hard\libc_nano.a(lib_a-signalr.o)
 .data          0x00000000        0x0 c:/program files/microchip/xc32/v3.01/bin/bin/../../lib/gcc/pic32c/8.3.1/../../../../pic32c/lib/thumb/v7e-m+fp/hard\libc_nano.a(lib_a-signalr.o)
 .bss           0x00000000        0x0 c:/program files/microchip/xc32/v3.01/bin/bin/../../lib/gcc/pic32c/8.3.1/../../../../pic32c/lib/thumb/v7e-m+fp/hard\libc_nano.a(lib_a-signalr.o)
 .xc_stack_usage
                0x00000000       0x2c c:/program files/microchip/xc32/v3.01/bin/bin/../../lib/gcc/pic32c/8.3.1/../../../../pic32c/lib/thumb/v7e-m+fp/hard\libc_nano.a(lib_a-signalr.o)
 .xc_stack_usage.hdr
                0x00000000        0xe c:/program files/microchip/xc32/v3.01/bin/bin/../../lib/gcc/pic32c/8.3.1/../../../../pic32c/lib/thumb/v7e-m+fp/hard\libc_nano.a(lib_a-signalr.o)
 .text          0x00000000        0x0 c:/program files/microchip/xc32/v3.01/bin/bin/../../lib/gcc/pic32c/8.3.1/../../../../pic32c/lib/thumb/v7e-m+fp/hard\libc_nano.a(lib_a-stdio.o)
 .data          0x00000000        0x0 c:/program files/microchip/xc32/v3.01/bin/bin/../../lib/gcc/pic32c/8.3.1/../../../../pic32c/lib/thumb/v7e-m+fp/hard\libc_nano.a(lib_a-stdio.o)
 .bss           0x00000000        0x0 c:/program files/microchip/xc32/v3.01/bin/bin/../../lib/gcc/pic32c/8.3.1/../../../../pic32c/lib/thumb/v7e-m+fp/hard\libc_nano.a(lib_a-stdio.o)
 .xc_stack_usage
                0x00000000       0x6e c:/program files/microchip/xc32/v3.01/bin/bin/../../lib/gcc/pic32c/8.3.1/../../../../pic32c/lib/thumb/v7e-m+fp/hard\libc_nano.a(lib_a-stdio.o)
 .text.__seofread
                0x00000000        0x4 c:/program files/microchip/xc32/v3.01/bin/bin/../../lib/gcc/pic32c/8.3.1/../../../../pic32c/lib/thumb/v7e-m+fp/hard\libc_nano.a(lib_a-stdio.o)
 .xc_stack_usage.hdr
                0x00000000        0xe c:/program files/microchip/xc32/v3.01/bin/bin/../../lib/gcc/pic32c/8.3.1/../../../../pic32c/lib/thumb/v7e-m+fp/hard\libc_nano.a(lib_a-stdio.o)
 .text          0x00000000        0x0 c:/program files/microchip/xc32/v3.01/bin/bin/../../lib/gcc/pic32c/8.3.1/../../../../pic32c/lib/thumb/v7e-m+fp/hard\libc_nano.a(lib_a-wbuf.o)
 .data          0x00000000        0x0 c:/program files/microchip/xc32/v3.01/bin/bin/../../lib/gcc/pic32c/8.3.1/../../../../pic32c/lib/thumb/v7e-m+fp/hard\libc_nano.a(lib_a-wbuf.o)
 .bss           0x00000000        0x0 c:/program files/microchip/xc32/v3.01/bin/bin/../../lib/gcc/pic32c/8.3.1/../../../../pic32c/lib/thumb/v7e-m+fp/hard\libc_nano.a(lib_a-wbuf.o)
 .xc_stack_usage
                0x00000000       0x2c c:/program files/microchip/xc32/v3.01/bin/bin/../../lib/gcc/pic32c/8.3.1/../../../../pic32c/lib/thumb/v7e-m+fp/hard\libc_nano.a(lib_a-wbuf.o)
 .text.__swbuf  0x00000000       0x10 c:/program files/microchip/xc32/v3.01/bin/bin/../../lib/gcc/pic32c/8.3.1/../../../../pic32c/lib/thumb/v7e-m+fp/hard\libc_nano.a(lib_a-wbuf.o)
 .xc_stack_usage.hdr
                0x00000000        0xe c:/program files/microchip/xc32/v3.01/bin/bin/../../lib/gcc/pic32c/8.3.1/../../../../pic32c/lib/thumb/v7e-m+fp/hard\libc_nano.a(lib_a-wbuf.o)
 .text          0x00000000        0x0 c:/program files/microchip/xc32/v3.01/bin/bin/../../lib/gcc/pic32c/8.3.1/../../../../pic32c/lib/thumb/v7e-m+fp/hard\libc_nano.a(lib_a-wcrtomb.o)
 .data          0x00000000        0x0 c:/program files/microchip/xc32/v3.01/bin/bin/../../lib/gcc/pic32c/8.3.1/../../../../pic32c/lib/thumb/v7e-m+fp/hard\libc_nano.a(lib_a-wcrtomb.o)
 .bss           0x00000000        0x0 c:/program files/microchip/xc32/v3.01/bin/bin/../../lib/gcc/pic32c/8.3.1/../../../../pic32c/lib/thumb/v7e-m+fp/hard\libc_nano.a(lib_a-wcrtomb.o)
 .xc_stack_usage
                0x00000000       0x2d c:/program files/microchip/xc32/v3.01/bin/bin/../../lib/gcc/pic32c/8.3.1/../../../../pic32c/lib/thumb/v7e-m+fp/hard\libc_nano.a(lib_a-wcrtomb.o)
 .text.wcrtomb  0x00000000       0x14 c:/program files/microchip/xc32/v3.01/bin/bin/../../lib/gcc/pic32c/8.3.1/../../../../pic32c/lib/thumb/v7e-m+fp/hard\libc_nano.a(lib_a-wcrtomb.o)
 .xc_stack_usage.hdr
                0x00000000        0xe c:/program files/microchip/xc32/v3.01/bin/bin/../../lib/gcc/pic32c/8.3.1/../../../../pic32c/lib/thumb/v7e-m+fp/hard\libc_nano.a(lib_a-wcrtomb.o)
 .text          0x00000000        0x0 c:/program files/microchip/xc32/v3.01/bin/bin/../../lib/gcc/pic32c/8.3.1/../../../../pic32c/lib/thumb/v7e-m+fp/hard\libc_nano.a(lib_a-wctomb_r.o)
 .data          0x00000000        0x0 c:/program files/microchip/xc32/v3.01/bin/bin/../../lib/gcc/pic32c/8.3.1/../../../../pic32c/lib/thumb/v7e-m+fp/hard\libc_nano.a(lib_a-wctomb_r.o)
 .bss           0x00000000        0x0 c:/program files/microchip/xc32/v3.01/bin/bin/../../lib/gcc/pic32c/8.3.1/../../../../pic32c/lib/thumb/v7e-m+fp/hard\libc_nano.a(lib_a-wctomb_r.o)
 .xc_stack_usage
                0x00000000       0x33 c:/program files/microchip/xc32/v3.01/bin/bin/../../lib/gcc/pic32c/8.3.1/../../../../pic32c/lib/thumb/v7e-m+fp/hard\libc_nano.a(lib_a-wctomb_r.o)
 .text._wctomb_r
                0x00000000       0x14 c:/program files/microchip/xc32/v3.01/bin/bin/../../lib/gcc/pic32c/8.3.1/../../../../pic32c/lib/thumb/v7e-m+fp/hard\libc_nano.a(lib_a-wctomb_r.o)
 .xc_stack_usage.hdr
                0x00000000        0xe c:/program files/microchip/xc32/v3.01/bin/bin/../../lib/gcc/pic32c/8.3.1/../../../../pic32c/lib/thumb/v7e-m+fp/hard\libc_nano.a(lib_a-wctomb_r.o)
 .text          0x00000000        0x0 c:/program files/microchip/xc32/v3.01/bin/bin/../../lib/gcc/pic32c/8.3.1/../../../../pic32c/lib/thumb/v7e-m+fp/hard\libc_nano.a(lib_a-writer.o)
 .data          0x00000000        0x0 c:/program files/microchip/xc32/v3.01/bin/bin/../../lib/gcc/pic32c/8.3.1/../../../../pic32c/lib/thumb/v7e-m+fp/hard\libc_nano.a(lib_a-writer.o)
 .bss           0x00000000        0x0 c:/program files/microchip/xc32/v3.01/bin/bin/../../lib/gcc/pic32c/8.3.1/../../../../pic32c/lib/thumb/v7e-m+fp/hard\libc_nano.a(lib_a-writer.o)
 .xc_stack_usage
                0x00000000       0x16 c:/program files/microchip/xc32/v3.01/bin/bin/../../lib/gcc/pic32c/8.3.1/../../../../pic32c/lib/thumb/v7e-m+fp/hard\libc_nano.a(lib_a-writer.o)
 .xc_stack_usage.hdr
                0x00000000        0xe c:/program files/microchip/xc32/v3.01/bin/bin/../../lib/gcc/pic32c/8.3.1/../../../../pic32c/lib/thumb/v7e-m+fp/hard\libc_nano.a(lib_a-writer.o)
 .text          0x00000000        0x0 c:/program files/microchip/xc32/v3.01/bin/bin/../../lib/gcc/pic32c/8.3.1/../../../../pic32c/lib/thumb/v7e-m+fp/hard\libc_nano.a(lib_a-__ssputs.o)
 .data          0x00000000        0x0 c:/program files/microchip/xc32/v3.01/bin/bin/../../lib/gcc/pic32c/8.3.1/../../../../pic32c/lib/thumb/v7e-m+fp/hard\libc_nano.a(lib_a-__ssputs.o)
 .bss           0x00000000        0x0 c:/program files/microchip/xc32/v3.01/bin/bin/../../lib/gcc/pic32c/8.3.1/../../../../pic32c/lib/thumb/v7e-m+fp/hard\libc_nano.a(lib_a-__ssputs.o)
 .xc_stack_usage
                0x00000000       0x18 c:/program files/microchip/xc32/v3.01/bin/bin/../../lib/gcc/pic32c/8.3.1/../../../../pic32c/lib/thumb/v7e-m+fp/hard\libc_nano.a(lib_a-__ssputs.o)
 .xc_stack_usage.hdr
                0x00000000        0xe c:/program files/microchip/xc32/v3.01/bin/bin/../../lib/gcc/pic32c/8.3.1/../../../../pic32c/lib/thumb/v7e-m+fp/hard\libc_nano.a(lib_a-__ssputs.o)
 .text          0x00000000        0x0 c:/program files/microchip/xc32/v3.01/bin/bin/../../lib/gcc/pic32c/8.3.1/../../../../pic32c/lib/thumb/v7e-m+fp/hard\libc_nano.a(lib_a-closer.o)
 .data          0x00000000        0x0 c:/program files/microchip/xc32/v3.01/bin/bin/../../lib/gcc/pic32c/8.3.1/../../../../pic32c/lib/thumb/v7e-m+fp/hard\libc_nano.a(lib_a-closer.o)
 .bss           0x00000000        0x0 c:/program files/microchip/xc32/v3.01/bin/bin/../../lib/gcc/pic32c/8.3.1/../../../../pic32c/lib/thumb/v7e-m+fp/hard\libc_nano.a(lib_a-closer.o)
 .xc_stack_usage
                0x00000000       0x16 c:/program files/microchip/xc32/v3.01/bin/bin/../../lib/gcc/pic32c/8.3.1/../../../../pic32c/lib/thumb/v7e-m+fp/hard\libc_nano.a(lib_a-closer.o)
 .xc_stack_usage.hdr
                0x00000000        0xe c:/program files/microchip/xc32/v3.01/bin/bin/../../lib/gcc/pic32c/8.3.1/../../../../pic32c/lib/thumb/v7e-m+fp/hard\libc_nano.a(lib_a-closer.o)
 .text          0x00000000        0x0 c:/program files/microchip/xc32/v3.01/bin/bin/../../lib/gcc/pic32c/8.3.1/../../../../pic32c/lib/thumb/v7e-m+fp/hard\libc_nano.a(lib_a-fflush.o)
 .data          0x00000000        0x0 c:/program files/microchip/xc32/v3.01/bin/bin/../../lib/gcc/pic32c/8.3.1/../../../../pic32c/lib/thumb/v7e-m+fp/hard\libc_nano.a(lib_a-fflush.o)
 .bss           0x00000000        0x0 c:/program files/microchip/xc32/v3.01/bin/bin/../../lib/gcc/pic32c/8.3.1/../../../../pic32c/lib/thumb/v7e-m+fp/hard\libc_nano.a(lib_a-fflush.o)
 .xc_stack_usage
                0x00000000       0x43 c:/program files/microchip/xc32/v3.01/bin/bin/../../lib/gcc/pic32c/8.3.1/../../../../pic32c/lib/thumb/v7e-m+fp/hard\libc_nano.a(lib_a-fflush.o)
 .text.fflush   0x00000000       0x24 c:/program files/microchip/xc32/v3.01/bin/bin/../../lib/gcc/pic32c/8.3.1/../../../../pic32c/lib/thumb/v7e-m+fp/hard\libc_nano.a(lib_a-fflush.o)
 .xc_stack_usage.hdr
                0x00000000        0xe c:/program files/microchip/xc32/v3.01/bin/bin/../../lib/gcc/pic32c/8.3.1/../../../../pic32c/lib/thumb/v7e-m+fp/hard\libc_nano.a(lib_a-fflush.o)
 .text          0x00000000        0x0 c:/program files/microchip/xc32/v3.01/bin/bin/../../lib/gcc/pic32c/8.3.1/../../../../pic32c/lib/thumb/v7e-m+fp/hard\libc_nano.a(lib_a-fstatr.o)
 .data          0x00000000        0x0 c:/program files/microchip/xc32/v3.01/bin/bin/../../lib/gcc/pic32c/8.3.1/../../../../pic32c/lib/thumb/v7e-m+fp/hard\libc_nano.a(lib_a-fstatr.o)
 .bss           0x00000000        0x0 c:/program files/microchip/xc32/v3.01/bin/bin/../../lib/gcc/pic32c/8.3.1/../../../../pic32c/lib/thumb/v7e-m+fp/hard\libc_nano.a(lib_a-fstatr.o)
 .xc_stack_usage
                0x00000000       0x16 c:/program files/microchip/xc32/v3.01/bin/bin/../../lib/gcc/pic32c/8.3.1/../../../../pic32c/lib/thumb/v7e-m+fp/hard\libc_nano.a(lib_a-fstatr.o)
 .xc_stack_usage.hdr
                0x00000000        0xe c:/program files/microchip/xc32/v3.01/bin/bin/../../lib/gcc/pic32c/8.3.1/../../../../pic32c/lib/thumb/v7e-m+fp/hard\libc_nano.a(lib_a-fstatr.o)
 .text          0x00000000        0x0 c:/program files/microchip/xc32/v3.01/bin/bin/../../lib/gcc/pic32c/8.3.1/../../../../pic32c/lib/thumb/v7e-m+fp/hard\libc_nano.a(lib_a-isattyr.o)
 .data          0x00000000        0x0 c:/program files/microchip/xc32/v3.01/bin/bin/../../lib/gcc/pic32c/8.3.1/../../../../pic32c/lib/thumb/v7e-m+fp/hard\libc_nano.a(lib_a-isattyr.o)
 .bss           0x00000000        0x0 c:/program files/microchip/xc32/v3.01/bin/bin/../../lib/gcc/pic32c/8.3.1/../../../../pic32c/lib/thumb/v7e-m+fp/hard\libc_nano.a(lib_a-isattyr.o)
 .xc_stack_usage
                0x00000000       0x17 c:/program files/microchip/xc32/v3.01/bin/bin/../../lib/gcc/pic32c/8.3.1/../../../../pic32c/lib/thumb/v7e-m+fp/hard\libc_nano.a(lib_a-isattyr.o)
 .xc_stack_usage.hdr
                0x00000000        0xe c:/program files/microchip/xc32/v3.01/bin/bin/../../lib/gcc/pic32c/8.3.1/../../../../pic32c/lib/thumb/v7e-m+fp/hard\libc_nano.a(lib_a-isattyr.o)
 .text          0x00000000        0x0 c:/program files/microchip/xc32/v3.01/bin/bin/../../lib/gcc/pic32c/8.3.1/../../../../pic32c/lib/thumb/v7e-m+fp/hard\libc_nano.a(lib_a-lseekr.o)
 .data          0x00000000        0x0 c:/program files/microchip/xc32/v3.01/bin/bin/../../lib/gcc/pic32c/8.3.1/../../../../pic32c/lib/thumb/v7e-m+fp/hard\libc_nano.a(lib_a-lseekr.o)
 .bss           0x00000000        0x0 c:/program files/microchip/xc32/v3.01/bin/bin/../../lib/gcc/pic32c/8.3.1/../../../../pic32c/lib/thumb/v7e-m+fp/hard\libc_nano.a(lib_a-lseekr.o)
 .xc_stack_usage
                0x00000000       0x16 c:/program files/microchip/xc32/v3.01/bin/bin/../../lib/gcc/pic32c/8.3.1/../../../../pic32c/lib/thumb/v7e-m+fp/hard\libc_nano.a(lib_a-lseekr.o)
 .xc_stack_usage.hdr
                0x00000000        0xe c:/program files/microchip/xc32/v3.01/bin/bin/../../lib/gcc/pic32c/8.3.1/../../../../pic32c/lib/thumb/v7e-m+fp/hard\libc_nano.a(lib_a-lseekr.o)
 .text          0x00000000        0x0 c:/program files/microchip/xc32/v3.01/bin/bin/../../lib/gcc/pic32c/8.3.1/../../../../pic32c/lib/thumb/v7e-m+fp/hard\libc_nano.a(lib_a-nano-reallocr.o)
 .data          0x00000000        0x0 c:/program files/microchip/xc32/v3.01/bin/bin/../../lib/gcc/pic32c/8.3.1/../../../../pic32c/lib/thumb/v7e-m+fp/hard\libc_nano.a(lib_a-nano-reallocr.o)
 .bss           0x00000000        0x0 c:/program files/microchip/xc32/v3.01/bin/bin/../../lib/gcc/pic32c/8.3.1/../../../../pic32c/lib/thumb/v7e-m+fp/hard\libc_nano.a(lib_a-nano-reallocr.o)
 .xc_stack_usage
                0x00000000       0x18 c:/program files/microchip/xc32/v3.01/bin/bin/../../lib/gcc/pic32c/8.3.1/../../../../pic32c/lib/thumb/v7e-m+fp/hard\libc_nano.a(lib_a-nano-reallocr.o)
 .xc_stack_usage.hdr
                0x00000000        0xe c:/program files/microchip/xc32/v3.01/bin/bin/../../lib/gcc/pic32c/8.3.1/../../../../pic32c/lib/thumb/v7e-m+fp/hard\libc_nano.a(lib_a-nano-reallocr.o)
 .text          0x00000000        0x0 c:/program files/microchip/xc32/v3.01/bin/bin/../../lib/gcc/pic32c/8.3.1/../../../../pic32c/lib/thumb/v7e-m+fp/hard\libc_nano.a(lib_a-readr.o)
 .data          0x00000000        0x0 c:/program files/microchip/xc32/v3.01/bin/bin/../../lib/gcc/pic32c/8.3.1/../../../../pic32c/lib/thumb/v7e-m+fp/hard\libc_nano.a(lib_a-readr.o)
 .bss           0x00000000        0x0 c:/program files/microchip/xc32/v3.01/bin/bin/../../lib/gcc/pic32c/8.3.1/../../../../pic32c/lib/thumb/v7e-m+fp/hard\libc_nano.a(lib_a-readr.o)
 .xc_stack_usage
                0x00000000       0x15 c:/program files/microchip/xc32/v3.01/bin/bin/../../lib/gcc/pic32c/8.3.1/../../../../pic32c/lib/thumb/v7e-m+fp/hard\libc_nano.a(lib_a-readr.o)
 .xc_stack_usage.hdr
                0x00000000        0xe c:/program files/microchip/xc32/v3.01/bin/bin/../../lib/gcc/pic32c/8.3.1/../../../../pic32c/lib/thumb/v7e-m+fp/hard\libc_nano.a(lib_a-readr.o)
 .text          0x00000000        0x0 c:/program files/microchip/xc32/v3.01/bin/bin/../../lib/gcc/pic32c/8.3.1/../../../../pic32c/lib/thumb/v7e-m+fp/hard\libc_nano.a(lib_a-nano-msizer.o)
 .data          0x00000000        0x0 c:/program files/microchip/xc32/v3.01/bin/bin/../../lib/gcc/pic32c/8.3.1/../../../../pic32c/lib/thumb/v7e-m+fp/hard\libc_nano.a(lib_a-nano-msizer.o)
 .bss           0x00000000        0x0 c:/program files/microchip/xc32/v3.01/bin/bin/../../lib/gcc/pic32c/8.3.1/../../../../pic32c/lib/thumb/v7e-m+fp/hard\libc_nano.a(lib_a-nano-msizer.o)
 .xc_stack_usage
                0x00000000       0x23 c:/program files/microchip/xc32/v3.01/bin/bin/../../lib/gcc/pic32c/8.3.1/../../../../pic32c/lib/thumb/v7e-m+fp/hard\libc_nano.a(lib_a-nano-msizer.o)
 .xc_stack_usage.hdr
                0x00000000        0xe c:/program files/microchip/xc32/v3.01/bin/bin/../../lib/gcc/pic32c/8.3.1/../../../../pic32c/lib/thumb/v7e-m+fp/hard\libc_nano.a(lib_a-nano-msizer.o)
 .text          0x00000000        0x0 c:/program files/microchip/xc32/v3.01/bin/bin/../../lib/gcc/pic32c/8.3.1/../../../../pic32c/lib/thumb/v7e-m+fp/hard\libpic32c.a(_close.o)
 .data          0x00000000        0x0 c:/program files/microchip/xc32/v3.01/bin/bin/../../lib/gcc/pic32c/8.3.1/../../../../pic32c/lib/thumb/v7e-m+fp/hard\libpic32c.a(_close.o)
 .bss           0x00000000        0x0 c:/program files/microchip/xc32/v3.01/bin/bin/../../lib/gcc/pic32c/8.3.1/../../../../pic32c/lib/thumb/v7e-m+fp/hard\libpic32c.a(_close.o)
 .xc_stack_usage
                0x00000000       0x14 c:/program files/microchip/xc32/v3.01/bin/bin/../../lib/gcc/pic32c/8.3.1/../../../../pic32c/lib/thumb/v7e-m+fp/hard\libpic32c.a(_close.o)
 .xc_stack_usage.hdr
                0x00000000        0xe c:/program files/microchip/xc32/v3.01/bin/bin/../../lib/gcc/pic32c/8.3.1/../../../../pic32c/lib/thumb/v7e-m+fp/hard\libpic32c.a(_close.o)
 .text          0x00000000        0x0 c:/program files/microchip/xc32/v3.01/bin/bin/../../lib/gcc/pic32c/8.3.1/../../../../pic32c/lib/thumb/v7e-m+fp/hard\libpic32c.a(_fstat.o)
 .data          0x00000000        0x0 c:/program files/microchip/xc32/v3.01/bin/bin/../../lib/gcc/pic32c/8.3.1/../../../../pic32c/lib/thumb/v7e-m+fp/hard\libpic32c.a(_fstat.o)
 .bss           0x00000000        0x0 c:/program files/microchip/xc32/v3.01/bin/bin/../../lib/gcc/pic32c/8.3.1/../../../../pic32c/lib/thumb/v7e-m+fp/hard\libpic32c.a(_fstat.o)
 .xc_stack_usage
                0x00000000       0x14 c:/program files/microchip/xc32/v3.01/bin/bin/../../lib/gcc/pic32c/8.3.1/../../../../pic32c/lib/thumb/v7e-m+fp/hard\libpic32c.a(_fstat.o)
 .xc_stack_usage.hdr
                0x00000000        0xe c:/program files/microchip/xc32/v3.01/bin/bin/../../lib/gcc/pic32c/8.3.1/../../../../pic32c/lib/thumb/v7e-m+fp/hard\libpic32c.a(_fstat.o)
 .text          0x00000000        0x0 c:/program files/microchip/xc32/v3.01/bin/bin/../../lib/gcc/pic32c/8.3.1/../../../../pic32c/lib/thumb/v7e-m+fp/hard\libpic32c.a(_getpid.o)
 .data          0x00000000        0x0 c:/program files/microchip/xc32/v3.01/bin/bin/../../lib/gcc/pic32c/8.3.1/../../../../pic32c/lib/thumb/v7e-m+fp/hard\libpic32c.a(_getpid.o)
 .bss           0x00000000        0x0 c:/program files/microchip/xc32/v3.01/bin/bin/../../lib/gcc/pic32c/8.3.1/../../../../pic32c/lib/thumb/v7e-m+fp/hard\libpic32c.a(_getpid.o)
 .xc_stack_usage
                0x00000000       0x15 c:/program files/microchip/xc32/v3.01/bin/bin/../../lib/gcc/pic32c/8.3.1/../../../../pic32c/lib/thumb/v7e-m+fp/hard\libpic32c.a(_getpid.o)
 .xc_stack_usage.hdr
                0x00000000        0xe c:/program files/microchip/xc32/v3.01/bin/bin/../../lib/gcc/pic32c/8.3.1/../../../../pic32c/lib/thumb/v7e-m+fp/hard\libpic32c.a(_getpid.o)
 .text          0x00000000        0x0 c:/program files/microchip/xc32/v3.01/bin/bin/../../lib/gcc/pic32c/8.3.1/../../../../pic32c/lib/thumb/v7e-m+fp/hard\libpic32c.a(_isatty.o)
 .data          0x00000000        0x0 c:/program files/microchip/xc32/v3.01/bin/bin/../../lib/gcc/pic32c/8.3.1/../../../../pic32c/lib/thumb/v7e-m+fp/hard\libpic32c.a(_isatty.o)
 .bss           0x00000000        0x0 c:/program files/microchip/xc32/v3.01/bin/bin/../../lib/gcc/pic32c/8.3.1/../../../../pic32c/lib/thumb/v7e-m+fp/hard\libpic32c.a(_isatty.o)
 .xc_stack_usage
                0x00000000       0x15 c:/program files/microchip/xc32/v3.01/bin/bin/../../lib/gcc/pic32c/8.3.1/../../../../pic32c/lib/thumb/v7e-m+fp/hard\libpic32c.a(_isatty.o)
 .xc_stack_usage.hdr
                0x00000000        0xe c:/program files/microchip/xc32/v3.01/bin/bin/../../lib/gcc/pic32c/8.3.1/../../../../pic32c/lib/thumb/v7e-m+fp/hard\libpic32c.a(_isatty.o)
 .text          0x00000000        0x0 c:/program files/microchip/xc32/v3.01/bin/bin/../../lib/gcc/pic32c/8.3.1/../../../../pic32c/lib/thumb/v7e-m+fp/hard\libpic32c.a(_kill.o)
 .data          0x00000000        0x0 c:/program files/microchip/xc32/v3.01/bin/bin/../../lib/gcc/pic32c/8.3.1/../../../../pic32c/lib/thumb/v7e-m+fp/hard\libpic32c.a(_kill.o)
 .bss           0x00000000        0x0 c:/program files/microchip/xc32/v3.01/bin/bin/../../lib/gcc/pic32c/8.3.1/../../../../pic32c/lib/thumb/v7e-m+fp/hard\libpic32c.a(_kill.o)
 .xc_stack_usage
                0x00000000       0x13 c:/program files/microchip/xc32/v3.01/bin/bin/../../lib/gcc/pic32c/8.3.1/../../../../pic32c/lib/thumb/v7e-m+fp/hard\libpic32c.a(_kill.o)
 .xc_stack_usage.hdr
                0x00000000        0xe c:/program files/microchip/xc32/v3.01/bin/bin/../../lib/gcc/pic32c/8.3.1/../../../../pic32c/lib/thumb/v7e-m+fp/hard\libpic32c.a(_kill.o)
 .text          0x00000000        0x0 c:/program files/microchip/xc32/v3.01/bin/bin/../../lib/gcc/pic32c/8.3.1/../../../../pic32c/lib/thumb/v7e-m+fp/hard\libpic32c.a(_lseek.o)
 .data          0x00000000        0x0 c:/program files/microchip/xc32/v3.01/bin/bin/../../lib/gcc/pic32c/8.3.1/../../../../pic32c/lib/thumb/v7e-m+fp/hard\libpic32c.a(_lseek.o)
 .bss           0x00000000        0x0 c:/program files/microchip/xc32/v3.01/bin/bin/../../lib/gcc/pic32c/8.3.1/../../../../pic32c/lib/thumb/v7e-m+fp/hard\libpic32c.a(_lseek.o)
 .xc_stack_usage
                0x00000000       0x14 c:/program files/microchip/xc32/v3.01/bin/bin/../../lib/gcc/pic32c/8.3.1/../../../../pic32c/lib/thumb/v7e-m+fp/hard\libpic32c.a(_lseek.o)
 .xc_stack_usage.hdr
                0x00000000        0xe c:/program files/microchip/xc32/v3.01/bin/bin/../../lib/gcc/pic32c/8.3.1/../../../../pic32c/lib/thumb/v7e-m+fp/hard\libpic32c.a(_lseek.o)
 .text          0x00000000        0x0 c:/program files/microchip/xc32/v3.01/bin/bin/../../lib/gcc/pic32c/8.3.1/../../../../pic32c/lib/thumb/v7e-m+fp/hard\libpic32c.a(_read.o)
 .data          0x00000000        0x0 c:/program files/microchip/xc32/v3.01/bin/bin/../../lib/gcc/pic32c/8.3.1/../../../../pic32c/lib/thumb/v7e-m+fp/hard\libpic32c.a(_read.o)
 .bss           0x00000000        0x0 c:/program files/microchip/xc32/v3.01/bin/bin/../../lib/gcc/pic32c/8.3.1/../../../../pic32c/lib/thumb/v7e-m+fp/hard\libpic32c.a(_read.o)
 .xc_stack_usage
                0x00000000       0x13 c:/program files/microchip/xc32/v3.01/bin/bin/../../lib/gcc/pic32c/8.3.1/../../../../pic32c/lib/thumb/v7e-m+fp/hard\libpic32c.a(_read.o)
 .xc_stack_usage.hdr
                0x00000000        0xe c:/program files/microchip/xc32/v3.01/bin/bin/../../lib/gcc/pic32c/8.3.1/../../../../pic32c/lib/thumb/v7e-m+fp/hard\libpic32c.a(_read.o)
 .text          0x00000000        0x0 c:/program files/microchip/xc32/v3.01/bin/bin/../../lib/gcc/pic32c/8.3.1/../../../../pic32c/lib/thumb/v7e-m+fp/hard\libpic32c.a(sbrk.o)
 .data          0x00000000        0x0 c:/program files/microchip/xc32/v3.01/bin/bin/../../lib/gcc/pic32c/8.3.1/../../../../pic32c/lib/thumb/v7e-m+fp/hard\libpic32c.a(sbrk.o)
 .xc_stack_usage
                0x00000000       0x13 c:/program files/microchip/xc32/v3.01/bin/bin/../../lib/gcc/pic32c/8.3.1/../../../../pic32c/lib/thumb/v7e-m+fp/hard\libpic32c.a(sbrk.o)
 .xc_stack_usage.hdr
                0x00000000        0xe c:/program files/microchip/xc32/v3.01/bin/bin/../../lib/gcc/pic32c/8.3.1/../../../../pic32c/lib/thumb/v7e-m+fp/hard\libpic32c.a(sbrk.o)
 .text          0x00000000        0x0 c:/program files/microchip/xc32/v3.01/bin/bin/../../lib/gcc/pic32c/8.3.1/../../../../pic32c/lib/thumb/v7e-m+fp/hard\libpic32c.a(_write.o)
 .data          0x00000000        0x0 c:/program files/microchip/xc32/v3.01/bin/bin/../../lib/gcc/pic32c/8.3.1/../../../../pic32c/lib/thumb/v7e-m+fp/hard\libpic32c.a(_write.o)
 .bss           0x00000000        0x0 c:/program files/microchip/xc32/v3.01/bin/bin/../../lib/gcc/pic32c/8.3.1/../../../../pic32c/lib/thumb/v7e-m+fp/hard\libpic32c.a(_write.o)
 .xc_stack_usage
                0x00000000       0x14 c:/program files/microchip/xc32/v3.01/bin/bin/../../lib/gcc/pic32c/8.3.1/../../../../pic32c/lib/thumb/v7e-m+fp/hard\libpic32c.a(_write.o)
 .xc_stack_usage.hdr
                0x00000000        0xe c:/program files/microchip/xc32/v3.01/bin/bin/../../lib/gcc/pic32c/8.3.1/../../../../pic32c/lib/thumb/v7e-m+fp/hard\libpic32c.a(_write.o)
 .text          0x00000000        0x0 c:/program files/microchip/xc32/v3.01/bin/bin/../../lib/gcc/pic32c/8.3.1/../../../../pic32c/lib/thumb/v7e-m+fp/hard\libpic32c.a(close.o)
 .data          0x00000000        0x0 c:/program files/microchip/xc32/v3.01/bin/bin/../../lib/gcc/pic32c/8.3.1/../../../../pic32c/lib/thumb/v7e-m+fp/hard\libpic32c.a(close.o)
 .bss           0x00000000        0x0 c:/program files/microchip/xc32/v3.01/bin/bin/../../lib/gcc/pic32c/8.3.1/../../../../pic32c/lib/thumb/v7e-m+fp/hard\libpic32c.a(close.o)
 .xc_stack_usage
                0x00000000       0x13 c:/program files/microchip/xc32/v3.01/bin/bin/../../lib/gcc/pic32c/8.3.1/../../../../pic32c/lib/thumb/v7e-m+fp/hard\libpic32c.a(close.o)
 .gnu.warning.closestub
                0x00000000        0x0 c:/program files/microchip/xc32/v3.01/bin/bin/../../lib/gcc/pic32c/8.3.1/../../../../pic32c/lib/thumb/v7e-m+fp/hard\libpic32c.a(close.o)
 .xc_stack_usage.hdr
                0x00000000        0xe c:/program files/microchip/xc32/v3.01/bin/bin/../../lib/gcc/pic32c/8.3.1/../../../../pic32c/lib/thumb/v7e-m+fp/hard\libpic32c.a(close.o)
 .text          0x00000000        0x0 c:/program files/microchip/xc32/v3.01/bin/bin/../../lib/gcc/pic32c/8.3.1/../../../../pic32c/lib/thumb/v7e-m+fp/hard\libpic32c.a(fstat.o)
 .data          0x00000000        0x0 c:/program files/microchip/xc32/v3.01/bin/bin/../../lib/gcc/pic32c/8.3.1/../../../../pic32c/lib/thumb/v7e-m+fp/hard\libpic32c.a(fstat.o)
 .bss           0x00000000        0x0 c:/program files/microchip/xc32/v3.01/bin/bin/../../lib/gcc/pic32c/8.3.1/../../../../pic32c/lib/thumb/v7e-m+fp/hard\libpic32c.a(fstat.o)
 .xc_stack_usage
                0x00000000       0x13 c:/program files/microchip/xc32/v3.01/bin/bin/../../lib/gcc/pic32c/8.3.1/../../../../pic32c/lib/thumb/v7e-m+fp/hard\libpic32c.a(fstat.o)
 .xc_stack_usage.hdr
                0x00000000        0xe c:/program files/microchip/xc32/v3.01/bin/bin/../../lib/gcc/pic32c/8.3.1/../../../../pic32c/lib/thumb/v7e-m+fp/hard\libpic32c.a(fstat.o)
 .text          0x00000000        0x0 c:/program files/microchip/xc32/v3.01/bin/bin/../../lib/gcc/pic32c/8.3.1/../../../../pic32c/lib/thumb/v7e-m+fp/hard\libpic32c.a(getpid.o)
 .data          0x00000000        0x0 c:/program files/microchip/xc32/v3.01/bin/bin/../../lib/gcc/pic32c/8.3.1/../../../../pic32c/lib/thumb/v7e-m+fp/hard\libpic32c.a(getpid.o)
 .bss           0x00000000        0x0 c:/program files/microchip/xc32/v3.01/bin/bin/../../lib/gcc/pic32c/8.3.1/../../../../pic32c/lib/thumb/v7e-m+fp/hard\libpic32c.a(getpid.o)
 .xc_stack_usage
                0x00000000       0x14 c:/program files/microchip/xc32/v3.01/bin/bin/../../lib/gcc/pic32c/8.3.1/../../../../pic32c/lib/thumb/v7e-m+fp/hard\libpic32c.a(getpid.o)
 .xc_stack_usage.hdr
                0x00000000        0xe c:/program files/microchip/xc32/v3.01/bin/bin/../../lib/gcc/pic32c/8.3.1/../../../../pic32c/lib/thumb/v7e-m+fp/hard\libpic32c.a(getpid.o)
 .text          0x00000000        0x0 c:/program files/microchip/xc32/v3.01/bin/bin/../../lib/gcc/pic32c/8.3.1/../../../../pic32c/lib/thumb/v7e-m+fp/hard\libpic32c.a(isatty.o)
 .data          0x00000000        0x0 c:/program files/microchip/xc32/v3.01/bin/bin/../../lib/gcc/pic32c/8.3.1/../../../../pic32c/lib/thumb/v7e-m+fp/hard\libpic32c.a(isatty.o)
 .bss           0x00000000        0x0 c:/program files/microchip/xc32/v3.01/bin/bin/../../lib/gcc/pic32c/8.3.1/../../../../pic32c/lib/thumb/v7e-m+fp/hard\libpic32c.a(isatty.o)
 .xc_stack_usage
                0x00000000       0x14 c:/program files/microchip/xc32/v3.01/bin/bin/../../lib/gcc/pic32c/8.3.1/../../../../pic32c/lib/thumb/v7e-m+fp/hard\libpic32c.a(isatty.o)
 .xc_stack_usage.hdr
                0x00000000        0xe c:/program files/microchip/xc32/v3.01/bin/bin/../../lib/gcc/pic32c/8.3.1/../../../../pic32c/lib/thumb/v7e-m+fp/hard\libpic32c.a(isatty.o)
 .text          0x00000000        0x0 c:/program files/microchip/xc32/v3.01/bin/bin/../../lib/gcc/pic32c/8.3.1/../../../../pic32c/lib/thumb/v7e-m+fp/hard\libpic32c.a(kill.o)
 .data          0x00000000        0x0 c:/program files/microchip/xc32/v3.01/bin/bin/../../lib/gcc/pic32c/8.3.1/../../../../pic32c/lib/thumb/v7e-m+fp/hard\libpic32c.a(kill.o)
 .bss           0x00000000        0x0 c:/program files/microchip/xc32/v3.01/bin/bin/../../lib/gcc/pic32c/8.3.1/../../../../pic32c/lib/thumb/v7e-m+fp/hard\libpic32c.a(kill.o)
 .xc_stack_usage
                0x00000000       0x12 c:/program files/microchip/xc32/v3.01/bin/bin/../../lib/gcc/pic32c/8.3.1/../../../../pic32c/lib/thumb/v7e-m+fp/hard\libpic32c.a(kill.o)
 .xc_stack_usage.hdr
                0x00000000        0xe c:/program files/microchip/xc32/v3.01/bin/bin/../../lib/gcc/pic32c/8.3.1/../../../../pic32c/lib/thumb/v7e-m+fp/hard\libpic32c.a(kill.o)
 .text          0x00000000        0x0 c:/program files/microchip/xc32/v3.01/bin/bin/../../lib/gcc/pic32c/8.3.1/../../../../pic32c/lib/thumb/v7e-m+fp/hard\libpic32c.a(lseek.o)
 .data          0x00000000        0x0 c:/program files/microchip/xc32/v3.01/bin/bin/../../lib/gcc/pic32c/8.3.1/../../../../pic32c/lib/thumb/v7e-m+fp/hard\libpic32c.a(lseek.o)
 .bss           0x00000000        0x0 c:/program files/microchip/xc32/v3.01/bin/bin/../../lib/gcc/pic32c/8.3.1/../../../../pic32c/lib/thumb/v7e-m+fp/hard\libpic32c.a(lseek.o)
 .xc_stack_usage
                0x00000000       0x13 c:/program files/microchip/xc32/v3.01/bin/bin/../../lib/gcc/pic32c/8.3.1/../../../../pic32c/lib/thumb/v7e-m+fp/hard\libpic32c.a(lseek.o)
 .xc_stack_usage.hdr
                0x00000000        0xe c:/program files/microchip/xc32/v3.01/bin/bin/../../lib/gcc/pic32c/8.3.1/../../../../pic32c/lib/thumb/v7e-m+fp/hard\libpic32c.a(lseek.o)
 .text          0x00000000        0x0 c:/program files/microchip/xc32/v3.01/bin/bin/../../lib/gcc/pic32c/8.3.1/../../../../pic32c/lib/thumb/v7e-m+fp/hard\libpic32c.a(read.o)
 .data          0x00000000        0x0 c:/program files/microchip/xc32/v3.01/bin/bin/../../lib/gcc/pic32c/8.3.1/../../../../pic32c/lib/thumb/v7e-m+fp/hard\libpic32c.a(read.o)
 .bss           0x00000000        0x0 c:/program files/microchip/xc32/v3.01/bin/bin/../../lib/gcc/pic32c/8.3.1/../../../../pic32c/lib/thumb/v7e-m+fp/hard\libpic32c.a(read.o)
 .xc_stack_usage
                0x00000000       0x12 c:/program files/microchip/xc32/v3.01/bin/bin/../../lib/gcc/pic32c/8.3.1/../../../../pic32c/lib/thumb/v7e-m+fp/hard\libpic32c.a(read.o)
 .xc_stack_usage.hdr
                0x00000000        0xe c:/program files/microchip/xc32/v3.01/bin/bin/../../lib/gcc/pic32c/8.3.1/../../../../pic32c/lib/thumb/v7e-m+fp/hard\libpic32c.a(read.o)
 .text          0x00000000        0x0 c:/program files/microchip/xc32/v3.01/bin/bin/../../lib/gcc/pic32c/8.3.1/../../../../pic32c/lib/thumb/v7e-m+fp/hard\libpic32c.a(write.o)
 .data          0x00000000        0x0 c:/program files/microchip/xc32/v3.01/bin/bin/../../lib/gcc/pic32c/8.3.1/../../../../pic32c/lib/thumb/v7e-m+fp/hard\libpic32c.a(write.o)
 .bss           0x00000000        0x0 c:/program files/microchip/xc32/v3.01/bin/bin/../../lib/gcc/pic32c/8.3.1/../../../../pic32c/lib/thumb/v7e-m+fp/hard\libpic32c.a(write.o)
 .xc_stack_usage
                0x00000000       0x13 c:/program files/microchip/xc32/v3.01/bin/bin/../../lib/gcc/pic32c/8.3.1/../../../../pic32c/lib/thumb/v7e-m+fp/hard\libpic32c.a(write.o)
 .xc_stack_usage.hdr
                0x00000000        0xe c:/program files/microchip/xc32/v3.01/bin/bin/../../lib/gcc/pic32c/8.3.1/../../../../pic32c/lib/thumb/v7e-m+fp/hard\libpic32c.a(write.o)
 .data          0x00000000        0x0 c:/program files/microchip/xc32/v3.01/bin/bin/../../lib/gcc/pic32c/8.3.1/thumb/v7e-m+fp/hard\libgcc.a(_arm_unorddf2.o)
 .bss           0x00000000        0x0 c:/program files/microchip/xc32/v3.01/bin/bin/../../lib/gcc/pic32c/8.3.1/thumb/v7e-m+fp/hard\libgcc.a(_arm_unorddf2.o)
 .xc_stack_usage.hdr
                0x00000000        0xe c:/program files/microchip/xc32/v3.01/bin/bin/../../lib/gcc/pic32c/8.3.1/thumb/v7e-m+fp/hard\libgcc.a(_arm_unorddf2.o)
 .xc_stack_usage
                0x00000000       0x18 c:/program files/microchip/xc32/v3.01/bin/bin/../../lib/gcc/pic32c/8.3.1/thumb/v7e-m+fp/hard\libgcc.a(_arm_unorddf2.o)
 .data          0x00000000        0x0 c:/program files/microchip/xc32/v3.01/bin/bin/../../lib/gcc/pic32c/8.3.1/thumb/v7e-m+fp/hard\libgcc.a(_arm_fixdfsi.o)
 .bss           0x00000000        0x0 c:/program files/microchip/xc32/v3.01/bin/bin/../../lib/gcc/pic32c/8.3.1/thumb/v7e-m+fp/hard\libgcc.a(_arm_fixdfsi.o)
 .xc_stack_usage.hdr
                0x00000000        0xe c:/program files/microchip/xc32/v3.01/bin/bin/../../lib/gcc/pic32c/8.3.1/thumb/v7e-m+fp/hard\libgcc.a(_arm_fixdfsi.o)
 .xc_stack_usage
                0x00000000       0x17 c:/program files/microchip/xc32/v3.01/bin/bin/../../lib/gcc/pic32c/8.3.1/thumb/v7e-m+fp/hard\libgcc.a(_arm_fixdfsi.o)
 .text          0x00000000        0x0 c:/program files/microchip/xc32/v3.01/bin/bin/../../lib/gcc/pic32c/8.3.1/thumb/v7e-m+fp/hard/crtend.o
 .data          0x00000000        0x0 c:/program files/microchip/xc32/v3.01/bin/bin/../../lib/gcc/pic32c/8.3.1/thumb/v7e-m+fp/hard/crtend.o
 .bss           0x00000000        0x0 c:/program files/microchip/xc32/v3.01/bin/bin/../../lib/gcc/pic32c/8.3.1/thumb/v7e-m+fp/hard/crtend.o
 .eh_frame      0x00000000        0x4 c:/program files/microchip/xc32/v3.01/bin/bin/../../lib/gcc/pic32c/8.3.1/thumb/v7e-m+fp/hard/crtend.o
 .xc_stack_usage.hdr
                0x00000000        0xe c:/program files/microchip/xc32/v3.01/bin/bin/../../lib/gcc/pic32c/8.3.1/thumb/v7e-m+fp/hard/crtend.o
 .comment       0x00000000       0x54 c:/program files/microchip/xc32/v3.01/bin/bin/../../lib/gcc/pic32c/8.3.1/thumb/v7e-m+fp/hard/crtend.o
 .ARM.attributes
                0x00000000       0x32 c:/program files/microchip/xc32/v3.01/bin/bin/../../lib/gcc/pic32c/8.3.1/thumb/v7e-m+fp/hard/crtend.o
 .text          0x00000000        0x0 c:/program files/microchip/xc32/v3.01/bin/bin/../../lib/gcc/pic32c/8.3.1/thumb/v7e-m+fp/hard/crtn.o
 .data          0x00000000        0x0 c:/program files/microchip/xc32/v3.01/bin/bin/../../lib/gcc/pic32c/8.3.1/thumb/v7e-m+fp/hard/crtn.o
 .bss           0x00000000        0x0 c:/program files/microchip/xc32/v3.01/bin/bin/../../lib/gcc/pic32c/8.3.1/thumb/v7e-m+fp/hard/crtn.o
 .xc_stack_usage.hdr
                0x00000000        0xe c:/program files/microchip/xc32/v3.01/bin/bin/../../lib/gcc/pic32c/8.3.1/thumb/v7e-m+fp/hard/crtn.o

Memory Configuration

Name             Origin             Length             Attributes
rom              0x00000000         0x00100000         xrl
ram              0x20000000         0x00040000         xw !r
tcm              0x03000000         0x00000000         xw
config_00804000  0x00804000         0x00000004
config_00804008  0x00804008         0x00000004
config_00804004  0x00804004         0x00000004
*default*        0x00000000         0xffffffff

Linker script and memory map

LOAD c:/program files/microchip/xc32/v3.01/bin/bin/../../lib/gcc/pic32c/8.3.1/thumb/v7e-m+fp/hard/crti.o
LOAD c:/program files/microchip/xc32/v3.01/bin/bin/../../lib/gcc/pic32c/8.3.1/thumb/v7e-m+fp/hard/crtbegin.o
LOAD build/FreeRTOS/production/_ext/1609394304/crypto.o
LOAD build/FreeRTOS/production/_ext/1231519722/drv_ethphy.o
LOAD build/FreeRTOS/production/_ext/1231519722/drv_extphy_lan867x.o
LOAD build/FreeRTOS/production/_ext/41526634/drv_gmac.o
LOAD build/FreeRTOS/production/_ext/41526634/drv_gmac_lib_samE5x.o
LOAD build/FreeRTOS/production/_ext/1149484450/drv_miim.o
LOAD build/FreeRTOS/production/_ext/540595297/helpers.o
LOAD build/FreeRTOS/production/_ext/540595297/icmp.o
LOAD build/FreeRTOS/production/_ext/540595297/tcp.o
LOAD build/FreeRTOS/production/_ext/540595297/arp.o
LOAD build/FreeRTOS/production/_ext/540595297/tcpip_commands.o
LOAD build/FreeRTOS/production/_ext/540595297/iperf.o
LOAD build/FreeRTOS/production/_ext/540595297/ipv4.o
LOAD build/FreeRTOS/production/_ext/540595297/tcpip_heap_alloc.o
LOAD build/FreeRTOS/production/_ext/540595297/tcpip_heap_internal.o
LOAD build/FreeRTOS/production/_ext/540595297/dhcp.o
LOAD build/FreeRTOS/production/_ext/540595297/dns.o
LOAD build/FreeRTOS/production/_ext/540595297/hash_fnv.o
LOAD build/FreeRTOS/production/_ext/540595297/oahash.o
LOAD build/FreeRTOS/production/_ext/540595297/tcpip_helpers.o
LOAD build/FreeRTOS/production/_ext/540595297/tcpip_manager.o
LOAD build/FreeRTOS/production/_ext/540595297/tcpip_notify.o
LOAD build/FreeRTOS/production/_ext/540595297/tcpip_packet.o
LOAD build/FreeRTOS/production/_ext/540595297/udp.o
LOAD build/FreeRTOS/production/_ext/891571577/osal_freertos.o
LOAD build/FreeRTOS/production/_ext/892004133/plib_clock.o
LOAD build/FreeRTOS/production/_ext/1495245741/plib_cmcc.o
LOAD build/FreeRTOS/production/_ext/894153619/plib_evsys.o
LOAD build/FreeRTOS/production/_ext/1494909205/plib_nvic.o
LOAD build/FreeRTOS/production/_ext/320424729/plib_nvmctrl.o
LOAD build/FreeRTOS/production/_ext/1494856054/plib_port.o
LOAD build/FreeRTOS/production/_ext/2092608928/plib_sercom1_usart.o
LOAD build/FreeRTOS/production/_ext/579449528/plib_tc0.o
LOAD build/FreeRTOS/production/_ext/1872641887/xc32_monitor.o
LOAD build/FreeRTOS/production/_ext/1107142132/sys_cache.o
LOAD build/FreeRTOS/production/_ext/1005353002/sys_command.o
LOAD build/FreeRTOS/production/_ext/548640822/sys_console_uart.o
LOAD build/FreeRTOS/production/_ext/548640822/sys_console.o
LOAD build/FreeRTOS/production/_ext/147610190/sys_debug.o
LOAD build/FreeRTOS/production/_ext/1690414130/sys_int.o
LOAD build/FreeRTOS/production/_ext/1093154855/sys_reset.o
LOAD build/FreeRTOS/production/_ext/832704728/sys_time.o
LOAD build/FreeRTOS/production/_ext/2072568807/sys_time_h2_adapter.o
LOAD build/FreeRTOS/production/_ext/2072568807/sys_random_h2_adapter.o
LOAD build/FreeRTOS/production/_ext/161576091/tasks.o
LOAD build/FreeRTOS/production/_ext/161576091/initialization.o
LOAD build/FreeRTOS/production/_ext/161576091/interrupts.o
LOAD build/FreeRTOS/production/_ext/161576091/exceptions.o
LOAD build/FreeRTOS/production/_ext/161576091/startup_xc32.o
LOAD build/FreeRTOS/production/_ext/161576091/libc_syscalls.o
LOAD build/FreeRTOS/production/_ext/161576091/freertos_hooks.o
LOAD build/FreeRTOS/production/_ext/246609638/port.o
LOAD build/FreeRTOS/production/_ext/1665200909/heap_1.o
LOAD build/FreeRTOS/production/_ext/404212886/croutine.o
LOAD build/FreeRTOS/production/_ext/404212886/list.o
LOAD build/FreeRTOS/production/_ext/404212886/queue.o
LOAD build/FreeRTOS/production/_ext/404212886/FreeRTOS_tasks.o
LOAD build/FreeRTOS/production/_ext/404212886/timers.o
LOAD build/FreeRTOS/production/_ext/404212886/event_groups.o
LOAD build/FreeRTOS/production/_ext/404212886/stream_buffer.o
LOAD build/FreeRTOS/production/_ext/172253694/pic32mz-crypt.o
LOAD build/FreeRTOS/production/_ext/172253694/crypt_aes_sam6149.o
LOAD build/FreeRTOS/production/_ext/172253694/crypt_aes_u2238.o
LOAD build/FreeRTOS/production/_ext/172253694/crypt_ecc_ba414e.o
LOAD build/FreeRTOS/production/_ext/172253694/crypt_ecc_pukcl.o
LOAD build/FreeRTOS/production/_ext/172253694/crypt_pukcl_functions.o
LOAD build/FreeRTOS/production/_ext/172253694/crypt_rng_sam6334.o
LOAD build/FreeRTOS/production/_ext/172253694/crypt_rng_u2242.o
LOAD build/FreeRTOS/production/_ext/172253694/crypt_rsa_pukcl.o
LOAD build/FreeRTOS/production/_ext/172253694/crypt_sam_u2803.o
LOAD build/FreeRTOS/production/_ext/172253694/crypt_sha1_sam11105.o
LOAD build/FreeRTOS/production/_ext/172253694/crypt_sha1_sam6156.o
LOAD build/FreeRTOS/production/_ext/172253694/crypt_sha224_sam11105.o
LOAD build/FreeRTOS/production/_ext/172253694/crypt_sha224_sam6156.o
LOAD build/FreeRTOS/production/_ext/172253694/crypt_sha256_sam11105.o
LOAD build/FreeRTOS/production/_ext/172253694/crypt_sha256_sam6156.o
LOAD build/FreeRTOS/production/_ext/172253694/crypt_sha384_sam6156.o
LOAD build/FreeRTOS/production/_ext/172253694/crypt_sha512_sam6156.o
LOAD build/FreeRTOS/production/_ext/172253694/crypt_tdes_sam6150.o
LOAD build/FreeRTOS/production/_ext/172253694/crypt_wolfcryptcb.o
LOAD build/FreeRTOS/production/_ext/1664057780/arc4.o
LOAD build/FreeRTOS/production/_ext/1664057780/asm.o
LOAD build/FreeRTOS/production/_ext/1664057780/asn.o
LOAD build/FreeRTOS/production/_ext/1664057780/blake2b.o
LOAD build/FreeRTOS/production/_ext/1664057780/blake2s.o
LOAD build/FreeRTOS/production/_ext/1664057780/camellia.o
LOAD build/FreeRTOS/production/_ext/1664057780/chacha.o
LOAD build/FreeRTOS/production/_ext/1664057780/chacha20_poly1305.o
LOAD build/FreeRTOS/production/_ext/1664057780/cmac.o
LOAD build/FreeRTOS/production/_ext/1664057780/coding.o
LOAD build/FreeRTOS/production/_ext/1664057780/compress.o
LOAD build/FreeRTOS/production/_ext/1664057780/cpuid.o
LOAD build/FreeRTOS/production/_ext/1664057780/cryptocb.o
LOAD build/FreeRTOS/production/_ext/1664057780/curve25519.o
LOAD build/FreeRTOS/production/_ext/1664057780/curve448.o
LOAD build/FreeRTOS/production/_ext/1664057780/dh.o
LOAD build/FreeRTOS/production/_ext/1664057780/dsa.o
LOAD build/FreeRTOS/production/_ext/1664057780/ecc_fp.o
LOAD build/FreeRTOS/production/_ext/1664057780/ed25519.o
LOAD build/FreeRTOS/production/_ext/1664057780/ed448.o
LOAD build/FreeRTOS/production/_ext/1664057780/error.o
LOAD build/FreeRTOS/production/_ext/1664057780/fe_448.o
LOAD build/FreeRTOS/production/_ext/1664057780/fe_low_mem.o
LOAD build/FreeRTOS/production/_ext/1664057780/fe_operations.o
LOAD build/FreeRTOS/production/_ext/1664057780/ge_448.o
LOAD build/FreeRTOS/production/_ext/1664057780/ge_low_mem.o
LOAD build/FreeRTOS/production/_ext/1664057780/ge_operations.o
LOAD build/FreeRTOS/production/_ext/1664057780/hash.o
LOAD build/FreeRTOS/production/_ext/1664057780/hc128.o
LOAD build/FreeRTOS/production/_ext/1664057780/hmac.o
LOAD build/FreeRTOS/production/_ext/1664057780/idea.o
LOAD build/FreeRTOS/production/_ext/1664057780/integer.o
LOAD build/FreeRTOS/production/_ext/1664057780/logging.o
LOAD build/FreeRTOS/production/_ext/1664057780/md2.o
LOAD build/FreeRTOS/production/_ext/1664057780/md4.o
LOAD build/FreeRTOS/production/_ext/1664057780/md5.o
LOAD build/FreeRTOS/production/_ext/1664057780/memory.o
LOAD build/FreeRTOS/production/_ext/1664057780/pkcs12.o
LOAD build/FreeRTOS/production/_ext/1664057780/pkcs7.o
LOAD build/FreeRTOS/production/_ext/1664057780/poly1305.o
LOAD build/FreeRTOS/production/_ext/1664057780/pwdbased.o
LOAD build/FreeRTOS/production/_ext/1664057780/rabbit.o
LOAD build/FreeRTOS/production/_ext/1664057780/rc2.o
LOAD build/FreeRTOS/production/_ext/1664057780/ripemd.o
LOAD build/FreeRTOS/production/_ext/1664057780/rsa.o
LOAD build/FreeRTOS/production/_ext/1664057780/sha3.o
LOAD build/FreeRTOS/production/_ext/1664057780/signature.o
LOAD build/FreeRTOS/production/_ext/1664057780/sp_arm32.o
LOAD build/FreeRTOS/production/_ext/1664057780/sp_arm64.o
LOAD build/FreeRTOS/production/_ext/1664057780/sp_armthumb.o
LOAD build/FreeRTOS/production/_ext/1664057780/sp_c32.o
LOAD build/FreeRTOS/production/_ext/1664057780/sp_c64.o
LOAD build/FreeRTOS/production/_ext/1664057780/sp_cortexm.o
LOAD build/FreeRTOS/production/_ext/1664057780/sp_dsp32.o
LOAD build/FreeRTOS/production/_ext/1664057780/sp_int.o
LOAD build/FreeRTOS/production/_ext/1664057780/sp_x86_64.o
LOAD build/FreeRTOS/production/_ext/1664057780/srp.o
LOAD build/FreeRTOS/production/_ext/1664057780/tfm.o
LOAD build/FreeRTOS/production/_ext/1664057780/wc_dsp.o
LOAD build/FreeRTOS/production/_ext/1664057780/wc_encrypt.o
LOAD build/FreeRTOS/production/_ext/1664057780/wc_pkcs11.o
LOAD build/FreeRTOS/production/_ext/1664057780/wc_port.o
LOAD build/FreeRTOS/production/_ext/1664057780/wolfevent.o
LOAD build/FreeRTOS/production/_ext/1664057780/wolfmath.o
LOAD build/FreeRTOS/production/_ext/1664057780/aes.o
LOAD build/FreeRTOS/production/_ext/1664057780/des3.o
LOAD build/FreeRTOS/production/_ext/1664057780/random.o
LOAD build/FreeRTOS/production/_ext/1664057780/sha.o
LOAD build/FreeRTOS/production/_ext/1664057780/sha256.o
LOAD build/FreeRTOS/production/_ext/1664057780/sha512.o
LOAD build/FreeRTOS/production/_ext/1664057780/ecc.o
LOAD build/FreeRTOS/production/_ext/1360937237/app.o
LOAD build/FreeRTOS/production/_ext/1360937237/main.o
LOAD build/FreeRTOS/production/_ext/1664057780/misc.o
LOAD build/FreeRTOS/production/_ext/1664057780/evp.o
LOAD build/FreeRTOS/production/_ext/1428073114/plib_sercom0_spi_master.o
LOAD build/FreeRTOS/production/_ext/1434865757/gfx_mono_framebuffer.o
LOAD build/FreeRTOS/production/_ext/1434865757/gfx_mono_generic.o
LOAD build/FreeRTOS/production/_ext/1434865757/gfx_mono_text.o
LOAD build/FreeRTOS/production/_ext/1434865757/gfx_mono_ug_2832hsweg04.o
LOAD build/FreeRTOS/production/_ext/1434865757/gfx_ssd1306.o
LOAD build/FreeRTOS/production/_ext/1434865757/gfx_sysfont.o
                0x00000001                __MPLAB_BUILD = 0x1
                0x00100000                __rom_end = (ORIGIN (rom) + LENGTH (rom))
                0x20040000                __ram_end = (ORIGIN (ram) + LENGTH (ram))

.config_00804000
                0x00804000        0x4
 *(.config_00804000)
 .config_00804000
                0x00804000        0x4 build/FreeRTOS/production/_ext/161576091/initialization.o
                0x00804000                __config_00804000

.config_00804008
                0x00804008        0x4
 *(.config_00804008)
 .config_00804008
                0x00804008        0x4 build/FreeRTOS/production/_ext/161576091/initialization.o
                0x00804008                __config_00804008

.config_00804004
                0x00804004        0x4
 *(.config_00804004)
 .config_00804004
                0x00804004        0x4 build/FreeRTOS/production/_ext/161576091/initialization.o
                0x00804004                __config_00804004

.vectors        0x00000000      0x264
                0x00000000                . = ALIGN (0x4)
                0x00000000                _sfixed = .
 *(.vectors .vectors.* .vectors_default .vectors_default.*)
 .vectors       0x00000000      0x264 build/FreeRTOS/production/_ext/161576091/interrupts.o
                0x00000000                exception_table
 *(.isr_vector)
 *(.reset*)
 *(.after_vectors)

.text           0x00000264       0x20
                0x00000264                . = ALIGN (0x4)
 *(.glue_7t)
 .glue_7t       0x00000264        0x0 linker stubs
 *(.glue_7)
 .glue_7        0x00000264        0x0 linker stubs
 *(.gnu.linkonce.r.*)
 *(.ARM.extab* .gnu.linkonce.armextab.*)
                0x00000264                . = ALIGN (0x4)
 *(.init)
 .init          0x00000264        0x4 c:/program files/microchip/xc32/v3.01/bin/bin/../../lib/gcc/pic32c/8.3.1/thumb/v7e-m+fp/hard/crti.o
                0x00000264                _init
 .init          0x00000268        0x8 c:/program files/microchip/xc32/v3.01/bin/bin/../../lib/gcc/pic32c/8.3.1/thumb/v7e-m+fp/hard/crtn.o
                0x00000270                . = ALIGN (0x4)
                0x00000270                __preinit_array_start = .
 *(.preinit_array)
                0x00000270                __preinit_array_end = .
                0x00000270                . = ALIGN (0x4)
                0x00000270                __init_array_start = .
 *(SORT_BY_NAME(.init_array.*))
 *(.init_array)
 .init_array    0x00000270        0x4 c:/program files/microchip/xc32/v3.01/bin/bin/../../lib/gcc/pic32c/8.3.1/thumb/v7e-m+fp/hard/crtbegin.o
                0x00000274                __init_array_end = .
                0x00000274                . = ALIGN (0x4)
 *crtbegin.o(.ctors)
 *(EXCLUDE_FILE(*crtend.o) .ctors)
 *(SORT_BY_NAME(.ctors.*))
 *crtend.o(.ctors)
                0x00000274                . = ALIGN (0x4)
 *(.fini)
 .fini          0x00000274        0x4 c:/program files/microchip/xc32/v3.01/bin/bin/../../lib/gcc/pic32c/8.3.1/thumb/v7e-m+fp/hard/crti.o
                0x00000274                _fini
 .fini          0x00000278        0x8 c:/program files/microchip/xc32/v3.01/bin/bin/../../lib/gcc/pic32c/8.3.1/thumb/v7e-m+fp/hard/crtn.o
                0x00000280                . = ALIGN (0x4)
                0x00000280                __fini_array_start = .
 *(.fini_array)
 .fini_array    0x00000280        0x4 c:/program files/microchip/xc32/v3.01/bin/bin/../../lib/gcc/pic32c/8.3.1/thumb/v7e-m+fp/hard/crtbegin.o
 *(SORT_BY_NAME(.fini_array.*))
                0x00000284                __fini_array_end = .
 *crtbegin.o(.dtors)
 *(EXCLUDE_FILE(*crtend.o) .dtors)
 *(SORT_BY_NAME(.dtors.*))
 *crtend.o(.dtors)
                0x00000284                . = ALIGN (0x4)
                0x00000284                _efixed = .
                [!provide]                PROVIDE (__exidx_start = .)

.ARM.exidx      0x00000284        0x8
 *(.ARM.exidx* .gnu.linkonce.armexidx.*)
 .ARM.exidx     0x00000284        0x8 c:/program files/microchip/xc32/v3.01/bin/bin/../../lib/gcc/pic32c/8.3.1/thumb/v7e-m+fp/hard\libgcc.a(_udivmoddi4.o)
                [!provide]                PROVIDE (__exidx_end = .)
                0x0000028c                . = ALIGN (0x4)
                0x0000028c                _etext = .

.bss            0x20000000        0x4
                0x20000000                . = ALIGN (0x4)
                0x20000000                __bss_start__ = .
                0x20000000                _sbss = .
                0x20000000                _szero = .
 *(COMMON)
 COMMON         0x20000000        0x4 c:/program files/microchip/xc32/v3.01/bin/bin/../../lib/gcc/pic32c/8.3.1/../../../../pic32c/lib/thumb/v7e-m+fp/hard\libc_nano.a(lib_a-reent.o)
                0x20000000                errno
                0x20000004                . = ALIGN (0x4)
                0x20000004                __bss_end__ = .
                0x20000004                _ebss = .
                0x20000004                _ezero = .
                0x20000004                . = ALIGN (0x4)
                0x20000004                _end = .
                0x2003ffff                _ram_end_ = ((ORIGIN (ram) + LENGTH (ram)) - 0x1)
                0x00017ac0                _min_heap_size = 0x17ac0
START GROUP
LOAD c:/program files/microchip/xc32/v3.01/bin/bin/../../lib/gcc/pic32c/8.3.1/../../../../pic32c/lib/thumb/v7e-m+fp/hard\libpic32c.a
LOAD c:/program files/microchip/xc32/v3.01/bin/bin/../../lib/gcc/pic32c/8.3.1/thumb/v7e-m+fp/hard\libgcc.a
LOAD c:/program files/microchip/xc32/v3.01/bin/bin/../../lib/gcc/pic32c/8.3.1/../../../../pic32c/lib/thumb/v7e-m+fp/hard\libm_nano.a
LOAD c:/program files/microchip/xc32/v3.01/bin/bin/../../lib/gcc/pic32c/8.3.1/../../../../pic32c/lib/thumb/v7e-m+fp/hard\libc_nano.a
END GROUP
LOAD c:/program files/microchip/xc32/v3.01/bin/bin/../../lib/gcc/pic32c/8.3.1/thumb/v7e-m+fp/hard/crtend.o
LOAD c:/program files/microchip/xc32/v3.01/bin/bin/../../lib/gcc/pic32c/8.3.1/thumb/v7e-m+fp/hard/crtn.o
OUTPUT(dist/FreeRTOS/production/tcpip_iperf_10base_t1s_freertos.X.production.elf elf32-littlearm)
LOAD stack
LOAD data_init

.ARM.attributes
                0x00000000       0x30
 .ARM.attributes
                0x00000000       0x1e c:/program files/microchip/xc32/v3.01/bin/bin/../../lib/gcc/pic32c/8.3.1/thumb/v7e-m+fp/hard/crti.o
 .ARM.attributes
                0x0000001e       0x34 c:/program files/microchip/xc32/v3.01/bin/bin/../../lib/gcc/pic32c/8.3.1/thumb/v7e-m+fp/hard/crtbegin.o
 .ARM.attributes
                0x00000052       0x34 build/FreeRTOS/production/_ext/1609394304/crypto.o
 .ARM.attributes
                0x00000086       0x34 build/FreeRTOS/production/_ext/1231519722/drv_ethphy.o
 .ARM.attributes
                0x000000ba       0x34 build/FreeRTOS/production/_ext/1231519722/drv_extphy_lan867x.o
 .ARM.attributes
                0x000000ee       0x34 build/FreeRTOS/production/_ext/41526634/drv_gmac.o
 .ARM.attributes
                0x00000122       0x34 build/FreeRTOS/production/_ext/41526634/drv_gmac_lib_samE5x.o
 .ARM.attributes
                0x00000156       0x34 build/FreeRTOS/production/_ext/1149484450/drv_miim.o
 .ARM.attributes
                0x0000018a       0x34 build/FreeRTOS/production/_ext/540595297/helpers.o
 .ARM.attributes
                0x000001be       0x34 build/FreeRTOS/production/_ext/540595297/icmp.o
 .ARM.attributes
                0x000001f2       0x34 build/FreeRTOS/production/_ext/540595297/tcp.o
 .ARM.attributes
                0x00000226       0x34 build/FreeRTOS/production/_ext/540595297/arp.o
 .ARM.attributes
                0x0000025a       0x34 build/FreeRTOS/production/_ext/540595297/tcpip_commands.o
 .ARM.attributes
                0x0000028e       0x34 build/FreeRTOS/production/_ext/540595297/iperf.o
 .ARM.attributes
                0x000002c2       0x34 build/FreeRTOS/production/_ext/540595297/ipv4.o
 .ARM.attributes
                0x000002f6       0x34 build/FreeRTOS/production/_ext/540595297/tcpip_heap_alloc.o
 .ARM.attributes
                0x0000032a       0x34 build/FreeRTOS/production/_ext/540595297/tcpip_heap_internal.o
 .ARM.attributes
                0x0000035e       0x34 build/FreeRTOS/production/_ext/540595297/dhcp.o
 .ARM.attributes
                0x00000392       0x34 build/FreeRTOS/production/_ext/540595297/dns.o
 .ARM.attributes
                0x000003c6       0x34 build/FreeRTOS/production/_ext/540595297/hash_fnv.o
 .ARM.attributes
                0x000003fa       0x34 build/FreeRTOS/production/_ext/540595297/oahash.o
 .ARM.attributes
                0x0000042e       0x34 build/FreeRTOS/production/_ext/540595297/tcpip_helpers.o
 .ARM.attributes
                0x00000462       0x34 build/FreeRTOS/production/_ext/540595297/tcpip_manager.o
 .ARM.attributes
                0x00000496       0x34 build/FreeRTOS/production/_ext/540595297/tcpip_notify.o
 .ARM.attributes
                0x000004ca       0x34 build/FreeRTOS/production/_ext/540595297/tcpip_packet.o
 .ARM.attributes
                0x000004fe       0x34 build/FreeRTOS/production/_ext/540595297/udp.o
 .ARM.attributes
                0x00000532       0x34 build/FreeRTOS/production/_ext/891571577/osal_freertos.o
 .ARM.attributes
                0x00000566       0x34 build/FreeRTOS/production/_ext/892004133/plib_clock.o
 .ARM.attributes
                0x0000059a       0x34 build/FreeRTOS/production/_ext/894153619/plib_evsys.o
 .ARM.attributes
                0x000005ce       0x34 build/FreeRTOS/production/_ext/1494909205/plib_nvic.o
 .ARM.attributes
                0x00000602       0x34 build/FreeRTOS/production/_ext/320424729/plib_nvmctrl.o
 .ARM.attributes
                0x00000636       0x34 build/FreeRTOS/production/_ext/1494856054/plib_port.o
 .ARM.attributes
                0x0000066a       0x34 build/FreeRTOS/production/_ext/2092608928/plib_sercom1_usart.o
 .ARM.attributes
                0x0000069e       0x34 build/FreeRTOS/production/_ext/579449528/plib_tc0.o
 .ARM.attributes
                0x000006d2       0x34 build/FreeRTOS/production/_ext/1872641887/xc32_monitor.o
 .ARM.attributes
                0x00000706       0x34 build/FreeRTOS/production/_ext/1005353002/sys_command.o
 .ARM.attributes
                0x0000073a       0x34 build/FreeRTOS/production/_ext/548640822/sys_console_uart.o
 .ARM.attributes
                0x0000076e       0x34 build/FreeRTOS/production/_ext/548640822/sys_console.o
 .ARM.attributes
                0x000007a2       0x34 build/FreeRTOS/production/_ext/147610190/sys_debug.o
 .ARM.attributes
                0x000007d6       0x34 build/FreeRTOS/production/_ext/1690414130/sys_int.o
 .ARM.attributes
                0x0000080a       0x34 build/FreeRTOS/production/_ext/1093154855/sys_reset.o
 .ARM.attributes
                0x0000083e       0x34 build/FreeRTOS/production/_ext/832704728/sys_time.o
 .ARM.attributes
                0x00000872       0x34 build/FreeRTOS/production/_ext/2072568807/sys_time_h2_adapter.o
 .ARM.attributes
                0x000008a6       0x34 build/FreeRTOS/production/_ext/2072568807/sys_random_h2_adapter.o
 .ARM.attributes
                0x000008da       0x34 build/FreeRTOS/production/_ext/161576091/tasks.o
 .ARM.attributes
                0x0000090e       0x34 build/FreeRTOS/production/_ext/161576091/initialization.o
 .ARM.attributes
                0x00000942       0x34 build/FreeRTOS/production/_ext/161576091/interrupts.o
 .ARM.attributes
                0x00000976       0x34 build/FreeRTOS/production/_ext/161576091/exceptions.o
 .ARM.attributes
                0x000009aa       0x34 build/FreeRTOS/production/_ext/161576091/startup_xc32.o
 .ARM.attributes
                0x000009de       0x34 build/FreeRTOS/production/_ext/161576091/libc_syscalls.o
 .ARM.attributes
                0x00000a12       0x34 build/FreeRTOS/production/_ext/161576091/freertos_hooks.o
 .ARM.attributes
                0x00000a46       0x34 build/FreeRTOS/production/_ext/246609638/port.o
 .ARM.attributes
                0x00000a7a       0x34 build/FreeRTOS/production/_ext/1665200909/heap_1.o
 .ARM.attributes
                0x00000aae       0x34 build/FreeRTOS/production/_ext/404212886/list.o
 .ARM.attributes
                0x00000ae2       0x34 build/FreeRTOS/production/_ext/404212886/queue.o
 .ARM.attributes
                0x00000b16       0x34 build/FreeRTOS/production/_ext/404212886/FreeRTOS_tasks.o
 .ARM.attributes
                0x00000b4a       0x34 build/FreeRTOS/production/_ext/172253694/crypt_wolfcryptcb.o
 .ARM.attributes
                0x00000b7e       0x34 build/FreeRTOS/production/_ext/1664057780/cryptocb.o
 .ARM.attributes
                0x00000bb2       0x34 build/FreeRTOS/production/_ext/1664057780/md5.o
 .ARM.attributes
                0x00000be6       0x34 build/FreeRTOS/production/_ext/1664057780/random.o
 .ARM.attributes
                0x00000c1a       0x34 build/FreeRTOS/production/_ext/1664057780/sha256.o
 .ARM.attributes
                0x00000c4e       0x34 build/FreeRTOS/production/_ext/1360937237/app.o
 .ARM.attributes
                0x00000c82       0x34 build/FreeRTOS/production/_ext/1360937237/main.o
 .ARM.attributes
                0x00000cb6       0x34 build/FreeRTOS/production/_ext/1428073114/plib_sercom0_spi_master.o
 .ARM.attributes
                0x00000cea       0x34 build/FreeRTOS/production/_ext/1434865757/gfx_mono_framebuffer.o
 .ARM.attributes
                0x00000d1e       0x34 build/FreeRTOS/production/_ext/1434865757/gfx_mono_generic.o
 .ARM.attributes
                0x00000d52       0x34 build/FreeRTOS/production/_ext/1434865757/gfx_mono_text.o
 .ARM.attributes
                0x00000d86       0x34 build/FreeRTOS/production/_ext/1434865757/gfx_mono_ug_2832hsweg04.o
 .ARM.attributes
                0x00000dba       0x34 build/FreeRTOS/production/_ext/1434865757/gfx_ssd1306.o
 .ARM.attributes
                0x00000dee       0x39 build/FreeRTOS/production/_ext/1434865757/gfx_sysfont.o
 .ARM.attributes
                0x00000e27       0x34 c:/program files/microchip/xc32/v3.01/bin/bin/../../lib/gcc/pic32c/8.3.1/../../../../pic32c/lib/thumb/v7e-m+fp/hard\libpic32c.a(data_init.o)
 .ARM.attributes
                0x00000e5b       0x1e c:/program files/microchip/xc32/v3.01/bin/bin/../../lib/gcc/pic32c/8.3.1/thumb/v7e-m+fp/hard\libgcc.a(_arm_addsubdf3.o)
 .ARM.attributes
                0x00000e79       0x1e c:/program files/microchip/xc32/v3.01/bin/bin/../../lib/gcc/pic32c/8.3.1/thumb/v7e-m+fp/hard\libgcc.a(_arm_muldivdf3.o)
 .ARM.attributes
                0x00000e97       0x1e c:/program files/microchip/xc32/v3.01/bin/bin/../../lib/gcc/pic32c/8.3.1/thumb/v7e-m+fp/hard\libgcc.a(_arm_cmpdf2.o)
 .ARM.attributes
                0x00000eb5       0x1e c:/program files/microchip/xc32/v3.01/bin/bin/../../lib/gcc/pic32c/8.3.1/thumb/v7e-m+fp/hard\libgcc.a(_arm_fixunsdfsi.o)
 .ARM.attributes
                0x00000ed3       0x1e c:/program files/microchip/xc32/v3.01/bin/bin/../../lib/gcc/pic32c/8.3.1/thumb/v7e-m+fp/hard\libgcc.a(_aeabi_uldivmod.o)
 .ARM.attributes
                0x00000ef1       0x34 c:/program files/microchip/xc32/v3.01/bin/bin/../../lib/gcc/pic32c/8.3.1/thumb/v7e-m+fp/hard\libgcc.a(_udivmoddi4.o)
 .ARM.attributes
                0x00000f25       0x1e c:/program files/microchip/xc32/v3.01/bin/bin/../../lib/gcc/pic32c/8.3.1/thumb/v7e-m+fp/hard\libgcc.a(_dvmd_tls.o)
 .ARM.attributes
                0x00000f43       0x34 c:/program files/microchip/xc32/v3.01/bin/bin/../../lib/gcc/pic32c/8.3.1/../../../../pic32c/lib/thumb/v7e-m+fp/hard\libc_nano.a(lib_a-assert.o)
 .ARM.attributes
                0x00000f77       0x34 c:/program files/microchip/xc32/v3.01/bin/bin/../../lib/gcc/pic32c/8.3.1/../../../../pic32c/lib/thumb/v7e-m+fp/hard\libc_nano.a(lib_a-atoi.o)
 .ARM.attributes
                0x00000fab       0x34 c:/program files/microchip/xc32/v3.01/bin/bin/../../lib/gcc/pic32c/8.3.1/../../../../pic32c/lib/thumb/v7e-m+fp/hard\libc_nano.a(lib_a-calloc.o)
 .ARM.attributes
                0x00000fdf       0x32 c:/program files/microchip/xc32/v3.01/bin/bin/../../lib/gcc/pic32c/8.3.1/../../../../pic32c/lib/thumb/v7e-m+fp/hard\libc_nano.a(lib_a-ctype_.o)
 .ARM.attributes
                0x00001011       0x34 c:/program files/microchip/xc32/v3.01/bin/bin/../../lib/gcc/pic32c/8.3.1/../../../../pic32c/lib/thumb/v7e-m+fp/hard\libc_nano.a(lib_a-fprintf.o)
 .ARM.attributes
                0x00001045       0x32 c:/program files/microchip/xc32/v3.01/bin/bin/../../lib/gcc/pic32c/8.3.1/../../../../pic32c/lib/thumb/v7e-m+fp/hard\libc_nano.a(lib_a-impure.o)
 .ARM.attributes
                0x00001077       0x34 c:/program files/microchip/xc32/v3.01/bin/bin/../../lib/gcc/pic32c/8.3.1/../../../../pic32c/lib/thumb/v7e-m+fp/hard\libc_nano.a(lib_a-init.o)
 .ARM.attributes
                0x000010ab       0x34 c:/program files/microchip/xc32/v3.01/bin/bin/../../lib/gcc/pic32c/8.3.1/../../../../pic32c/lib/thumb/v7e-m+fp/hard\libc_nano.a(lib_a-malloc.o)
 .ARM.attributes
                0x000010df       0x34 c:/program files/microchip/xc32/v3.01/bin/bin/../../lib/gcc/pic32c/8.3.1/../../../../pic32c/lib/thumb/v7e-m+fp/hard\libc_nano.a(lib_a-memcmp.o)
 .ARM.attributes
                0x00001113       0x34 c:/program files/microchip/xc32/v3.01/bin/bin/../../lib/gcc/pic32c/8.3.1/../../../../pic32c/lib/thumb/v7e-m+fp/hard\libc_nano.a(lib_a-memcpy-stub.o)
 .ARM.attributes
                0x00001147       0x34 c:/program files/microchip/xc32/v3.01/bin/bin/../../lib/gcc/pic32c/8.3.1/../../../../pic32c/lib/thumb/v7e-m+fp/hard\libc_nano.a(lib_a-memmove.o)
 .ARM.attributes
                0x0000117b       0x34 c:/program files/microchip/xc32/v3.01/bin/bin/../../lib/gcc/pic32c/8.3.1/../../../../pic32c/lib/thumb/v7e-m+fp/hard\libc_nano.a(lib_a-memset.o)
 .ARM.attributes
                0x000011af       0x34 c:/program files/microchip/xc32/v3.01/bin/bin/../../lib/gcc/pic32c/8.3.1/../../../../pic32c/lib/thumb/v7e-m+fp/hard\libc_nano.a(lib_a-nano-callocr.o)
 .ARM.attributes
                0x000011e3       0x34 c:/program files/microchip/xc32/v3.01/bin/bin/../../lib/gcc/pic32c/8.3.1/../../../../pic32c/lib/thumb/v7e-m+fp/hard\libc_nano.a(lib_a-nano-freer.o)
 .ARM.attributes
                0x00001217       0x34 c:/program files/microchip/xc32/v3.01/bin/bin/../../lib/gcc/pic32c/8.3.1/../../../../pic32c/lib/thumb/v7e-m+fp/hard\libc_nano.a(lib_a-nano-mallocr.o)
 .ARM.attributes
                0x0000124b       0x34 c:/program files/microchip/xc32/v3.01/bin/bin/../../lib/gcc/pic32c/8.3.1/../../../../pic32c/lib/thumb/v7e-m+fp/hard\libc_nano.a(lib_a-nano-vfprintf.o)
 .ARM.attributes
                0x0000127f       0x34 c:/program files/microchip/xc32/v3.01/bin/bin/../../lib/gcc/pic32c/8.3.1/../../../../pic32c/lib/thumb/v7e-m+fp/hard\libc_nano.a(lib_a-nano-vfprintf_float.o)
 .ARM.attributes
                0x000012b3       0x34 c:/program files/microchip/xc32/v3.01/bin/bin/../../lib/gcc/pic32c/8.3.1/../../../../pic32c/lib/thumb/v7e-m+fp/hard\libc_nano.a(lib_a-nano-vfprintf_i.o)
 .ARM.attributes
                0x000012e7       0x34 c:/program files/microchip/xc32/v3.01/bin/bin/../../lib/gcc/pic32c/8.3.1/../../../../pic32c/lib/thumb/v7e-m+fp/hard\libc_nano.a(lib_a-rand.o)
 .ARM.attributes
                0x0000131b       0x34 c:/program files/microchip/xc32/v3.01/bin/bin/../../lib/gcc/pic32c/8.3.1/../../../../pic32c/lib/thumb/v7e-m+fp/hard\libc_nano.a(lib_a-sbrkr.o)
 .ARM.attributes
                0x0000134f       0x34 c:/program files/microchip/xc32/v3.01/bin/bin/../../lib/gcc/pic32c/8.3.1/../../../../pic32c/lib/thumb/v7e-m+fp/hard\libc_nano.a(lib_a-snprintf.o)
 .ARM.attributes
                0x00001383       0x34 c:/program files/microchip/xc32/v3.01/bin/bin/../../lib/gcc/pic32c/8.3.1/../../../../pic32c/lib/thumb/v7e-m+fp/hard\libc_nano.a(lib_a-sprintf.o)
 .ARM.attributes
                0x000013b7       0x34 c:/program files/microchip/xc32/v3.01/bin/bin/../../lib/gcc/pic32c/8.3.1/../../../../pic32c/lib/thumb/v7e-m+fp/hard\libc_nano.a(lib_a-strchr.o)
 .ARM.attributes
                0x000013eb       0x1c c:/program files/microchip/xc32/v3.01/bin/bin/../../lib/gcc/pic32c/8.3.1/../../../../pic32c/lib/thumb/v7e-m+fp/hard\libc_nano.a(lib_a-strcmp.o)
 .ARM.attributes
                0x00001407       0x34 c:/program files/microchip/xc32/v3.01/bin/bin/../../lib/gcc/pic32c/8.3.1/../../../../pic32c/lib/thumb/v7e-m+fp/hard\libc_nano.a(lib_a-strcpy.o)
 .ARM.attributes
                0x0000143b       0x17 c:/program files/microchip/xc32/v3.01/bin/bin/../../lib/gcc/pic32c/8.3.1/../../../../pic32c/lib/thumb/v7e-m+fp/hard\libc_nano.a(lib_a-strlen.o)
 .ARM.attributes
                0x00001452       0x34 c:/program files/microchip/xc32/v3.01/bin/bin/../../lib/gcc/pic32c/8.3.1/../../../../pic32c/lib/thumb/v7e-m+fp/hard\libc_nano.a(lib_a-strncmp.o)
 .ARM.attributes
                0x00001486       0x34 c:/program files/microchip/xc32/v3.01/bin/bin/../../lib/gcc/pic32c/8.3.1/../../../../pic32c/lib/thumb/v7e-m+fp/hard\libc_nano.a(lib_a-strncpy.o)
 .ARM.attributes
                0x000014ba       0x34 c:/program files/microchip/xc32/v3.01/bin/bin/../../lib/gcc/pic32c/8.3.1/../../../../pic32c/lib/thumb/v7e-m+fp/hard\libc_nano.a(lib_a-strtok.o)
 .ARM.attributes
                0x000014ee       0x34 c:/program files/microchip/xc32/v3.01/bin/bin/../../lib/gcc/pic32c/8.3.1/../../../../pic32c/lib/thumb/v7e-m+fp/hard\libc_nano.a(lib_a-strtok_r.o)
 .ARM.attributes
                0x00001522       0x34 c:/program files/microchip/xc32/v3.01/bin/bin/../../lib/gcc/pic32c/8.3.1/../../../../pic32c/lib/thumb/v7e-m+fp/hard\libc_nano.a(lib_a-strtol.o)
 .ARM.attributes
                0x00001556       0x34 c:/program files/microchip/xc32/v3.01/bin/bin/../../lib/gcc/pic32c/8.3.1/../../../../pic32c/lib/thumb/v7e-m+fp/hard\libc_nano.a(lib_a-vsnprintf.o)
 .ARM.attributes
                0x0000158a       0x34 c:/program files/microchip/xc32/v3.01/bin/bin/../../lib/gcc/pic32c/8.3.1/../../../../pic32c/lib/thumb/v7e-m+fp/hard\libc_nano.a(lib_a-wsetup.o)
 .ARM.attributes
                0x000015be       0x34 c:/program files/microchip/xc32/v3.01/bin/bin/../../lib/gcc/pic32c/8.3.1/../../../../pic32c/lib/thumb/v7e-m+fp/hard\libc_nano.a(lib_a-__ssfputs.o)
 .ARM.attributes
                0x000015f2       0x34 c:/program files/microchip/xc32/v3.01/bin/bin/../../lib/gcc/pic32c/8.3.1/../../../../pic32c/lib/thumb/v7e-m+fp/hard\libc_nano.a(lib_a-abort.o)
 .ARM.attributes
                0x00001626       0x34 c:/program files/microchip/xc32/v3.01/bin/bin/../../lib/gcc/pic32c/8.3.1/../../../../pic32c/lib/thumb/v7e-m+fp/hard\libc_nano.a(lib_a-dtoa.o)
 .ARM.attributes
                0x0000165a       0x34 c:/program files/microchip/xc32/v3.01/bin/bin/../../lib/gcc/pic32c/8.3.1/../../../../pic32c/lib/thumb/v7e-m+fp/hard\libc_nano.a(lib_a-findfp.o)
 .ARM.attributes
                0x0000168e       0x34 c:/program files/microchip/xc32/v3.01/bin/bin/../../lib/gcc/pic32c/8.3.1/../../../../pic32c/lib/thumb/v7e-m+fp/hard\libc_nano.a(lib_a-fputwc.o)
 .ARM.attributes
                0x000016c2       0x34 c:/program files/microchip/xc32/v3.01/bin/bin/../../lib/gcc/pic32c/8.3.1/../../../../pic32c/lib/thumb/v7e-m+fp/hard\libc_nano.a(lib_a-fwalk.o)
 .ARM.attributes
                0x000016f6       0x34 c:/program files/microchip/xc32/v3.01/bin/bin/../../lib/gcc/pic32c/8.3.1/../../../../pic32c/lib/thumb/v7e-m+fp/hard\libc_nano.a(lib_a-locale.o)
 .ARM.attributes
                0x0000172a       0x34 c:/program files/microchip/xc32/v3.01/bin/bin/../../lib/gcc/pic32c/8.3.1/../../../../pic32c/lib/thumb/v7e-m+fp/hard\libc_nano.a(lib_a-localeconv.o)
 .ARM.attributes
                0x0000175e       0x34 c:/program files/microchip/xc32/v3.01/bin/bin/../../lib/gcc/pic32c/8.3.1/../../../../pic32c/lib/thumb/v7e-m+fp/hard\libc_nano.a(lib_a-makebuf.o)
 .ARM.attributes
                0x00001792       0x34 c:/program files/microchip/xc32/v3.01/bin/bin/../../lib/gcc/pic32c/8.3.1/../../../../pic32c/lib/thumb/v7e-m+fp/hard\libc_nano.a(lib_a-mbtowc_r.o)
 .ARM.attributes
                0x000017c6       0x1c c:/program files/microchip/xc32/v3.01/bin/bin/../../lib/gcc/pic32c/8.3.1/../../../../pic32c/lib/thumb/v7e-m+fp/hard\libc_nano.a(lib_a-memchr.o)
 .ARM.attributes
                0x000017e2       0x34 c:/program files/microchip/xc32/v3.01/bin/bin/../../lib/gcc/pic32c/8.3.1/../../../../pic32c/lib/thumb/v7e-m+fp/hard\libc_nano.a(lib_a-mlock.o)
 .ARM.attributes
                0x00001816       0x34 c:/program files/microchip/xc32/v3.01/bin/bin/../../lib/gcc/pic32c/8.3.1/../../../../pic32c/lib/thumb/v7e-m+fp/hard\libc_nano.a(lib_a-mprec.o)
 .ARM.attributes
                0x0000184a       0x34 c:/program files/microchip/xc32/v3.01/bin/bin/../../lib/gcc/pic32c/8.3.1/../../../../pic32c/lib/thumb/v7e-m+fp/hard\libc_nano.a(lib_a-nano-svfprintf.o)
 .ARM.attributes
                0x0000187e       0x34 c:/program files/microchip/xc32/v3.01/bin/bin/../../lib/gcc/pic32c/8.3.1/../../../../pic32c/lib/thumb/v7e-m+fp/hard\libc_nano.a(lib_a-reent.o)
 .ARM.attributes
                0x000018b2       0x34 c:/program files/microchip/xc32/v3.01/bin/bin/../../lib/gcc/pic32c/8.3.1/../../../../pic32c/lib/thumb/v7e-m+fp/hard\libc_nano.a(lib_a-signal.o)
 .ARM.attributes
                0x000018e6       0x34 c:/program files/microchip/xc32/v3.01/bin/bin/../../lib/gcc/pic32c/8.3.1/../../../../pic32c/lib/thumb/v7e-m+fp/hard\libc_nano.a(lib_a-signalr.o)
 .ARM.attributes
                0x0000191a       0x34 c:/program files/microchip/xc32/v3.01/bin/bin/../../lib/gcc/pic32c/8.3.1/../../../../pic32c/lib/thumb/v7e-m+fp/hard\libc_nano.a(lib_a-stdio.o)
 .ARM.attributes
                0x0000194e       0x34 c:/program files/microchip/xc32/v3.01/bin/bin/../../lib/gcc/pic32c/8.3.1/../../../../pic32c/lib/thumb/v7e-m+fp/hard\libc_nano.a(lib_a-wbuf.o)
 .ARM.attributes
                0x00001982       0x34 c:/program files/microchip/xc32/v3.01/bin/bin/../../lib/gcc/pic32c/8.3.1/../../../../pic32c/lib/thumb/v7e-m+fp/hard\libc_nano.a(lib_a-wcrtomb.o)
 .ARM.attributes
                0x000019b6       0x34 c:/program files/microchip/xc32/v3.01/bin/bin/../../lib/gcc/pic32c/8.3.1/../../../../pic32c/lib/thumb/v7e-m+fp/hard\libc_nano.a(lib_a-wctomb_r.o)
 .ARM.attributes
                0x000019ea       0x34 c:/program files/microchip/xc32/v3.01/bin/bin/../../lib/gcc/pic32c/8.3.1/../../../../pic32c/lib/thumb/v7e-m+fp/hard\libc_nano.a(lib_a-writer.o)
 .ARM.attributes
                0x00001a1e       0x34 c:/program files/microchip/xc32/v3.01/bin/bin/../../lib/gcc/pic32c/8.3.1/../../../../pic32c/lib/thumb/v7e-m+fp/hard\libc_nano.a(lib_a-__ssputs.o)
 .ARM.attributes
                0x00001a52       0x34 c:/program files/microchip/xc32/v3.01/bin/bin/../../lib/gcc/pic32c/8.3.1/../../../../pic32c/lib/thumb/v7e-m+fp/hard\libc_nano.a(lib_a-closer.o)
 .ARM.attributes
                0x00001a86       0x34 c:/program files/microchip/xc32/v3.01/bin/bin/../../lib/gcc/pic32c/8.3.1/../../../../pic32c/lib/thumb/v7e-m+fp/hard\libc_nano.a(lib_a-fflush.o)
 .ARM.attributes
                0x00001aba       0x34 c:/program files/microchip/xc32/v3.01/bin/bin/../../lib/gcc/pic32c/8.3.1/../../../../pic32c/lib/thumb/v7e-m+fp/hard\libc_nano.a(lib_a-fstatr.o)
 .ARM.attributes
                0x00001aee       0x34 c:/program files/microchip/xc32/v3.01/bin/bin/../../lib/gcc/pic32c/8.3.1/../../../../pic32c/lib/thumb/v7e-m+fp/hard\libc_nano.a(lib_a-isattyr.o)
 .ARM.attributes
                0x00001b22       0x34 c:/program files/microchip/xc32/v3.01/bin/bin/../../lib/gcc/pic32c/8.3.1/../../../../pic32c/lib/thumb/v7e-m+fp/hard\libc_nano.a(lib_a-lseekr.o)
 .ARM.attributes
                0x00001b56       0x34 c:/program files/microchip/xc32/v3.01/bin/bin/../../lib/gcc/pic32c/8.3.1/../../../../pic32c/lib/thumb/v7e-m+fp/hard\libc_nano.a(lib_a-nano-reallocr.o)
 .ARM.attributes
                0x00001b8a       0x34 c:/program files/microchip/xc32/v3.01/bin/bin/../../lib/gcc/pic32c/8.3.1/../../../../pic32c/lib/thumb/v7e-m+fp/hard\libc_nano.a(lib_a-readr.o)
 .ARM.attributes
                0x00001bbe       0x34 c:/program files/microchip/xc32/v3.01/bin/bin/../../lib/gcc/pic32c/8.3.1/../../../../pic32c/lib/thumb/v7e-m+fp/hard\libc_nano.a(lib_a-nano-msizer.o)
 .ARM.attributes
                0x00001bf2       0x34 c:/program files/microchip/xc32/v3.01/bin/bin/../../lib/gcc/pic32c/8.3.1/../../../../pic32c/lib/thumb/v7e-m+fp/hard\libpic32c.a(_close.o)
 .ARM.attributes
                0x00001c26       0x34 c:/program files/microchip/xc32/v3.01/bin/bin/../../lib/gcc/pic32c/8.3.1/../../../../pic32c/lib/thumb/v7e-m+fp/hard\libpic32c.a(_fstat.o)
 .ARM.attributes
                0x00001c5a       0x34 c:/program files/microchip/xc32/v3.01/bin/bin/../../lib/gcc/pic32c/8.3.1/../../../../pic32c/lib/thumb/v7e-m+fp/hard\libpic32c.a(_getpid.o)
 .ARM.attributes
                0x00001c8e       0x34 c:/program files/microchip/xc32/v3.01/bin/bin/../../lib/gcc/pic32c/8.3.1/../../../../pic32c/lib/thumb/v7e-m+fp/hard\libpic32c.a(_isatty.o)
 .ARM.attributes
                0x00001cc2       0x34 c:/program files/microchip/xc32/v3.01/bin/bin/../../lib/gcc/pic32c/8.3.1/../../../../pic32c/lib/thumb/v7e-m+fp/hard\libpic32c.a(_kill.o)
 .ARM.attributes
                0x00001cf6       0x34 c:/program files/microchip/xc32/v3.01/bin/bin/../../lib/gcc/pic32c/8.3.1/../../../../pic32c/lib/thumb/v7e-m+fp/hard\libpic32c.a(_lseek.o)
 .ARM.attributes
                0x00001d2a       0x34 c:/program files/microchip/xc32/v3.01/bin/bin/../../lib/gcc/pic32c/8.3.1/../../../../pic32c/lib/thumb/v7e-m+fp/hard\libpic32c.a(_read.o)
 .ARM.attributes
                0x00001d5e       0x34 c:/program files/microchip/xc32/v3.01/bin/bin/../../lib/gcc/pic32c/8.3.1/../../../../pic32c/lib/thumb/v7e-m+fp/hard\libpic32c.a(sbrk.o)
 .ARM.attributes
                0x00001d92       0x34 c:/program files/microchip/xc32/v3.01/bin/bin/../../lib/gcc/pic32c/8.3.1/../../../../pic32c/lib/thumb/v7e-m+fp/hard\libpic32c.a(_write.o)
 .ARM.attributes
                0x00001dc6       0x34 c:/program files/microchip/xc32/v3.01/bin/bin/../../lib/gcc/pic32c/8.3.1/../../../../pic32c/lib/thumb/v7e-m+fp/hard\libpic32c.a(close.o)
 .ARM.attributes
                0x00001dfa       0x34 c:/program files/microchip/xc32/v3.01/bin/bin/../../lib/gcc/pic32c/8.3.1/../../../../pic32c/lib/thumb/v7e-m+fp/hard\libpic32c.a(fstat.o)
 .ARM.attributes
                0x00001e2e       0x34 c:/program files/microchip/xc32/v3.01/bin/bin/../../lib/gcc/pic32c/8.3.1/../../../../pic32c/lib/thumb/v7e-m+fp/hard\libpic32c.a(getpid.o)
 .ARM.attributes
                0x00001e62       0x34 c:/program files/microchip/xc32/v3.01/bin/bin/../../lib/gcc/pic32c/8.3.1/../../../../pic32c/lib/thumb/v7e-m+fp/hard\libpic32c.a(isatty.o)
 .ARM.attributes
                0x00001e96       0x34 c:/program files/microchip/xc32/v3.01/bin/bin/../../lib/gcc/pic32c/8.3.1/../../../../pic32c/lib/thumb/v7e-m+fp/hard\libpic32c.a(kill.o)
 .ARM.attributes
                0x00001eca       0x34 c:/program files/microchip/xc32/v3.01/bin/bin/../../lib/gcc/pic32c/8.3.1/../../../../pic32c/lib/thumb/v7e-m+fp/hard\libpic32c.a(lseek.o)
 .ARM.attributes
                0x00001efe       0x34 c:/program files/microchip/xc32/v3.01/bin/bin/../../lib/gcc/pic32c/8.3.1/../../../../pic32c/lib/thumb/v7e-m+fp/hard\libpic32c.a(read.o)
 .ARM.attributes
                0x00001f32       0x34 c:/program files/microchip/xc32/v3.01/bin/bin/../../lib/gcc/pic32c/8.3.1/../../../../pic32c/lib/thumb/v7e-m+fp/hard\libpic32c.a(write.o)
 .ARM.attributes
                0x00001f66       0x1e c:/program files/microchip/xc32/v3.01/bin/bin/../../lib/gcc/pic32c/8.3.1/thumb/v7e-m+fp/hard\libgcc.a(_arm_unorddf2.o)
 .ARM.attributes
                0x00001f84       0x1e c:/program files/microchip/xc32/v3.01/bin/bin/../../lib/gcc/pic32c/8.3.1/thumb/v7e-m+fp/hard\libgcc.a(_arm_fixdfsi.o)
 .ARM.attributes
                0x00001fa2       0x1e c:/program files/microchip/xc32/v3.01/bin/bin/../../lib/gcc/pic32c/8.3.1/thumb/v7e-m+fp/hard/crtn.o

.comment        0x00000000       0x53
 .comment       0x00000000       0x53 c:/program files/microchip/xc32/v3.01/bin/bin/../../lib/gcc/pic32c/8.3.1/thumb/v7e-m+fp/hard/crtbegin.o
                                 0x54 (size before relaxing)
 .comment       0x00000053       0x54 build/FreeRTOS/production/_ext/1609394304/crypto.o
 .comment       0x00000053       0x54 build/FreeRTOS/production/_ext/1231519722/drv_ethphy.o
 .comment       0x00000053       0x54 build/FreeRTOS/production/_ext/1231519722/drv_extphy_lan867x.o
 .comment       0x00000053       0x54 build/FreeRTOS/production/_ext/41526634/drv_gmac.o
 .comment       0x00000053       0x54 build/FreeRTOS/production/_ext/41526634/drv_gmac_lib_samE5x.o
 .comment       0x00000053       0x54 build/FreeRTOS/production/_ext/1149484450/drv_miim.o
 .comment       0x00000053       0x54 build/FreeRTOS/production/_ext/540595297/helpers.o
 .comment       0x00000053       0x54 build/FreeRTOS/production/_ext/540595297/icmp.o
 .comment       0x00000053       0x54 build/FreeRTOS/production/_ext/540595297/tcp.o
 .comment       0x00000053       0x54 build/FreeRTOS/production/_ext/540595297/arp.o
 .comment       0x00000053       0x54 build/FreeRTOS/production/_ext/540595297/tcpip_commands.o
 .comment       0x00000053       0x54 build/FreeRTOS/production/_ext/540595297/iperf.o
 .comment       0x00000053       0x54 build/FreeRTOS/production/_ext/540595297/ipv4.o
 .comment       0x00000053       0x54 build/FreeRTOS/production/_ext/540595297/tcpip_heap_alloc.o
 .comment       0x00000053       0x54 build/FreeRTOS/production/_ext/540595297/tcpip_heap_internal.o
 .comment       0x00000053       0x54 build/FreeRTOS/production/_ext/540595297/dhcp.o
 .comment       0x00000053       0x54 build/FreeRTOS/production/_ext/540595297/dns.o
 .comment       0x00000053       0x54 build/FreeRTOS/production/_ext/540595297/hash_fnv.o
 .comment       0x00000053       0x54 build/FreeRTOS/production/_ext/540595297/oahash.o
 .comment       0x00000053       0x54 build/FreeRTOS/production/_ext/540595297/tcpip_helpers.o
 .comment       0x00000053       0x54 build/FreeRTOS/production/_ext/540595297/tcpip_manager.o
 .comment       0x00000053       0x54 build/FreeRTOS/production/_ext/540595297/tcpip_notify.o
 .comment       0x00000053       0x54 build/FreeRTOS/production/_ext/540595297/tcpip_packet.o
 .comment       0x00000053       0x54 build/FreeRTOS/production/_ext/540595297/udp.o
 .comment       0x00000053       0x54 build/FreeRTOS/production/_ext/891571577/osal_freertos.o
 .comment       0x00000053       0x54 build/FreeRTOS/production/_ext/892004133/plib_clock.o
 .comment       0x00000053       0x54 build/FreeRTOS/production/_ext/894153619/plib_evsys.o
 .comment       0x00000053       0x54 build/FreeRTOS/production/_ext/1494909205/plib_nvic.o
 .comment       0x00000053       0x54 build/FreeRTOS/production/_ext/320424729/plib_nvmctrl.o
 .comment       0x00000053       0x54 build/FreeRTOS/production/_ext/1494856054/plib_port.o
 .comment       0x00000053       0x54 build/FreeRTOS/production/_ext/2092608928/plib_sercom1_usart.o
 .comment       0x00000053       0x54 build/FreeRTOS/production/_ext/579449528/plib_tc0.o
 .comment       0x00000053       0x54 build/FreeRTOS/production/_ext/1872641887/xc32_monitor.o
 .comment       0x00000053       0x54 build/FreeRTOS/production/_ext/1005353002/sys_command.o
 .comment       0x00000053       0x54 build/FreeRTOS/production/_ext/548640822/sys_console_uart.o
 .comment       0x00000053       0x54 build/FreeRTOS/production/_ext/548640822/sys_console.o
 .comment       0x00000053       0x54 build/FreeRTOS/production/_ext/147610190/sys_debug.o
 .comment       0x00000053       0x54 build/FreeRTOS/production/_ext/1690414130/sys_int.o
 .comment       0x00000053       0x54 build/FreeRTOS/production/_ext/1093154855/sys_reset.o
 .comment       0x00000053       0x54 build/FreeRTOS/production/_ext/832704728/sys_time.o
 .comment       0x00000053       0x54 build/FreeRTOS/production/_ext/2072568807/sys_time_h2_adapter.o
 .comment       0x00000053       0x54 build/FreeRTOS/production/_ext/2072568807/sys_random_h2_adapter.o
 .comment       0x00000053       0x54 build/FreeRTOS/production/_ext/161576091/tasks.o
 .comment       0x00000053       0x54 build/FreeRTOS/production/_ext/161576091/initialization.o
 .comment       0x00000053       0x54 build/FreeRTOS/production/_ext/161576091/interrupts.o
 .comment       0x00000053       0x54 build/FreeRTOS/production/_ext/161576091/exceptions.o
 .comment       0x00000053       0x54 build/FreeRTOS/production/_ext/161576091/startup_xc32.o
 .comment       0x00000053       0x54 build/FreeRTOS/production/_ext/161576091/libc_syscalls.o
 .comment       0x00000053       0x54 build/FreeRTOS/production/_ext/161576091/freertos_hooks.o
 .comment       0x00000053       0x54 build/FreeRTOS/production/_ext/246609638/port.o
 .comment       0x00000053       0x54 build/FreeRTOS/production/_ext/1665200909/heap_1.o
 .comment       0x00000053       0x54 build/FreeRTOS/production/_ext/404212886/list.o
 .comment       0x00000053       0x54 build/FreeRTOS/production/_ext/404212886/queue.o
 .comment       0x00000053       0x54 build/FreeRTOS/production/_ext/404212886/FreeRTOS_tasks.o
 .comment       0x00000053       0x54 build/FreeRTOS/production/_ext/172253694/crypt_wolfcryptcb.o
 .comment       0x00000053       0x54 build/FreeRTOS/production/_ext/1664057780/cryptocb.o
 .comment       0x00000053       0x54 build/FreeRTOS/production/_ext/1664057780/md5.o
 .comment       0x00000053       0x54 build/FreeRTOS/production/_ext/1664057780/random.o
 .comment       0x00000053       0x54 build/FreeRTOS/production/_ext/1664057780/sha256.o
 .comment       0x00000053       0x54 build/FreeRTOS/production/_ext/1360937237/app.o
 .comment       0x00000053       0x54 build/FreeRTOS/production/_ext/1360937237/main.o
 .comment       0x00000053       0x54 build/FreeRTOS/production/_ext/1428073114/plib_sercom0_spi_master.o
 .comment       0x00000053       0x54 build/FreeRTOS/production/_ext/1434865757/gfx_mono_framebuffer.o
 .comment       0x00000053       0x54 build/FreeRTOS/production/_ext/1434865757/gfx_mono_generic.o
 .comment       0x00000053       0x54 build/FreeRTOS/production/_ext/1434865757/gfx_mono_text.o
 .comment       0x00000053       0x54 build/FreeRTOS/production/_ext/1434865757/gfx_mono_ug_2832hsweg04.o
 .comment       0x00000053       0x54 build/FreeRTOS/production/_ext/1434865757/gfx_ssd1306.o
 .comment       0x00000053       0x54 build/FreeRTOS/production/_ext/1434865757/gfx_sysfont.o
 .comment       0x00000053       0x54 c:/program files/microchip/xc32/v3.01/bin/bin/../../lib/gcc/pic32c/8.3.1/../../../../pic32c/lib/thumb/v7e-m+fp/hard\libpic32c.a(data_init.o)
 .comment       0x00000053       0x54 c:/program files/microchip/xc32/v3.01/bin/bin/../../lib/gcc/pic32c/8.3.1/thumb/v7e-m+fp/hard\libgcc.a(_udivmoddi4.o)
 .comment       0x00000053       0x54 c:/program files/microchip/xc32/v3.01/bin/bin/../../lib/gcc/pic32c/8.3.1/../../../../pic32c/lib/thumb/v7e-m+fp/hard\libc_nano.a(lib_a-assert.o)
 .comment       0x00000053       0x54 c:/program files/microchip/xc32/v3.01/bin/bin/../../lib/gcc/pic32c/8.3.1/../../../../pic32c/lib/thumb/v7e-m+fp/hard\libc_nano.a(lib_a-atoi.o)
 .comment       0x00000053       0x54 c:/program files/microchip/xc32/v3.01/bin/bin/../../lib/gcc/pic32c/8.3.1/../../../../pic32c/lib/thumb/v7e-m+fp/hard\libc_nano.a(lib_a-calloc.o)
 .comment       0x00000053       0x54 c:/program files/microchip/xc32/v3.01/bin/bin/../../lib/gcc/pic32c/8.3.1/../../../../pic32c/lib/thumb/v7e-m+fp/hard\libc_nano.a(lib_a-ctype_.o)
 .comment       0x00000053       0x54 c:/program files/microchip/xc32/v3.01/bin/bin/../../lib/gcc/pic32c/8.3.1/../../../../pic32c/lib/thumb/v7e-m+fp/hard\libc_nano.a(lib_a-fprintf.o)
 .comment       0x00000053       0x54 c:/program files/microchip/xc32/v3.01/bin/bin/../../lib/gcc/pic32c/8.3.1/../../../../pic32c/lib/thumb/v7e-m+fp/hard\libc_nano.a(lib_a-impure.o)
 .comment       0x00000053       0x54 c:/program files/microchip/xc32/v3.01/bin/bin/../../lib/gcc/pic32c/8.3.1/../../../../pic32c/lib/thumb/v7e-m+fp/hard\libc_nano.a(lib_a-init.o)
 .comment       0x00000053       0x54 c:/program files/microchip/xc32/v3.01/bin/bin/../../lib/gcc/pic32c/8.3.1/../../../../pic32c/lib/thumb/v7e-m+fp/hard\libc_nano.a(lib_a-malloc.o)
 .comment       0x00000053       0x54 c:/program files/microchip/xc32/v3.01/bin/bin/../../lib/gcc/pic32c/8.3.1/../../../../pic32c/lib/thumb/v7e-m+fp/hard\libc_nano.a(lib_a-memcmp.o)
 .comment       0x00000053       0x54 c:/program files/microchip/xc32/v3.01/bin/bin/../../lib/gcc/pic32c/8.3.1/../../../../pic32c/lib/thumb/v7e-m+fp/hard\libc_nano.a(lib_a-memcpy-stub.o)
 .comment       0x00000053       0x54 c:/program files/microchip/xc32/v3.01/bin/bin/../../lib/gcc/pic32c/8.3.1/../../../../pic32c/lib/thumb/v7e-m+fp/hard\libc_nano.a(lib_a-memmove.o)
 .comment       0x00000053       0x54 c:/program files/microchip/xc32/v3.01/bin/bin/../../lib/gcc/pic32c/8.3.1/../../../../pic32c/lib/thumb/v7e-m+fp/hard\libc_nano.a(lib_a-memset.o)
 .comment       0x00000053       0x54 c:/program files/microchip/xc32/v3.01/bin/bin/../../lib/gcc/pic32c/8.3.1/../../../../pic32c/lib/thumb/v7e-m+fp/hard\libc_nano.a(lib_a-nano-callocr.o)
 .comment       0x00000053       0x54 c:/program files/microchip/xc32/v3.01/bin/bin/../../lib/gcc/pic32c/8.3.1/../../../../pic32c/lib/thumb/v7e-m+fp/hard\libc_nano.a(lib_a-nano-freer.o)
 .comment       0x00000053       0x54 c:/program files/microchip/xc32/v3.01/bin/bin/../../lib/gcc/pic32c/8.3.1/../../../../pic32c/lib/thumb/v7e-m+fp/hard\libc_nano.a(lib_a-nano-mallocr.o)
 .comment       0x00000053       0x54 c:/program files/microchip/xc32/v3.01/bin/bin/../../lib/gcc/pic32c/8.3.1/../../../../pic32c/lib/thumb/v7e-m+fp/hard\libc_nano.a(lib_a-nano-vfprintf.o)
 .comment       0x00000053       0x54 c:/program files/microchip/xc32/v3.01/bin/bin/../../lib/gcc/pic32c/8.3.1/../../../../pic32c/lib/thumb/v7e-m+fp/hard\libc_nano.a(lib_a-nano-vfprintf_float.o)
 .comment       0x00000053       0x54 c:/program files/microchip/xc32/v3.01/bin/bin/../../lib/gcc/pic32c/8.3.1/../../../../pic32c/lib/thumb/v7e-m+fp/hard\libc_nano.a(lib_a-nano-vfprintf_i.o)
 .comment       0x00000053       0x54 c:/program files/microchip/xc32/v3.01/bin/bin/../../lib/gcc/pic32c/8.3.1/../../../../pic32c/lib/thumb/v7e-m+fp/hard\libc_nano.a(lib_a-rand.o)
 .comment       0x00000053       0x54 c:/program files/microchip/xc32/v3.01/bin/bin/../../lib/gcc/pic32c/8.3.1/../../../../pic32c/lib/thumb/v7e-m+fp/hard\libc_nano.a(lib_a-sbrkr.o)
 .comment       0x00000053       0x54 c:/program files/microchip/xc32/v3.01/bin/bin/../../lib/gcc/pic32c/8.3.1/../../../../pic32c/lib/thumb/v7e-m+fp/hard\libc_nano.a(lib_a-snprintf.o)
 .comment       0x00000053       0x54 c:/program files/microchip/xc32/v3.01/bin/bin/../../lib/gcc/pic32c/8.3.1/../../../../pic32c/lib/thumb/v7e-m+fp/hard\libc_nano.a(lib_a-sprintf.o)
 .comment       0x00000053       0x54 c:/program files/microchip/xc32/v3.01/bin/bin/../../lib/gcc/pic32c/8.3.1/../../../../pic32c/lib/thumb/v7e-m+fp/hard\libc_nano.a(lib_a-strchr.o)
 .comment       0x00000053       0x54 c:/program files/microchip/xc32/v3.01/bin/bin/../../lib/gcc/pic32c/8.3.1/../../../../pic32c/lib/thumb/v7e-m+fp/hard\libc_nano.a(lib_a-strcpy.o)
 .comment       0x00000053       0x54 c:/program files/microchip/xc32/v3.01/bin/bin/../../lib/gcc/pic32c/8.3.1/../../../../pic32c/lib/thumb/v7e-m+fp/hard\libc_nano.a(lib_a-strncmp.o)
 .comment       0x00000053       0x54 c:/program files/microchip/xc32/v3.01/bin/bin/../../lib/gcc/pic32c/8.3.1/../../../../pic32c/lib/thumb/v7e-m+fp/hard\libc_nano.a(lib_a-strncpy.o)
 .comment       0x00000053       0x54 c:/program files/microchip/xc32/v3.01/bin/bin/../../lib/gcc/pic32c/8.3.1/../../../../pic32c/lib/thumb/v7e-m+fp/hard\libc_nano.a(lib_a-strtok.o)
 .comment       0x00000053       0x54 c:/program files/microchip/xc32/v3.01/bin/bin/../../lib/gcc/pic32c/8.3.1/../../../../pic32c/lib/thumb/v7e-m+fp/hard\libc_nano.a(lib_a-strtok_r.o)
 .comment       0x00000053       0x54 c:/program files/microchip/xc32/v3.01/bin/bin/../../lib/gcc/pic32c/8.3.1/../../../../pic32c/lib/thumb/v7e-m+fp/hard\libc_nano.a(lib_a-strtol.o)
 .comment       0x00000053       0x54 c:/program files/microchip/xc32/v3.01/bin/bin/../../lib/gcc/pic32c/8.3.1/../../../../pic32c/lib/thumb/v7e-m+fp/hard\libc_nano.a(lib_a-vsnprintf.o)
 .comment       0x00000053       0x54 c:/program files/microchip/xc32/v3.01/bin/bin/../../lib/gcc/pic32c/8.3.1/../../../../pic32c/lib/thumb/v7e-m+fp/hard\libc_nano.a(lib_a-wsetup.o)
 .comment       0x00000053       0x54 c:/program files/microchip/xc32/v3.01/bin/bin/../../lib/gcc/pic32c/8.3.1/../../../../pic32c/lib/thumb/v7e-m+fp/hard\libc_nano.a(lib_a-__ssfputs.o)
 .comment       0x00000053       0x54 c:/program files/microchip/xc32/v3.01/bin/bin/../../lib/gcc/pic32c/8.3.1/../../../../pic32c/lib/thumb/v7e-m+fp/hard\libc_nano.a(lib_a-abort.o)
 .comment       0x00000053       0x54 c:/program files/microchip/xc32/v3.01/bin/bin/../../lib/gcc/pic32c/8.3.1/../../../../pic32c/lib/thumb/v7e-m+fp/hard\libc_nano.a(lib_a-dtoa.o)
 .comment       0x00000053       0x54 c:/program files/microchip/xc32/v3.01/bin/bin/../../lib/gcc/pic32c/8.3.1/../../../../pic32c/lib/thumb/v7e-m+fp/hard\libc_nano.a(lib_a-findfp.o)
 .comment       0x00000053       0x54 c:/program files/microchip/xc32/v3.01/bin/bin/../../lib/gcc/pic32c/8.3.1/../../../../pic32c/lib/thumb/v7e-m+fp/hard\libc_nano.a(lib_a-fputwc.o)
 .comment       0x00000053       0x54 c:/program files/microchip/xc32/v3.01/bin/bin/../../lib/gcc/pic32c/8.3.1/../../../../pic32c/lib/thumb/v7e-m+fp/hard\libc_nano.a(lib_a-fwalk.o)
 .comment       0x00000053       0x54 c:/program files/microchip/xc32/v3.01/bin/bin/../../lib/gcc/pic32c/8.3.1/../../../../pic32c/lib/thumb/v7e-m+fp/hard\libc_nano.a(lib_a-locale.o)
 .comment       0x00000053       0x54 c:/program files/microchip/xc32/v3.01/bin/bin/../../lib/gcc/pic32c/8.3.1/../../../../pic32c/lib/thumb/v7e-m+fp/hard\libc_nano.a(lib_a-localeconv.o)
 .comment       0x00000053       0x54 c:/program files/microchip/xc32/v3.01/bin/bin/../../lib/gcc/pic32c/8.3.1/../../../../pic32c/lib/thumb/v7e-m+fp/hard\libc_nano.a(lib_a-makebuf.o)
 .comment       0x00000053       0x54 c:/program files/microchip/xc32/v3.01/bin/bin/../../lib/gcc/pic32c/8.3.1/../../../../pic32c/lib/thumb/v7e-m+fp/hard\libc_nano.a(lib_a-mbtowc_r.o)
 .comment       0x00000053       0x54 c:/program files/microchip/xc32/v3.01/bin/bin/../../lib/gcc/pic32c/8.3.1/../../../../pic32c/lib/thumb/v7e-m+fp/hard\libc_nano.a(lib_a-mlock.o)
 .comment       0x00000053       0x54 c:/program files/microchip/xc32/v3.01/bin/bin/../../lib/gcc/pic32c/8.3.1/../../../../pic32c/lib/thumb/v7e-m+fp/hard\libc_nano.a(lib_a-mprec.o)
 .comment       0x00000053       0x54 c:/program files/microchip/xc32/v3.01/bin/bin/../../lib/gcc/pic32c/8.3.1/../../../../pic32c/lib/thumb/v7e-m+fp/hard\libc_nano.a(lib_a-nano-svfprintf.o)
 .comment       0x00000053       0x54 c:/program files/microchip/xc32/v3.01/bin/bin/../../lib/gcc/pic32c/8.3.1/../../../../pic32c/lib/thumb/v7e-m+fp/hard\libc_nano.a(lib_a-reent.o)
 .comment       0x00000053       0x54 c:/program files/microchip/xc32/v3.01/bin/bin/../../lib/gcc/pic32c/8.3.1/../../../../pic32c/lib/thumb/v7e-m+fp/hard\libc_nano.a(lib_a-signal.o)
 .comment       0x00000053       0x54 c:/program files/microchip/xc32/v3.01/bin/bin/../../lib/gcc/pic32c/8.3.1/../../../../pic32c/lib/thumb/v7e-m+fp/hard\libc_nano.a(lib_a-signalr.o)
 .comment       0x00000053       0x54 c:/program files/microchip/xc32/v3.01/bin/bin/../../lib/gcc/pic32c/8.3.1/../../../../pic32c/lib/thumb/v7e-m+fp/hard\libc_nano.a(lib_a-stdio.o)
 .comment       0x00000053       0x54 c:/program files/microchip/xc32/v3.01/bin/bin/../../lib/gcc/pic32c/8.3.1/../../../../pic32c/lib/thumb/v7e-m+fp/hard\libc_nano.a(lib_a-wbuf.o)
 .comment       0x00000053       0x54 c:/program files/microchip/xc32/v3.01/bin/bin/../../lib/gcc/pic32c/8.3.1/../../../../pic32c/lib/thumb/v7e-m+fp/hard\libc_nano.a(lib_a-wcrtomb.o)
 .comment       0x00000053       0x54 c:/program files/microchip/xc32/v3.01/bin/bin/../../lib/gcc/pic32c/8.3.1/../../../../pic32c/lib/thumb/v7e-m+fp/hard\libc_nano.a(lib_a-wctomb_r.o)
 .comment       0x00000053       0x54 c:/program files/microchip/xc32/v3.01/bin/bin/../../lib/gcc/pic32c/8.3.1/../../../../pic32c/lib/thumb/v7e-m+fp/hard\libc_nano.a(lib_a-writer.o)
 .comment       0x00000053       0x54 c:/program files/microchip/xc32/v3.01/bin/bin/../../lib/gcc/pic32c/8.3.1/../../../../pic32c/lib/thumb/v7e-m+fp/hard\libc_nano.a(lib_a-__ssputs.o)
 .comment       0x00000053       0x54 c:/program files/microchip/xc32/v3.01/bin/bin/../../lib/gcc/pic32c/8.3.1/../../../../pic32c/lib/thumb/v7e-m+fp/hard\libc_nano.a(lib_a-closer.o)
 .comment       0x00000053       0x54 c:/program files/microchip/xc32/v3.01/bin/bin/../../lib/gcc/pic32c/8.3.1/../../../../pic32c/lib/thumb/v7e-m+fp/hard\libc_nano.a(lib_a-fflush.o)
 .comment       0x00000053       0x54 c:/program files/microchip/xc32/v3.01/bin/bin/../../lib/gcc/pic32c/8.3.1/../../../../pic32c/lib/thumb/v7e-m+fp/hard\libc_nano.a(lib_a-fstatr.o)
 .comment       0x00000053       0x54 c:/program files/microchip/xc32/v3.01/bin/bin/../../lib/gcc/pic32c/8.3.1/../../../../pic32c/lib/thumb/v7e-m+fp/hard\libc_nano.a(lib_a-isattyr.o)
 .comment       0x00000053       0x54 c:/program files/microchip/xc32/v3.01/bin/bin/../../lib/gcc/pic32c/8.3.1/../../../../pic32c/lib/thumb/v7e-m+fp/hard\libc_nano.a(lib_a-lseekr.o)
 .comment       0x00000053       0x54 c:/program files/microchip/xc32/v3.01/bin/bin/../../lib/gcc/pic32c/8.3.1/../../../../pic32c/lib/thumb/v7e-m+fp/hard\libc_nano.a(lib_a-nano-reallocr.o)
 .comment       0x00000053       0x54 c:/program files/microchip/xc32/v3.01/bin/bin/../../lib/gcc/pic32c/8.3.1/../../../../pic32c/lib/thumb/v7e-m+fp/hard\libc_nano.a(lib_a-readr.o)
 .comment       0x00000053       0x54 c:/program files/microchip/xc32/v3.01/bin/bin/../../lib/gcc/pic32c/8.3.1/../../../../pic32c/lib/thumb/v7e-m+fp/hard\libc_nano.a(lib_a-nano-msizer.o)
 .comment       0x00000053       0x54 c:/program files/microchip/xc32/v3.01/bin/bin/../../lib/gcc/pic32c/8.3.1/../../../../pic32c/lib/thumb/v7e-m+fp/hard\libpic32c.a(_close.o)
 .comment       0x00000053       0x54 c:/program files/microchip/xc32/v3.01/bin/bin/../../lib/gcc/pic32c/8.3.1/../../../../pic32c/lib/thumb/v7e-m+fp/hard\libpic32c.a(_fstat.o)
 .comment       0x00000053       0x54 c:/program files/microchip/xc32/v3.01/bin/bin/../../lib/gcc/pic32c/8.3.1/../../../../pic32c/lib/thumb/v7e-m+fp/hard\libpic32c.a(_getpid.o)
 .comment       0x00000053       0x54 c:/program files/microchip/xc32/v3.01/bin/bin/../../lib/gcc/pic32c/8.3.1/../../../../pic32c/lib/thumb/v7e-m+fp/hard\libpic32c.a(_isatty.o)
 .comment       0x00000053       0x54 c:/program files/microchip/xc32/v3.01/bin/bin/../../lib/gcc/pic32c/8.3.1/../../../../pic32c/lib/thumb/v7e-m+fp/hard\libpic32c.a(_kill.o)
 .comment       0x00000053       0x54 c:/program files/microchip/xc32/v3.01/bin/bin/../../lib/gcc/pic32c/8.3.1/../../../../pic32c/lib/thumb/v7e-m+fp/hard\libpic32c.a(_lseek.o)
 .comment       0x00000053       0x54 c:/program files/microchip/xc32/v3.01/bin/bin/../../lib/gcc/pic32c/8.3.1/../../../../pic32c/lib/thumb/v7e-m+fp/hard\libpic32c.a(_read.o)
 .comment       0x00000053       0x54 c:/program files/microchip/xc32/v3.01/bin/bin/../../lib/gcc/pic32c/8.3.1/../../../../pic32c/lib/thumb/v7e-m+fp/hard\libpic32c.a(sbrk.o)
 .comment       0x00000053       0x54 c:/program files/microchip/xc32/v3.01/bin/bin/../../lib/gcc/pic32c/8.3.1/../../../../pic32c/lib/thumb/v7e-m+fp/hard\libpic32c.a(_write.o)
 .comment       0x00000053       0x54 c:/program files/microchip/xc32/v3.01/bin/bin/../../lib/gcc/pic32c/8.3.1/../../../../pic32c/lib/thumb/v7e-m+fp/hard\libpic32c.a(close.o)
 .comment       0x00000053       0x54 c:/program files/microchip/xc32/v3.01/bin/bin/../../lib/gcc/pic32c/8.3.1/../../../../pic32c/lib/thumb/v7e-m+fp/hard\libpic32c.a(fstat.o)
 .comment       0x00000053       0x54 c:/program files/microchip/xc32/v3.01/bin/bin/../../lib/gcc/pic32c/8.3.1/../../../../pic32c/lib/thumb/v7e-m+fp/hard\libpic32c.a(getpid.o)
 .comment       0x00000053       0x54 c:/program files/microchip/xc32/v3.01/bin/bin/../../lib/gcc/pic32c/8.3.1/../../../../pic32c/lib/thumb/v7e-m+fp/hard\libpic32c.a(isatty.o)
 .comment       0x00000053       0x54 c:/program files/microchip/xc32/v3.01/bin/bin/../../lib/gcc/pic32c/8.3.1/../../../../pic32c/lib/thumb/v7e-m+fp/hard\libpic32c.a(kill.o)
 .comment       0x00000053       0x54 c:/program files/microchip/xc32/v3.01/bin/bin/../../lib/gcc/pic32c/8.3.1/../../../../pic32c/lib/thumb/v7e-m+fp/hard\libpic32c.a(lseek.o)
 .comment       0x00000053       0x54 c:/program files/microchip/xc32/v3.01/bin/bin/../../lib/gcc/pic32c/8.3.1/../../../../pic32c/lib/thumb/v7e-m+fp/hard\libpic32c.a(read.o)
 .comment       0x00000053       0x54 c:/program files/microchip/xc32/v3.01/bin/bin/../../lib/gcc/pic32c/8.3.1/../../../../pic32c/lib/thumb/v7e-m+fp/hard\libpic32c.a(write.o)

.debug_info     0x00000000   0x10bad3
 .debug_info    0x00000000     0x4c59 build/FreeRTOS/production/_ext/1609394304/crypto.o
 .debug_info    0x00004c59     0x8be1 build/FreeRTOS/production/_ext/1231519722/drv_ethphy.o
 .debug_info    0x0000d83a     0x4362 build/FreeRTOS/production/_ext/1231519722/drv_extphy_lan867x.o
 .debug_info    0x00011b9c     0xb156 build/FreeRTOS/production/_ext/41526634/drv_gmac.o
 .debug_info    0x0001ccf2     0x9928 build/FreeRTOS/production/_ext/41526634/drv_gmac_lib_samE5x.o
 .debug_info    0x0002661a     0x51d3 build/FreeRTOS/production/_ext/1149484450/drv_miim.o
 .debug_info    0x0002b7ed     0x130e build/FreeRTOS/production/_ext/540595297/helpers.o
 .debug_info    0x0002cafb     0x5b34 build/FreeRTOS/production/_ext/540595297/icmp.o
 .debug_info    0x0003262f     0xcd6d build/FreeRTOS/production/_ext/540595297/tcp.o
 .debug_info    0x0003f39c     0x7ef6 build/FreeRTOS/production/_ext/540595297/arp.o
 .debug_info    0x00047292     0x9711 build/FreeRTOS/production/_ext/540595297/tcpip_commands.o
 .debug_info    0x000509a3     0x8baf build/FreeRTOS/production/_ext/540595297/iperf.o
 .debug_info    0x00059552     0x8b74 build/FreeRTOS/production/_ext/540595297/ipv4.o
 .debug_info    0x000620c6     0x3683 build/FreeRTOS/production/_ext/540595297/tcpip_heap_alloc.o
 .debug_info    0x00065749     0x40c8 build/FreeRTOS/production/_ext/540595297/tcpip_heap_internal.o
 .debug_info    0x00069811     0xaabf build/FreeRTOS/production/_ext/540595297/dhcp.o
 .debug_info    0x000742d0     0x8e30 build/FreeRTOS/production/_ext/540595297/dns.o
 .debug_info    0x0007d100     0x104b build/FreeRTOS/production/_ext/540595297/hash_fnv.o
 .debug_info    0x0007e14b     0x178d build/FreeRTOS/production/_ext/540595297/oahash.o
 .debug_info    0x0007f8d8     0x6351 build/FreeRTOS/production/_ext/540595297/tcpip_helpers.o
 .debug_info    0x00085c29     0xd384 build/FreeRTOS/production/_ext/540595297/tcpip_manager.o
 .debug_info    0x00092fad     0x3722 build/FreeRTOS/production/_ext/540595297/tcpip_notify.o
 .debug_info    0x000966cf     0x479c build/FreeRTOS/production/_ext/540595297/tcpip_packet.o
 .debug_info    0x0009ae6b     0xa1dc build/FreeRTOS/production/_ext/540595297/udp.o
 .debug_info    0x000a5047      0xc44 build/FreeRTOS/production/_ext/891571577/osal_freertos.o
 .debug_info    0x000a5c8b      0xc04 build/FreeRTOS/production/_ext/892004133/plib_clock.o
 .debug_info    0x000a688f      0x38a build/FreeRTOS/production/_ext/894153619/plib_evsys.o
 .debug_info    0x000a6c19     0x17d5 build/FreeRTOS/production/_ext/1494909205/plib_nvic.o
 .debug_info    0x000a83ee     0x1962 build/FreeRTOS/production/_ext/320424729/plib_nvmctrl.o
 .debug_info    0x000a9d50     0x1159 build/FreeRTOS/production/_ext/1494856054/plib_port.o
 .debug_info    0x000aaea9     0x2094 build/FreeRTOS/production/_ext/2092608928/plib_sercom1_usart.o
 .debug_info    0x000acf3d      0xd3a build/FreeRTOS/production/_ext/579449528/plib_tc0.o
 .debug_info    0x000adc77      0x2dc build/FreeRTOS/production/_ext/1872641887/xc32_monitor.o
 .debug_info    0x000adf53     0x338a build/FreeRTOS/production/_ext/1005353002/sys_command.o
 .debug_info    0x000b12dd     0x5816 build/FreeRTOS/production/_ext/548640822/sys_console_uart.o
 .debug_info    0x000b6af3     0x2084 build/FreeRTOS/production/_ext/548640822/sys_console.o
 .debug_info    0x000b8b77     0x13c9 build/FreeRTOS/production/_ext/147610190/sys_debug.o
 .debug_info    0x000b9f40     0x1230 build/FreeRTOS/production/_ext/1690414130/sys_int.o
 .debug_info    0x000bb170      0x64b build/FreeRTOS/production/_ext/1093154855/sys_reset.o
 .debug_info    0x000bb7bb     0x3e8b build/FreeRTOS/production/_ext/832704728/sys_time.o
 .debug_info    0x000bf646      0x70e build/FreeRTOS/production/_ext/2072568807/sys_time_h2_adapter.o
 .debug_info    0x000bfd54     0x12cf build/FreeRTOS/production/_ext/2072568807/sys_random_h2_adapter.o
 .debug_info    0x000c1023     0x4bd6 build/FreeRTOS/production/_ext/161576091/tasks.o
 .debug_info    0x000c5bf9     0x7c37 build/FreeRTOS/production/_ext/161576091/initialization.o
 .debug_info    0x000cd830     0x5c59 build/FreeRTOS/production/_ext/161576091/interrupts.o
 .debug_info    0x000d3489     0x48bf build/FreeRTOS/production/_ext/161576091/exceptions.o
 .debug_info    0x000d7d48      0x995 build/FreeRTOS/production/_ext/161576091/startup_xc32.o
 .debug_info    0x000d86dd      0xf6f build/FreeRTOS/production/_ext/161576091/libc_syscalls.o
 .debug_info    0x000d964c      0x56f build/FreeRTOS/production/_ext/161576091/freertos_hooks.o
 .debug_info    0x000d9bbb      0x7c9 build/FreeRTOS/production/_ext/246609638/port.o
 .debug_info    0x000da384     0x1108 build/FreeRTOS/production/_ext/1665200909/heap_1.o
 .debug_info    0x000db48c     0x122b build/FreeRTOS/production/_ext/404212886/list.o
 .debug_info    0x000dc6b7     0x2d58 build/FreeRTOS/production/_ext/404212886/queue.o
 .debug_info    0x000df40f     0x3a70 build/FreeRTOS/production/_ext/404212886/FreeRTOS_tasks.o
 .debug_info    0x000e2e7f     0x2eca build/FreeRTOS/production/_ext/172253694/crypt_wolfcryptcb.o
 .debug_info    0x000e5d49     0x512b build/FreeRTOS/production/_ext/1664057780/cryptocb.o
 .debug_info    0x000eae74     0x3108 build/FreeRTOS/production/_ext/1664057780/md5.o
 .debug_info    0x000edf7c     0x48dc build/FreeRTOS/production/_ext/1664057780/random.o
 .debug_info    0x000f2858     0x490c build/FreeRTOS/production/_ext/1664057780/sha256.o
 .debug_info    0x000f7164     0x52f7 build/FreeRTOS/production/_ext/1360937237/app.o
 .debug_info    0x000fc45b     0x4815 build/FreeRTOS/production/_ext/1360937237/main.o
 .debug_info    0x00100c70     0x155e build/FreeRTOS/production/_ext/1428073114/plib_sercom0_spi_master.o
 .debug_info    0x001021ce      0x9b8 build/FreeRTOS/production/_ext/1434865757/gfx_mono_framebuffer.o
 .debug_info    0x00102b86     0x124a build/FreeRTOS/production/_ext/1434865757/gfx_mono_generic.o
 .debug_info    0x00103dd0      0xd8c build/FreeRTOS/production/_ext/1434865757/gfx_mono_text.o
 .debug_info    0x00104b5c      0xe29 build/FreeRTOS/production/_ext/1434865757/gfx_mono_ug_2832hsweg04.o
 .debug_info    0x00105985      0xad0 build/FreeRTOS/production/_ext/1434865757/gfx_ssd1306.o
 .debug_info    0x00106455      0x4db build/FreeRTOS/production/_ext/1434865757/gfx_sysfont.o
 .debug_info    0x00106930      0x2cd c:/program files/microchip/xc32/v3.01/bin/bin/../../lib/gcc/pic32c/8.3.1/../../../../pic32c/lib/thumb/v7e-m+fp/hard\libpic32c.a(data_init.o)
 .debug_info    0x00106bfd       0x26 c:/program files/microchip/xc32/v3.01/bin/bin/../../lib/gcc/pic32c/8.3.1/thumb/v7e-m+fp/hard\libgcc.a(_arm_addsubdf3.o)
 .debug_info    0x00106c23       0x26 c:/program files/microchip/xc32/v3.01/bin/bin/../../lib/gcc/pic32c/8.3.1/thumb/v7e-m+fp/hard\libgcc.a(_arm_muldivdf3.o)
 .debug_info    0x00106c49       0x26 c:/program files/microchip/xc32/v3.01/bin/bin/../../lib/gcc/pic32c/8.3.1/thumb/v7e-m+fp/hard\libgcc.a(_arm_cmpdf2.o)
 .debug_info    0x00106c6f       0x26 c:/program files/microchip/xc32/v3.01/bin/bin/../../lib/gcc/pic32c/8.3.1/thumb/v7e-m+fp/hard\libgcc.a(_arm_fixunsdfsi.o)
 .debug_info    0x00106c95       0x26 c:/program files/microchip/xc32/v3.01/bin/bin/../../lib/gcc/pic32c/8.3.1/thumb/v7e-m+fp/hard\libgcc.a(_aeabi_uldivmod.o)
 .debug_info    0x00106cbb     0x1fdc c:/program files/microchip/xc32/v3.01/bin/bin/../../lib/gcc/pic32c/8.3.1/thumb/v7e-m+fp/hard\libgcc.a(_udivmoddi4.o)
 .debug_info    0x00108c97       0x26 c:/program files/microchip/xc32/v3.01/bin/bin/../../lib/gcc/pic32c/8.3.1/thumb/v7e-m+fp/hard\libgcc.a(_dvmd_tls.o)
 .debug_info    0x00108cbd      0x2b2 c:/program files/microchip/xc32/v3.01/bin/bin/../../lib/gcc/pic32c/8.3.1/../../../../pic32c/lib/thumb/v7e-m+fp/hard\libpic32c.a(_close.o)
 .debug_info    0x00108f6f      0x2b2 c:/program files/microchip/xc32/v3.01/bin/bin/../../lib/gcc/pic32c/8.3.1/../../../../pic32c/lib/thumb/v7e-m+fp/hard\libpic32c.a(_fstat.o)
 .debug_info    0x00109221      0x2b4 c:/program files/microchip/xc32/v3.01/bin/bin/../../lib/gcc/pic32c/8.3.1/../../../../pic32c/lib/thumb/v7e-m+fp/hard\libpic32c.a(_getpid.o)
 .debug_info    0x001094d5      0x2b4 c:/program files/microchip/xc32/v3.01/bin/bin/../../lib/gcc/pic32c/8.3.1/../../../../pic32c/lib/thumb/v7e-m+fp/hard\libpic32c.a(_isatty.o)
 .debug_info    0x00109789      0x2b0 c:/program files/microchip/xc32/v3.01/bin/bin/../../lib/gcc/pic32c/8.3.1/../../../../pic32c/lib/thumb/v7e-m+fp/hard\libpic32c.a(_kill.o)
 .debug_info    0x00109a39      0x2b2 c:/program files/microchip/xc32/v3.01/bin/bin/../../lib/gcc/pic32c/8.3.1/../../../../pic32c/lib/thumb/v7e-m+fp/hard\libpic32c.a(_lseek.o)
 .debug_info    0x00109ceb      0x2b0 c:/program files/microchip/xc32/v3.01/bin/bin/../../lib/gcc/pic32c/8.3.1/../../../../pic32c/lib/thumb/v7e-m+fp/hard\libpic32c.a(_read.o)
 .debug_info    0x00109f9b      0x2b0 c:/program files/microchip/xc32/v3.01/bin/bin/../../lib/gcc/pic32c/8.3.1/../../../../pic32c/lib/thumb/v7e-m+fp/hard\libpic32c.a(sbrk.o)
 .debug_info    0x0010a24b      0x2b2 c:/program files/microchip/xc32/v3.01/bin/bin/../../lib/gcc/pic32c/8.3.1/../../../../pic32c/lib/thumb/v7e-m+fp/hard\libpic32c.a(_write.o)
 .debug_info    0x0010a4fd      0x2b1 c:/program files/microchip/xc32/v3.01/bin/bin/../../lib/gcc/pic32c/8.3.1/../../../../pic32c/lib/thumb/v7e-m+fp/hard\libpic32c.a(close.o)
 .debug_info    0x0010a7ae      0x2b1 c:/program files/microchip/xc32/v3.01/bin/bin/../../lib/gcc/pic32c/8.3.1/../../../../pic32c/lib/thumb/v7e-m+fp/hard\libpic32c.a(fstat.o)
 .debug_info    0x0010aa5f      0x2b3 c:/program files/microchip/xc32/v3.01/bin/bin/../../lib/gcc/pic32c/8.3.1/../../../../pic32c/lib/thumb/v7e-m+fp/hard\libpic32c.a(getpid.o)
 .debug_info    0x0010ad12      0x2b3 c:/program files/microchip/xc32/v3.01/bin/bin/../../lib/gcc/pic32c/8.3.1/../../../../pic32c/lib/thumb/v7e-m+fp/hard\libpic32c.a(isatty.o)
 .debug_info    0x0010afc5      0x2af c:/program files/microchip/xc32/v3.01/bin/bin/../../lib/gcc/pic32c/8.3.1/../../../../pic32c/lib/thumb/v7e-m+fp/hard\libpic32c.a(kill.o)
 .debug_info    0x0010b274      0x2b1 c:/program files/microchip/xc32/v3.01/bin/bin/../../lib/gcc/pic32c/8.3.1/../../../../pic32c/lib/thumb/v7e-m+fp/hard\libpic32c.a(lseek.o)
 .debug_info    0x0010b525      0x2b0 c:/program files/microchip/xc32/v3.01/bin/bin/../../lib/gcc/pic32c/8.3.1/../../../../pic32c/lib/thumb/v7e-m+fp/hard\libpic32c.a(read.o)
 .debug_info    0x0010b7d5      0x2b2 c:/program files/microchip/xc32/v3.01/bin/bin/../../lib/gcc/pic32c/8.3.1/../../../../pic32c/lib/thumb/v7e-m+fp/hard\libpic32c.a(write.o)
 .debug_info    0x0010ba87       0x26 c:/program files/microchip/xc32/v3.01/bin/bin/../../lib/gcc/pic32c/8.3.1/thumb/v7e-m+fp/hard\libgcc.a(_arm_unorddf2.o)
 .debug_info    0x0010baad       0x26 c:/program files/microchip/xc32/v3.01/bin/bin/../../lib/gcc/pic32c/8.3.1/thumb/v7e-m+fp/hard\libgcc.a(_arm_fixdfsi.o)

.debug_abbrev   0x00000000    0x10327
 .debug_abbrev  0x00000000      0x429 build/FreeRTOS/production/_ext/1609394304/crypto.o
 .debug_abbrev  0x00000429      0x5c7 build/FreeRTOS/production/_ext/1231519722/drv_ethphy.o
 .debug_abbrev  0x000009f0      0x459 build/FreeRTOS/production/_ext/1231519722/drv_extphy_lan867x.o
 .debug_abbrev  0x00000e49      0x6a3 build/FreeRTOS/production/_ext/41526634/drv_gmac.o
 .debug_abbrev  0x000014ec      0x674 build/FreeRTOS/production/_ext/41526634/drv_gmac_lib_samE5x.o
 .debug_abbrev  0x00001b60      0x6b9 build/FreeRTOS/production/_ext/1149484450/drv_miim.o
 .debug_abbrev  0x00002219      0x2e2 build/FreeRTOS/production/_ext/540595297/helpers.o
 .debug_abbrev  0x000024fb      0x5e2 build/FreeRTOS/production/_ext/540595297/icmp.o
 .debug_abbrev  0x00002add      0x6fd build/FreeRTOS/production/_ext/540595297/tcp.o
 .debug_abbrev  0x000031da      0x657 build/FreeRTOS/production/_ext/540595297/arp.o
 .debug_abbrev  0x00003831      0x588 build/FreeRTOS/production/_ext/540595297/tcpip_commands.o
 .debug_abbrev  0x00003db9      0x5db build/FreeRTOS/production/_ext/540595297/iperf.o
 .debug_abbrev  0x00004394      0x5fb build/FreeRTOS/production/_ext/540595297/ipv4.o
 .debug_abbrev  0x0000498f      0x301 build/FreeRTOS/production/_ext/540595297/tcpip_heap_alloc.o
 .debug_abbrev  0x00004c90      0x4b4 build/FreeRTOS/production/_ext/540595297/tcpip_heap_internal.o
 .debug_abbrev  0x00005144      0x693 build/FreeRTOS/production/_ext/540595297/dhcp.o
 .debug_abbrev  0x000057d7      0x609 build/FreeRTOS/production/_ext/540595297/dns.o
 .debug_abbrev  0x00005de0      0x213 build/FreeRTOS/production/_ext/540595297/hash_fnv.o
 .debug_abbrev  0x00005ff3      0x3c1 build/FreeRTOS/production/_ext/540595297/oahash.o
 .debug_abbrev  0x000063b4      0x5cd build/FreeRTOS/production/_ext/540595297/tcpip_helpers.o
 .debug_abbrev  0x00006981      0x79b build/FreeRTOS/production/_ext/540595297/tcpip_manager.o
 .debug_abbrev  0x0000711c      0x395 build/FreeRTOS/production/_ext/540595297/tcpip_notify.o
 .debug_abbrev  0x000074b1      0x578 build/FreeRTOS/production/_ext/540595297/tcpip_packet.o
 .debug_abbrev  0x00007a29      0x68c build/FreeRTOS/production/_ext/540595297/udp.o
 .debug_abbrev  0x000080b5      0x1f5 build/FreeRTOS/production/_ext/891571577/osal_freertos.o
 .debug_abbrev  0x000082aa      0x135 build/FreeRTOS/production/_ext/892004133/plib_clock.o
 .debug_abbrev  0x000083df       0x64 build/FreeRTOS/production/_ext/894153619/plib_evsys.o
 .debug_abbrev  0x00008443      0x206 build/FreeRTOS/production/_ext/1494909205/plib_nvic.o
 .debug_abbrev  0x00008649      0x353 build/FreeRTOS/production/_ext/320424729/plib_nvmctrl.o
 .debug_abbrev  0x0000899c      0x1e9 build/FreeRTOS/production/_ext/1494856054/plib_port.o
 .debug_abbrev  0x00008b85      0x46a build/FreeRTOS/production/_ext/2092608928/plib_sercom1_usart.o
 .debug_abbrev  0x00008fef      0x1f9 build/FreeRTOS/production/_ext/579449528/plib_tc0.o
 .debug_abbrev  0x000091e8       0x80 build/FreeRTOS/production/_ext/1872641887/xc32_monitor.o
 .debug_abbrev  0x00009268      0x533 build/FreeRTOS/production/_ext/1005353002/sys_command.o
 .debug_abbrev  0x0000979b      0x4aa build/FreeRTOS/production/_ext/548640822/sys_console_uart.o
 .debug_abbrev  0x00009c45      0x462 build/FreeRTOS/production/_ext/548640822/sys_console.o
 .debug_abbrev  0x0000a0a7      0x28d build/FreeRTOS/production/_ext/147610190/sys_debug.o
 .debug_abbrev  0x0000a334      0x253 build/FreeRTOS/production/_ext/1690414130/sys_int.o
 .debug_abbrev  0x0000a587      0x102 build/FreeRTOS/production/_ext/1093154855/sys_reset.o
 .debug_abbrev  0x0000a689      0x653 build/FreeRTOS/production/_ext/832704728/sys_time.o
 .debug_abbrev  0x0000acdc      0x16f build/FreeRTOS/production/_ext/2072568807/sys_time_h2_adapter.o
 .debug_abbrev  0x0000ae4b      0x29f build/FreeRTOS/production/_ext/2072568807/sys_random_h2_adapter.o
 .debug_abbrev  0x0000b0ea      0x315 build/FreeRTOS/production/_ext/161576091/tasks.o
 .debug_abbrev  0x0000b3ff      0x3a6 build/FreeRTOS/production/_ext/161576091/initialization.o
 .debug_abbrev  0x0000b7a5      0x2a5 build/FreeRTOS/production/_ext/161576091/interrupts.o
 .debug_abbrev  0x0000ba4a      0x298 build/FreeRTOS/production/_ext/161576091/exceptions.o
 .debug_abbrev  0x0000bce2      0x209 build/FreeRTOS/production/_ext/161576091/startup_xc32.o
 .debug_abbrev  0x0000beeb      0x1d3 build/FreeRTOS/production/_ext/161576091/libc_syscalls.o
 .debug_abbrev  0x0000c0be      0x13f build/FreeRTOS/production/_ext/161576091/freertos_hooks.o
 .debug_abbrev  0x0000c1fd      0x217 build/FreeRTOS/production/_ext/246609638/port.o
 .debug_abbrev  0x0000c414      0x2af build/FreeRTOS/production/_ext/1665200909/heap_1.o
 .debug_abbrev  0x0000c6c3      0x270 build/FreeRTOS/production/_ext/404212886/list.o
 .debug_abbrev  0x0000c933      0x484 build/FreeRTOS/production/_ext/404212886/queue.o
 .debug_abbrev  0x0000cdb7      0x545 build/FreeRTOS/production/_ext/404212886/FreeRTOS_tasks.o
 .debug_abbrev  0x0000d2fc      0x2b4 build/FreeRTOS/production/_ext/172253694/crypt_wolfcryptcb.o
 .debug_abbrev  0x0000d5b0      0x45c build/FreeRTOS/production/_ext/1664057780/cryptocb.o
 .debug_abbrev  0x0000da0c      0x400 build/FreeRTOS/production/_ext/1664057780/md5.o
 .debug_abbrev  0x0000de0c      0x531 build/FreeRTOS/production/_ext/1664057780/random.o
 .debug_abbrev  0x0000e33d      0x4ed build/FreeRTOS/production/_ext/1664057780/sha256.o
 .debug_abbrev  0x0000e82a      0x449 build/FreeRTOS/production/_ext/1360937237/app.o
 .debug_abbrev  0x0000ec73      0x2d1 build/FreeRTOS/production/_ext/1360937237/main.o
 .debug_abbrev  0x0000ef44      0x2ad build/FreeRTOS/production/_ext/1428073114/plib_sercom0_spi_master.o
 .debug_abbrev  0x0000f1f1      0x1c3 build/FreeRTOS/production/_ext/1434865757/gfx_mono_framebuffer.o
 .debug_abbrev  0x0000f3b4      0x222 build/FreeRTOS/production/_ext/1434865757/gfx_mono_generic.o
 .debug_abbrev  0x0000f5d6      0x27e build/FreeRTOS/production/_ext/1434865757/gfx_mono_text.o
 .debug_abbrev  0x0000f854      0x2ad build/FreeRTOS/production/_ext/1434865757/gfx_mono_ug_2832hsweg04.o
 .debug_abbrev  0x0000fb01      0x1cc build/FreeRTOS/production/_ext/1434865757/gfx_ssd1306.o
 .debug_abbrev  0x0000fccd      0x104 build/FreeRTOS/production/_ext/1434865757/gfx_sysfont.o
 .debug_abbrev  0x0000fdd1       0x2e c:/program files/microchip/xc32/v3.01/bin/bin/../../lib/gcc/pic32c/8.3.1/../../../../pic32c/lib/thumb/v7e-m+fp/hard\libpic32c.a(data_init.o)
 .debug_abbrev  0x0000fdff       0x14 c:/program files/microchip/xc32/v3.01/bin/bin/../../lib/gcc/pic32c/8.3.1/thumb/v7e-m+fp/hard\libgcc.a(_arm_addsubdf3.o)
 .debug_abbrev  0x0000fe13       0x14 c:/program files/microchip/xc32/v3.01/bin/bin/../../lib/gcc/pic32c/8.3.1/thumb/v7e-m+fp/hard\libgcc.a(_arm_muldivdf3.o)
 .debug_abbrev  0x0000fe27       0x14 c:/program files/microchip/xc32/v3.01/bin/bin/../../lib/gcc/pic32c/8.3.1/thumb/v7e-m+fp/hard\libgcc.a(_arm_cmpdf2.o)
 .debug_abbrev  0x0000fe3b       0x14 c:/program files/microchip/xc32/v3.01/bin/bin/../../lib/gcc/pic32c/8.3.1/thumb/v7e-m+fp/hard\libgcc.a(_arm_fixunsdfsi.o)
 .debug_abbrev  0x0000fe4f       0x14 c:/program files/microchip/xc32/v3.01/bin/bin/../../lib/gcc/pic32c/8.3.1/thumb/v7e-m+fp/hard\libgcc.a(_aeabi_uldivmod.o)
 .debug_abbrev  0x0000fe63      0x192 c:/program files/microchip/xc32/v3.01/bin/bin/../../lib/gcc/pic32c/8.3.1/thumb/v7e-m+fp/hard\libgcc.a(_udivmoddi4.o)
 .debug_abbrev  0x0000fff5       0x14 c:/program files/microchip/xc32/v3.01/bin/bin/../../lib/gcc/pic32c/8.3.1/thumb/v7e-m+fp/hard\libgcc.a(_dvmd_tls.o)
 .debug_abbrev  0x00010009       0x2b c:/program files/microchip/xc32/v3.01/bin/bin/../../lib/gcc/pic32c/8.3.1/../../../../pic32c/lib/thumb/v7e-m+fp/hard\libpic32c.a(_close.o)
 .debug_abbrev  0x00010034       0x2b c:/program files/microchip/xc32/v3.01/bin/bin/../../lib/gcc/pic32c/8.3.1/../../../../pic32c/lib/thumb/v7e-m+fp/hard\libpic32c.a(_fstat.o)
 .debug_abbrev  0x0001005f       0x2b c:/program files/microchip/xc32/v3.01/bin/bin/../../lib/gcc/pic32c/8.3.1/../../../../pic32c/lib/thumb/v7e-m+fp/hard\libpic32c.a(_getpid.o)
 .debug_abbrev  0x0001008a       0x2b c:/program files/microchip/xc32/v3.01/bin/bin/../../lib/gcc/pic32c/8.3.1/../../../../pic32c/lib/thumb/v7e-m+fp/hard\libpic32c.a(_isatty.o)
 .debug_abbrev  0x000100b5       0x2b c:/program files/microchip/xc32/v3.01/bin/bin/../../lib/gcc/pic32c/8.3.1/../../../../pic32c/lib/thumb/v7e-m+fp/hard\libpic32c.a(_kill.o)
 .debug_abbrev  0x000100e0       0x2b c:/program files/microchip/xc32/v3.01/bin/bin/../../lib/gcc/pic32c/8.3.1/../../../../pic32c/lib/thumb/v7e-m+fp/hard\libpic32c.a(_lseek.o)
 .debug_abbrev  0x0001010b       0x2b c:/program files/microchip/xc32/v3.01/bin/bin/../../lib/gcc/pic32c/8.3.1/../../../../pic32c/lib/thumb/v7e-m+fp/hard\libpic32c.a(_read.o)
 .debug_abbrev  0x00010136       0x2e c:/program files/microchip/xc32/v3.01/bin/bin/../../lib/gcc/pic32c/8.3.1/../../../../pic32c/lib/thumb/v7e-m+fp/hard\libpic32c.a(sbrk.o)
 .debug_abbrev  0x00010164       0x2b c:/program files/microchip/xc32/v3.01/bin/bin/../../lib/gcc/pic32c/8.3.1/../../../../pic32c/lib/thumb/v7e-m+fp/hard\libpic32c.a(_write.o)
 .debug_abbrev  0x0001018f       0x2e c:/program files/microchip/xc32/v3.01/bin/bin/../../lib/gcc/pic32c/8.3.1/../../../../pic32c/lib/thumb/v7e-m+fp/hard\libpic32c.a(close.o)
 .debug_abbrev  0x000101bd       0x2e c:/program files/microchip/xc32/v3.01/bin/bin/../../lib/gcc/pic32c/8.3.1/../../../../pic32c/lib/thumb/v7e-m+fp/hard\libpic32c.a(fstat.o)
 .debug_abbrev  0x000101eb       0x2e c:/program files/microchip/xc32/v3.01/bin/bin/../../lib/gcc/pic32c/8.3.1/../../../../pic32c/lib/thumb/v7e-m+fp/hard\libpic32c.a(getpid.o)
 .debug_abbrev  0x00010219       0x2e c:/program files/microchip/xc32/v3.01/bin/bin/../../lib/gcc/pic32c/8.3.1/../../../../pic32c/lib/thumb/v7e-m+fp/hard\libpic32c.a(isatty.o)
 .debug_abbrev  0x00010247       0x2e c:/program files/microchip/xc32/v3.01/bin/bin/../../lib/gcc/pic32c/8.3.1/../../../../pic32c/lib/thumb/v7e-m+fp/hard\libpic32c.a(kill.o)
 .debug_abbrev  0x00010275       0x2e c:/program files/microchip/xc32/v3.01/bin/bin/../../lib/gcc/pic32c/8.3.1/../../../../pic32c/lib/thumb/v7e-m+fp/hard\libpic32c.a(lseek.o)
 .debug_abbrev  0x000102a3       0x2e c:/program files/microchip/xc32/v3.01/bin/bin/../../lib/gcc/pic32c/8.3.1/../../../../pic32c/lib/thumb/v7e-m+fp/hard\libpic32c.a(read.o)
 .debug_abbrev  0x000102d1       0x2e c:/program files/microchip/xc32/v3.01/bin/bin/../../lib/gcc/pic32c/8.3.1/../../../../pic32c/lib/thumb/v7e-m+fp/hard\libpic32c.a(write.o)
 .debug_abbrev  0x000102ff       0x14 c:/program files/microchip/xc32/v3.01/bin/bin/../../lib/gcc/pic32c/8.3.1/thumb/v7e-m+fp/hard\libgcc.a(_arm_unorddf2.o)
 .debug_abbrev  0x00010313       0x14 c:/program files/microchip/xc32/v3.01/bin/bin/../../lib/gcc/pic32c/8.3.1/thumb/v7e-m+fp/hard\libgcc.a(_arm_fixdfsi.o)

.debug_loc      0x00000000    0x59ee2
 .debug_loc     0x00000000     0x334c build/FreeRTOS/production/_ext/1609394304/crypto.o
 .debug_loc     0x0000334c     0x4a04 build/FreeRTOS/production/_ext/1231519722/drv_ethphy.o
 .debug_loc     0x00007d50      0xe11 build/FreeRTOS/production/_ext/1231519722/drv_extphy_lan867x.o
 .debug_loc     0x00008b61     0x3003 build/FreeRTOS/production/_ext/41526634/drv_gmac.o
 .debug_loc     0x0000bb64     0x2651 build/FreeRTOS/production/_ext/41526634/drv_gmac_lib_samE5x.o
 .debug_loc     0x0000e1b5     0x2867 build/FreeRTOS/production/_ext/1149484450/drv_miim.o
 .debug_loc     0x00010a1c      0x5a1 build/FreeRTOS/production/_ext/540595297/helpers.o
 .debug_loc     0x00010fbd      0xa23 build/FreeRTOS/production/_ext/540595297/icmp.o
 .debug_loc     0x000119e0     0x82ff build/FreeRTOS/production/_ext/540595297/tcp.o
 .debug_loc     0x00019cdf     0x3b6b build/FreeRTOS/production/_ext/540595297/arp.o
 .debug_loc     0x0001d84a     0x2dbe build/FreeRTOS/production/_ext/540595297/tcpip_commands.o
 .debug_loc     0x00020608     0x22ef build/FreeRTOS/production/_ext/540595297/iperf.o
 .debug_loc     0x000228f7     0x2f0b build/FreeRTOS/production/_ext/540595297/ipv4.o
 .debug_loc     0x00025802      0x207 build/FreeRTOS/production/_ext/540595297/tcpip_heap_alloc.o
 .debug_loc     0x00025a09     0x1007 build/FreeRTOS/production/_ext/540595297/tcpip_heap_internal.o
 .debug_loc     0x00026a10     0x3f8b build/FreeRTOS/production/_ext/540595297/dhcp.o
 .debug_loc     0x0002a99b     0x40ae build/FreeRTOS/production/_ext/540595297/dns.o
 .debug_loc     0x0002ea49      0x21b build/FreeRTOS/production/_ext/540595297/hash_fnv.o
 .debug_loc     0x0002ec64      0x4ab build/FreeRTOS/production/_ext/540595297/oahash.o
 .debug_loc     0x0002f10f     0x3943 build/FreeRTOS/production/_ext/540595297/tcpip_helpers.o
 .debug_loc     0x00032a52     0x7810 build/FreeRTOS/production/_ext/540595297/tcpip_manager.o
 .debug_loc     0x0003a262      0x458 build/FreeRTOS/production/_ext/540595297/tcpip_notify.o
 .debug_loc     0x0003a6ba      0xbe0 build/FreeRTOS/production/_ext/540595297/tcpip_packet.o
 .debug_loc     0x0003b29a     0x4be9 build/FreeRTOS/production/_ext/540595297/udp.o
 .debug_loc     0x0003fe83      0x727 build/FreeRTOS/production/_ext/891571577/osal_freertos.o
 .debug_loc     0x000405aa      0x348 build/FreeRTOS/production/_ext/1494909205/plib_nvic.o
 .debug_loc     0x000408f2      0x5a2 build/FreeRTOS/production/_ext/320424729/plib_nvmctrl.o
 .debug_loc     0x00040e94      0x1e8 build/FreeRTOS/production/_ext/1494856054/plib_port.o
 .debug_loc     0x0004107c      0xb3a build/FreeRTOS/production/_ext/2092608928/plib_sercom1_usart.o
 .debug_loc     0x00041bb6       0x5f build/FreeRTOS/production/_ext/579449528/plib_tc0.o
 .debug_loc     0x00041c15       0x25 build/FreeRTOS/production/_ext/1872641887/xc32_monitor.o
 .debug_loc     0x00041c3a     0x19e3 build/FreeRTOS/production/_ext/1005353002/sys_command.o
 .debug_loc     0x0004361d      0x852 build/FreeRTOS/production/_ext/548640822/sys_console_uart.o
 .debug_loc     0x00043e6f      0xc61 build/FreeRTOS/production/_ext/548640822/sys_console.o
 .debug_loc     0x00044ad0       0xa1 build/FreeRTOS/production/_ext/147610190/sys_debug.o
 .debug_loc     0x00044b71      0x182 build/FreeRTOS/production/_ext/1690414130/sys_int.o
 .debug_loc     0x00044cf3     0x24e9 build/FreeRTOS/production/_ext/832704728/sys_time.o
 .debug_loc     0x000471dc      0x152 build/FreeRTOS/production/_ext/2072568807/sys_time_h2_adapter.o
 .debug_loc     0x0004732e      0x1dd build/FreeRTOS/production/_ext/2072568807/sys_random_h2_adapter.o
 .debug_loc     0x0004750b      0x14c build/FreeRTOS/production/_ext/161576091/tasks.o
 .debug_loc     0x00047657       0x7d build/FreeRTOS/production/_ext/161576091/initialization.o
 .debug_loc     0x000476d4       0x60 build/FreeRTOS/production/_ext/161576091/startup_xc32.o
 .debug_loc     0x00047734       0x15 build/FreeRTOS/production/_ext/161576091/libc_syscalls.o
 .debug_loc     0x00047749       0x82 build/FreeRTOS/production/_ext/161576091/freertos_hooks.o
 .debug_loc     0x000477cb      0x13a build/FreeRTOS/production/_ext/246609638/port.o
 .debug_loc     0x00047905      0x116 build/FreeRTOS/production/_ext/1665200909/heap_1.o
 .debug_loc     0x00047a1b       0xb2 build/FreeRTOS/production/_ext/404212886/list.o
 .debug_loc     0x00047acd     0x16e4 build/FreeRTOS/production/_ext/404212886/queue.o
 .debug_loc     0x000491b1     0x212d build/FreeRTOS/production/_ext/404212886/FreeRTOS_tasks.o
 .debug_loc     0x0004b2de       0x45 build/FreeRTOS/production/_ext/172253694/crypt_wolfcryptcb.o
 .debug_loc     0x0004b323     0x27ea build/FreeRTOS/production/_ext/1664057780/cryptocb.o
 .debug_loc     0x0004db0d     0x2df9 build/FreeRTOS/production/_ext/1664057780/md5.o
 .debug_loc     0x00050906     0x29ba build/FreeRTOS/production/_ext/1664057780/random.o
 .debug_loc     0x000532c0     0x284a build/FreeRTOS/production/_ext/1664057780/sha256.o
 .debug_loc     0x00055b0a      0x1be build/FreeRTOS/production/_ext/1360937237/app.o
 .debug_loc     0x00055cc8       0x20 build/FreeRTOS/production/_ext/1360937237/main.o
 .debug_loc     0x00055ce8      0x640 build/FreeRTOS/production/_ext/1428073114/plib_sercom0_spi_master.o
 .debug_loc     0x00056328      0x6e4 build/FreeRTOS/production/_ext/1434865757/gfx_mono_framebuffer.o
 .debug_loc     0x00056a0c      0xf1c build/FreeRTOS/production/_ext/1434865757/gfx_mono_generic.o
 .debug_loc     0x00057928      0xbe8 build/FreeRTOS/production/_ext/1434865757/gfx_mono_text.o
 .debug_loc     0x00058510      0x84c build/FreeRTOS/production/_ext/1434865757/gfx_mono_ug_2832hsweg04.o
 .debug_loc     0x00058d5c      0x109 build/FreeRTOS/production/_ext/1434865757/gfx_ssd1306.o
 .debug_loc     0x00058e65       0x14 c:/program files/microchip/xc32/v3.01/bin/bin/../../lib/gcc/pic32c/8.3.1/../../../../pic32c/lib/thumb/v7e-m+fp/hard\libpic32c.a(data_init.o)
 .debug_loc     0x00058e79     0x1041 c:/program files/microchip/xc32/v3.01/bin/bin/../../lib/gcc/pic32c/8.3.1/thumb/v7e-m+fp/hard\libgcc.a(_udivmoddi4.o)
 .debug_loc     0x00059eba       0x14 c:/program files/microchip/xc32/v3.01/bin/bin/../../lib/gcc/pic32c/8.3.1/../../../../pic32c/lib/thumb/v7e-m+fp/hard\libpic32c.a(read.o)
 .debug_loc     0x00059ece       0x14 c:/program files/microchip/xc32/v3.01/bin/bin/../../lib/gcc/pic32c/8.3.1/../../../../pic32c/lib/thumb/v7e-m+fp/hard\libpic32c.a(write.o)

.debug_aranges  0x00000000     0x3038
 .debug_aranges
                0x00000000      0x1d0 build/FreeRTOS/production/_ext/1609394304/crypto.o
 .debug_aranges
                0x000001d0      0x248 build/FreeRTOS/production/_ext/1231519722/drv_ethphy.o
 .debug_aranges
                0x00000418       0x58 build/FreeRTOS/production/_ext/1231519722/drv_extphy_lan867x.o
 .debug_aranges
                0x00000470      0x278 build/FreeRTOS/production/_ext/41526634/drv_gmac.o
 .debug_aranges
                0x000006e8      0x140 build/FreeRTOS/production/_ext/41526634/drv_gmac_lib_samE5x.o
 .debug_aranges
                0x00000828       0xe0 build/FreeRTOS/production/_ext/1149484450/drv_miim.o
 .debug_aranges
                0x00000908       0x48 build/FreeRTOS/production/_ext/540595297/helpers.o
 .debug_aranges
                0x00000950       0x70 build/FreeRTOS/production/_ext/540595297/icmp.o
 .debug_aranges
                0x000009c0      0x230 build/FreeRTOS/production/_ext/540595297/tcp.o
 .debug_aranges
                0x00000bf0      0x110 build/FreeRTOS/production/_ext/540595297/arp.o
 .debug_aranges
                0x00000d00       0xc8 build/FreeRTOS/production/_ext/540595297/tcpip_commands.o
 .debug_aranges
                0x00000dc8       0x98 build/FreeRTOS/production/_ext/540595297/iperf.o
 .debug_aranges
                0x00000e60       0xf0 build/FreeRTOS/production/_ext/540595297/ipv4.o
 .debug_aranges
                0x00000f50       0x48 build/FreeRTOS/production/_ext/540595297/tcpip_heap_alloc.o
 .debug_aranges
                0x00000f98       0x68 build/FreeRTOS/production/_ext/540595297/tcpip_heap_internal.o
 .debug_aranges
                0x00001000      0x188 build/FreeRTOS/production/_ext/540595297/dhcp.o
 .debug_aranges
                0x00001188      0x130 build/FreeRTOS/production/_ext/540595297/dns.o
 .debug_aranges
                0x000012b8       0x28 build/FreeRTOS/production/_ext/540595297/hash_fnv.o
 .debug_aranges
                0x000012e0       0x50 build/FreeRTOS/production/_ext/540595297/oahash.o
 .debug_aranges
                0x00001330      0x218 build/FreeRTOS/production/_ext/540595297/tcpip_helpers.o
 .debug_aranges
                0x00001548      0x3a0 build/FreeRTOS/production/_ext/540595297/tcpip_manager.o
 .debug_aranges
                0x000018e8       0x48 build/FreeRTOS/production/_ext/540595297/tcpip_notify.o
 .debug_aranges
                0x00001930       0x88 build/FreeRTOS/production/_ext/540595297/tcpip_packet.o
 .debug_aranges
                0x000019b8      0x1c0 build/FreeRTOS/production/_ext/540595297/udp.o
 .debug_aranges
                0x00001b78       0x90 build/FreeRTOS/production/_ext/891571577/osal_freertos.o
 .debug_aranges
                0x00001c08       0x20 build/FreeRTOS/production/_ext/892004133/plib_clock.o
 .debug_aranges
                0x00001c28       0x20 build/FreeRTOS/production/_ext/894153619/plib_evsys.o
 .debug_aranges
                0x00001c48       0x38 build/FreeRTOS/production/_ext/1494909205/plib_nvic.o
 .debug_aranges
                0x00001c80       0xc0 build/FreeRTOS/production/_ext/320424729/plib_nvmctrl.o
 .debug_aranges
                0x00001d40       0x70 build/FreeRTOS/production/_ext/1494856054/plib_port.o
 .debug_aranges
                0x00001db0       0xb8 build/FreeRTOS/production/_ext/2092608928/plib_sercom1_usart.o
 .debug_aranges
                0x00001e68       0x78 build/FreeRTOS/production/_ext/579449528/plib_tc0.o
 .debug_aranges
                0x00001ee0       0x28 build/FreeRTOS/production/_ext/1872641887/xc32_monitor.o
 .debug_aranges
                0x00001f08       0xd8 build/FreeRTOS/production/_ext/1005353002/sys_command.o
 .debug_aranges
                0x00001fe0       0x70 build/FreeRTOS/production/_ext/548640822/sys_console_uart.o
 .debug_aranges
                0x00002050       0x88 build/FreeRTOS/production/_ext/548640822/sys_console.o
 .debug_aranges
                0x000020d8       0x48 build/FreeRTOS/production/_ext/147610190/sys_debug.o
 .debug_aranges
                0x00002120       0x40 build/FreeRTOS/production/_ext/1690414130/sys_int.o
 .debug_aranges
                0x00002160       0x20 build/FreeRTOS/production/_ext/1093154855/sys_reset.o
 .debug_aranges
                0x00002180      0x130 build/FreeRTOS/production/_ext/832704728/sys_time.o
 .debug_aranges
                0x000022b0       0x40 build/FreeRTOS/production/_ext/2072568807/sys_time_h2_adapter.o
 .debug_aranges
                0x000022f0       0x48 build/FreeRTOS/production/_ext/2072568807/sys_random_h2_adapter.o
 .debug_aranges
                0x00002338       0x40 build/FreeRTOS/production/_ext/161576091/tasks.o
 .debug_aranges
                0x00002378       0x28 build/FreeRTOS/production/_ext/161576091/initialization.o
 .debug_aranges
                0x000023a0       0x20 build/FreeRTOS/production/_ext/161576091/interrupts.o
 .debug_aranges
                0x000023c0       0x48 build/FreeRTOS/production/_ext/161576091/exceptions.o
 .debug_aranges
                0x00002408       0x28 build/FreeRTOS/production/_ext/161576091/startup_xc32.o
 .debug_aranges
                0x00002430       0x20 build/FreeRTOS/production/_ext/161576091/libc_syscalls.o
 .debug_aranges
                0x00002450       0x40 build/FreeRTOS/production/_ext/161576091/freertos_hooks.o
 .debug_aranges
                0x00002490       0x78 build/FreeRTOS/production/_ext/246609638/port.o
 .debug_aranges
                0x00002508       0x38 build/FreeRTOS/production/_ext/1665200909/heap_1.o
 .debug_aranges
                0x00002540       0x40 build/FreeRTOS/production/_ext/404212886/list.o
 .debug_aranges
                0x00002580       0xc8 build/FreeRTOS/production/_ext/404212886/queue.o
 .debug_aranges
                0x00002648      0x178 build/FreeRTOS/production/_ext/404212886/FreeRTOS_tasks.o
 .debug_aranges
                0x000027c0       0x28 build/FreeRTOS/production/_ext/172253694/crypt_wolfcryptcb.o
 .debug_aranges
                0x000027e8       0xd8 build/FreeRTOS/production/_ext/1664057780/cryptocb.o
 .debug_aranges
                0x000028c0       0x68 build/FreeRTOS/production/_ext/1664057780/md5.o
 .debug_aranges
                0x00002928       0xb8 build/FreeRTOS/production/_ext/1664057780/random.o
 .debug_aranges
                0x000029e0       0xb8 build/FreeRTOS/production/_ext/1664057780/sha256.o
 .debug_aranges
                0x00002a98       0x28 build/FreeRTOS/production/_ext/1360937237/app.o
 .debug_aranges
                0x00002ac0       0x20 build/FreeRTOS/production/_ext/1360937237/main.o
 .debug_aranges
                0x00002ae0       0x60 build/FreeRTOS/production/_ext/1428073114/plib_sercom0_spi_master.o
 .debug_aranges
                0x00002b40       0x58 build/FreeRTOS/production/_ext/1434865757/gfx_mono_framebuffer.o
 .debug_aranges
                0x00002b98       0x58 build/FreeRTOS/production/_ext/1434865757/gfx_mono_generic.o
 .debug_aranges
                0x00002bf0       0x40 build/FreeRTOS/production/_ext/1434865757/gfx_mono_text.o
 .debug_aranges
                0x00002c30       0x60 build/FreeRTOS/production/_ext/1434865757/gfx_mono_ug_2832hsweg04.o
 .debug_aranges
                0x00002c90       0x30 build/FreeRTOS/production/_ext/1434865757/gfx_ssd1306.o
 .debug_aranges
                0x00002cc0       0x18 build/FreeRTOS/production/_ext/1434865757/gfx_sysfont.o
 .debug_aranges
                0x00002cd8       0x20 c:/program files/microchip/xc32/v3.01/bin/bin/../../lib/gcc/pic32c/8.3.1/../../../../pic32c/lib/thumb/v7e-m+fp/hard\libpic32c.a(data_init.o)
 .debug_aranges
                0x00002cf8       0x20 c:/program files/microchip/xc32/v3.01/bin/bin/../../lib/gcc/pic32c/8.3.1/thumb/v7e-m+fp/hard\libgcc.a(_arm_addsubdf3.o)
 .debug_aranges
                0x00002d18       0x20 c:/program files/microchip/xc32/v3.01/bin/bin/../../lib/gcc/pic32c/8.3.1/thumb/v7e-m+fp/hard\libgcc.a(_arm_muldivdf3.o)
 .debug_aranges
                0x00002d38       0x20 c:/program files/microchip/xc32/v3.01/bin/bin/../../lib/gcc/pic32c/8.3.1/thumb/v7e-m+fp/hard\libgcc.a(_arm_cmpdf2.o)
 .debug_aranges
                0x00002d58       0x20 c:/program files/microchip/xc32/v3.01/bin/bin/../../lib/gcc/pic32c/8.3.1/thumb/v7e-m+fp/hard\libgcc.a(_arm_fixunsdfsi.o)
 .debug_aranges
                0x00002d78       0x20 c:/program files/microchip/xc32/v3.01/bin/bin/../../lib/gcc/pic32c/8.3.1/thumb/v7e-m+fp/hard\libgcc.a(_aeabi_uldivmod.o)
 .debug_aranges
                0x00002d98       0x20 c:/program files/microchip/xc32/v3.01/bin/bin/../../lib/gcc/pic32c/8.3.1/thumb/v7e-m+fp/hard\libgcc.a(_udivmoddi4.o)
 .debug_aranges
                0x00002db8       0x20 c:/program files/microchip/xc32/v3.01/bin/bin/../../lib/gcc/pic32c/8.3.1/thumb/v7e-m+fp/hard\libgcc.a(_dvmd_tls.o)
 .debug_aranges
                0x00002dd8       0x20 c:/program files/microchip/xc32/v3.01/bin/bin/../../lib/gcc/pic32c/8.3.1/../../../../pic32c/lib/thumb/v7e-m+fp/hard\libpic32c.a(_close.o)
 .debug_aranges
                0x00002df8       0x20 c:/program files/microchip/xc32/v3.01/bin/bin/../../lib/gcc/pic32c/8.3.1/../../../../pic32c/lib/thumb/v7e-m+fp/hard\libpic32c.a(_fstat.o)
 .debug_aranges
                0x00002e18       0x20 c:/program files/microchip/xc32/v3.01/bin/bin/../../lib/gcc/pic32c/8.3.1/../../../../pic32c/lib/thumb/v7e-m+fp/hard\libpic32c.a(_getpid.o)
 .debug_aranges
                0x00002e38       0x20 c:/program files/microchip/xc32/v3.01/bin/bin/../../lib/gcc/pic32c/8.3.1/../../../../pic32c/lib/thumb/v7e-m+fp/hard\libpic32c.a(_isatty.o)
 .debug_aranges
                0x00002e58       0x20 c:/program files/microchip/xc32/v3.01/bin/bin/../../lib/gcc/pic32c/8.3.1/../../../../pic32c/lib/thumb/v7e-m+fp/hard\libpic32c.a(_kill.o)
 .debug_aranges
                0x00002e78       0x20 c:/program files/microchip/xc32/v3.01/bin/bin/../../lib/gcc/pic32c/8.3.1/../../../../pic32c/lib/thumb/v7e-m+fp/hard\libpic32c.a(_lseek.o)
 .debug_aranges
                0x00002e98       0x20 c:/program files/microchip/xc32/v3.01/bin/bin/../../lib/gcc/pic32c/8.3.1/../../../../pic32c/lib/thumb/v7e-m+fp/hard\libpic32c.a(_read.o)
 .debug_aranges
                0x00002eb8       0x20 c:/program files/microchip/xc32/v3.01/bin/bin/../../lib/gcc/pic32c/8.3.1/../../../../pic32c/lib/thumb/v7e-m+fp/hard\libpic32c.a(sbrk.o)
 .debug_aranges
                0x00002ed8       0x20 c:/program files/microchip/xc32/v3.01/bin/bin/../../lib/gcc/pic32c/8.3.1/../../../../pic32c/lib/thumb/v7e-m+fp/hard\libpic32c.a(_write.o)
 .debug_aranges
                0x00002ef8       0x20 c:/program files/microchip/xc32/v3.01/bin/bin/../../lib/gcc/pic32c/8.3.1/../../../../pic32c/lib/thumb/v7e-m+fp/hard\libpic32c.a(close.o)
 .debug_aranges
                0x00002f18       0x20 c:/program files/microchip/xc32/v3.01/bin/bin/../../lib/gcc/pic32c/8.3.1/../../../../pic32c/lib/thumb/v7e-m+fp/hard\libpic32c.a(fstat.o)
 .debug_aranges
                0x00002f38       0x20 c:/program files/microchip/xc32/v3.01/bin/bin/../../lib/gcc/pic32c/8.3.1/../../../../pic32c/lib/thumb/v7e-m+fp/hard\libpic32c.a(getpid.o)
 .debug_aranges
                0x00002f58       0x20 c:/program files/microchip/xc32/v3.01/bin/bin/../../lib/gcc/pic32c/8.3.1/../../../../pic32c/lib/thumb/v7e-m+fp/hard\libpic32c.a(isatty.o)
 .debug_aranges
                0x00002f78       0x20 c:/program files/microchip/xc32/v3.01/bin/bin/../../lib/gcc/pic32c/8.3.1/../../../../pic32c/lib/thumb/v7e-m+fp/hard\libpic32c.a(kill.o)
 .debug_aranges
                0x00002f98       0x20 c:/program files/microchip/xc32/v3.01/bin/bin/../../lib/gcc/pic32c/8.3.1/../../../../pic32c/lib/thumb/v7e-m+fp/hard\libpic32c.a(lseek.o)
 .debug_aranges
                0x00002fb8       0x20 c:/program files/microchip/xc32/v3.01/bin/bin/../../lib/gcc/pic32c/8.3.1/../../../../pic32c/lib/thumb/v7e-m+fp/hard\libpic32c.a(read.o)
 .debug_aranges
                0x00002fd8       0x20 c:/program files/microchip/xc32/v3.01/bin/bin/../../lib/gcc/pic32c/8.3.1/../../../../pic32c/lib/thumb/v7e-m+fp/hard\libpic32c.a(write.o)
 .debug_aranges
                0x00002ff8       0x20 c:/program files/microchip/xc32/v3.01/bin/bin/../../lib/gcc/pic32c/8.3.1/thumb/v7e-m+fp/hard\libgcc.a(_arm_unorddf2.o)
 .debug_aranges
                0x00003018       0x20 c:/program files/microchip/xc32/v3.01/bin/bin/../../lib/gcc/pic32c/8.3.1/thumb/v7e-m+fp/hard\libgcc.a(_arm_fixdfsi.o)

.debug_ranges   0x00000000     0x57e8
 .debug_ranges  0x00000000      0x1c0 build/FreeRTOS/production/_ext/1609394304/crypto.o
 .debug_ranges  0x000001c0      0x310 build/FreeRTOS/production/_ext/1231519722/drv_ethphy.o
 .debug_ranges  0x000004d0       0x48 build/FreeRTOS/production/_ext/1231519722/drv_extphy_lan867x.o
 .debug_ranges  0x00000518      0x358 build/FreeRTOS/production/_ext/41526634/drv_gmac.o
 .debug_ranges  0x00000870      0x288 build/FreeRTOS/production/_ext/41526634/drv_gmac_lib_samE5x.o
 .debug_ranges  0x00000af8      0x2a8 build/FreeRTOS/production/_ext/1149484450/drv_miim.o
 .debug_ranges  0x00000da0       0x50 build/FreeRTOS/production/_ext/540595297/helpers.o
 .debug_ranges  0x00000df0       0xf0 build/FreeRTOS/production/_ext/540595297/icmp.o
 .debug_ranges  0x00000ee0      0x6b0 build/FreeRTOS/production/_ext/540595297/tcp.o
 .debug_ranges  0x00001590      0x498 build/FreeRTOS/production/_ext/540595297/arp.o
 .debug_ranges  0x00001a28      0x1c8 build/FreeRTOS/production/_ext/540595297/tcpip_commands.o
 .debug_ranges  0x00001bf0      0x2c8 build/FreeRTOS/production/_ext/540595297/iperf.o
 .debug_ranges  0x00001eb8      0x2b8 build/FreeRTOS/production/_ext/540595297/ipv4.o
 .debug_ranges  0x00002170       0x38 build/FreeRTOS/production/_ext/540595297/tcpip_heap_alloc.o
 .debug_ranges  0x000021a8      0x100 build/FreeRTOS/production/_ext/540595297/tcpip_heap_internal.o
 .debug_ranges  0x000022a8      0x548 build/FreeRTOS/production/_ext/540595297/dhcp.o
 .debug_ranges  0x000027f0      0x318 build/FreeRTOS/production/_ext/540595297/dns.o
 .debug_ranges  0x00002b08       0x18 build/FreeRTOS/production/_ext/540595297/hash_fnv.o
 .debug_ranges  0x00002b20       0x40 build/FreeRTOS/production/_ext/540595297/oahash.o
 .debug_ranges  0x00002b60      0x298 build/FreeRTOS/production/_ext/540595297/tcpip_helpers.o
 .debug_ranges  0x00002df8      0x9b8 build/FreeRTOS/production/_ext/540595297/tcpip_manager.o
 .debug_ranges  0x000037b0       0x38 build/FreeRTOS/production/_ext/540595297/tcpip_notify.o
 .debug_ranges  0x000037e8       0xd8 build/FreeRTOS/production/_ext/540595297/tcpip_packet.o
 .debug_ranges  0x000038c0      0x4a8 build/FreeRTOS/production/_ext/540595297/udp.o
 .debug_ranges  0x00003d68       0x80 build/FreeRTOS/production/_ext/891571577/osal_freertos.o
 .debug_ranges  0x00003de8       0x10 build/FreeRTOS/production/_ext/892004133/plib_clock.o
 .debug_ranges  0x00003df8       0x10 build/FreeRTOS/production/_ext/894153619/plib_evsys.o
 .debug_ranges  0x00003e08       0x28 build/FreeRTOS/production/_ext/1494909205/plib_nvic.o
 .debug_ranges  0x00003e30       0xb0 build/FreeRTOS/production/_ext/320424729/plib_nvmctrl.o
 .debug_ranges  0x00003ee0       0x60 build/FreeRTOS/production/_ext/1494856054/plib_port.o
 .debug_ranges  0x00003f40      0x1a0 build/FreeRTOS/production/_ext/2092608928/plib_sercom1_usart.o
 .debug_ranges  0x000040e0       0x68 build/FreeRTOS/production/_ext/579449528/plib_tc0.o
 .debug_ranges  0x00004148       0x18 build/FreeRTOS/production/_ext/1872641887/xc32_monitor.o
 .debug_ranges  0x00004160      0x180 build/FreeRTOS/production/_ext/1005353002/sys_command.o
 .debug_ranges  0x000042e0       0x60 build/FreeRTOS/production/_ext/548640822/sys_console_uart.o
 .debug_ranges  0x00004340       0x78 build/FreeRTOS/production/_ext/548640822/sys_console.o
 .debug_ranges  0x000043b8       0x38 build/FreeRTOS/production/_ext/147610190/sys_debug.o
 .debug_ranges  0x000043f0       0x30 build/FreeRTOS/production/_ext/1690414130/sys_int.o
 .debug_ranges  0x00004420       0x10 build/FreeRTOS/production/_ext/1093154855/sys_reset.o
 .debug_ranges  0x00004430      0x168 build/FreeRTOS/production/_ext/832704728/sys_time.o
 .debug_ranges  0x00004598       0x30 build/FreeRTOS/production/_ext/2072568807/sys_time_h2_adapter.o
 .debug_ranges  0x000045c8       0x50 build/FreeRTOS/production/_ext/2072568807/sys_random_h2_adapter.o
 .debug_ranges  0x00004618       0x30 build/FreeRTOS/production/_ext/161576091/tasks.o
 .debug_ranges  0x00004648       0x18 build/FreeRTOS/production/_ext/161576091/initialization.o
 .debug_ranges  0x00004660       0x10 build/FreeRTOS/production/_ext/161576091/interrupts.o
 .debug_ranges  0x00004670       0x38 build/FreeRTOS/production/_ext/161576091/exceptions.o
 .debug_ranges  0x000046a8       0x18 build/FreeRTOS/production/_ext/161576091/startup_xc32.o
 .debug_ranges  0x000046c0       0x10 build/FreeRTOS/production/_ext/161576091/libc_syscalls.o
 .debug_ranges  0x000046d0       0x30 build/FreeRTOS/production/_ext/161576091/freertos_hooks.o
 .debug_ranges  0x00004700       0x68 build/FreeRTOS/production/_ext/246609638/port.o
 .debug_ranges  0x00004768       0x28 build/FreeRTOS/production/_ext/1665200909/heap_1.o
 .debug_ranges  0x00004790       0x30 build/FreeRTOS/production/_ext/404212886/list.o
 .debug_ranges  0x000047c0      0x180 build/FreeRTOS/production/_ext/404212886/queue.o
 .debug_ranges  0x00004940      0x280 build/FreeRTOS/production/_ext/404212886/FreeRTOS_tasks.o
 .debug_ranges  0x00004bc0       0x18 build/FreeRTOS/production/_ext/172253694/crypt_wolfcryptcb.o
 .debug_ranges  0x00004bd8      0x1b8 build/FreeRTOS/production/_ext/1664057780/cryptocb.o
 .debug_ranges  0x00004d90       0x70 build/FreeRTOS/production/_ext/1664057780/md5.o
 .debug_ranges  0x00004e00      0x1e8 build/FreeRTOS/production/_ext/1664057780/random.o
 .debug_ranges  0x00004fe8      0x400 build/FreeRTOS/production/_ext/1664057780/sha256.o
 .debug_ranges  0x000053e8       0x30 build/FreeRTOS/production/_ext/1360937237/app.o
 .debug_ranges  0x00005418       0x10 build/FreeRTOS/production/_ext/1360937237/main.o
 .debug_ranges  0x00005428       0x50 build/FreeRTOS/production/_ext/1428073114/plib_sercom0_spi_master.o
 .debug_ranges  0x00005478       0x60 build/FreeRTOS/production/_ext/1434865757/gfx_mono_framebuffer.o
 .debug_ranges  0x000054d8       0x48 build/FreeRTOS/production/_ext/1434865757/gfx_mono_generic.o
 .debug_ranges  0x00005520       0x48 build/FreeRTOS/production/_ext/1434865757/gfx_mono_text.o
 .debug_ranges  0x00005568       0x68 build/FreeRTOS/production/_ext/1434865757/gfx_mono_ug_2832hsweg04.o
 .debug_ranges  0x000055d0       0x20 build/FreeRTOS/production/_ext/1434865757/gfx_ssd1306.o
 .debug_ranges  0x000055f0       0x10 c:/program files/microchip/xc32/v3.01/bin/bin/../../lib/gcc/pic32c/8.3.1/../../../../pic32c/lib/thumb/v7e-m+fp/hard\libpic32c.a(data_init.o)
 .debug_ranges  0x00005600       0xd8 c:/program files/microchip/xc32/v3.01/bin/bin/../../lib/gcc/pic32c/8.3.1/thumb/v7e-m+fp/hard\libgcc.a(_udivmoddi4.o)
 .debug_ranges  0x000056d8       0x10 c:/program files/microchip/xc32/v3.01/bin/bin/../../lib/gcc/pic32c/8.3.1/../../../../pic32c/lib/thumb/v7e-m+fp/hard\libpic32c.a(_close.o)
 .debug_ranges  0x000056e8       0x10 c:/program files/microchip/xc32/v3.01/bin/bin/../../lib/gcc/pic32c/8.3.1/../../../../pic32c/lib/thumb/v7e-m+fp/hard\libpic32c.a(_fstat.o)
 .debug_ranges  0x000056f8       0x10 c:/program files/microchip/xc32/v3.01/bin/bin/../../lib/gcc/pic32c/8.3.1/../../../../pic32c/lib/thumb/v7e-m+fp/hard\libpic32c.a(_getpid.o)
 .debug_ranges  0x00005708       0x10 c:/program files/microchip/xc32/v3.01/bin/bin/../../lib/gcc/pic32c/8.3.1/../../../../pic32c/lib/thumb/v7e-m+fp/hard\libpic32c.a(_isatty.o)
 .debug_ranges  0x00005718       0x10 c:/program files/microchip/xc32/v3.01/bin/bin/../../lib/gcc/pic32c/8.3.1/../../../../pic32c/lib/thumb/v7e-m+fp/hard\libpic32c.a(_kill.o)
 .debug_ranges  0x00005728       0x10 c:/program files/microchip/xc32/v3.01/bin/bin/../../lib/gcc/pic32c/8.3.1/../../../../pic32c/lib/thumb/v7e-m+fp/hard\libpic32c.a(_lseek.o)
 .debug_ranges  0x00005738       0x10 c:/program files/microchip/xc32/v3.01/bin/bin/../../lib/gcc/pic32c/8.3.1/../../../../pic32c/lib/thumb/v7e-m+fp/hard\libpic32c.a(_read.o)
 .debug_ranges  0x00005748       0x10 c:/program files/microchip/xc32/v3.01/bin/bin/../../lib/gcc/pic32c/8.3.1/../../../../pic32c/lib/thumb/v7e-m+fp/hard\libpic32c.a(sbrk.o)
 .debug_ranges  0x00005758       0x10 c:/program files/microchip/xc32/v3.01/bin/bin/../../lib/gcc/pic32c/8.3.1/../../../../pic32c/lib/thumb/v7e-m+fp/hard\libpic32c.a(_write.o)
 .debug_ranges  0x00005768       0x10 c:/program files/microchip/xc32/v3.01/bin/bin/../../lib/gcc/pic32c/8.3.1/../../../../pic32c/lib/thumb/v7e-m+fp/hard\libpic32c.a(close.o)
 .debug_ranges  0x00005778       0x10 c:/program files/microchip/xc32/v3.01/bin/bin/../../lib/gcc/pic32c/8.3.1/../../../../pic32c/lib/thumb/v7e-m+fp/hard\libpic32c.a(fstat.o)
 .debug_ranges  0x00005788       0x10 c:/program files/microchip/xc32/v3.01/bin/bin/../../lib/gcc/pic32c/8.3.1/../../../../pic32c/lib/thumb/v7e-m+fp/hard\libpic32c.a(getpid.o)
 .debug_ranges  0x00005798       0x10 c:/program files/microchip/xc32/v3.01/bin/bin/../../lib/gcc/pic32c/8.3.1/../../../../pic32c/lib/thumb/v7e-m+fp/hard\libpic32c.a(isatty.o)
 .debug_ranges  0x000057a8       0x10 c:/program files/microchip/xc32/v3.01/bin/bin/../../lib/gcc/pic32c/8.3.1/../../../../pic32c/lib/thumb/v7e-m+fp/hard\libpic32c.a(kill.o)
 .debug_ranges  0x000057b8       0x10 c:/program files/microchip/xc32/v3.01/bin/bin/../../lib/gcc/pic32c/8.3.1/../../../../pic32c/lib/thumb/v7e-m+fp/hard\libpic32c.a(lseek.o)
 .debug_ranges  0x000057c8       0x10 c:/program files/microchip/xc32/v3.01/bin/bin/../../lib/gcc/pic32c/8.3.1/../../../../pic32c/lib/thumb/v7e-m+fp/hard\libpic32c.a(read.o)
 .debug_ranges  0x000057d8       0x10 c:/program files/microchip/xc32/v3.01/bin/bin/../../lib/gcc/pic32c/8.3.1/../../../../pic32c/lib/thumb/v7e-m+fp/hard\libpic32c.a(write.o)

.debug_line     0x00000000    0x38491
 .debug_line    0x00000000      0xe40 build/FreeRTOS/production/_ext/1609394304/crypto.o
 .debug_line    0x00000e40     0x24d3 build/FreeRTOS/production/_ext/1231519722/drv_ethphy.o
 .debug_line    0x00003313      0x9d6 build/FreeRTOS/production/_ext/1231519722/drv_extphy_lan867x.o
 .debug_line    0x00003ce9     0x2054 build/FreeRTOS/production/_ext/41526634/drv_gmac.o
 .debug_line    0x00005d3d     0x19e2 build/FreeRTOS/production/_ext/41526634/drv_gmac_lib_samE5x.o
 .debug_line    0x0000771f     0x1381 build/FreeRTOS/production/_ext/1149484450/drv_miim.o
 .debug_line    0x00008aa0      0x409 build/FreeRTOS/production/_ext/540595297/helpers.o
 .debug_line    0x00008ea9      0xaf7 build/FreeRTOS/production/_ext/540595297/icmp.o
 .debug_line    0x000099a0     0x487a build/FreeRTOS/production/_ext/540595297/tcp.o
 .debug_line    0x0000e21a     0x1b66 build/FreeRTOS/production/_ext/540595297/arp.o
 .debug_line    0x0000fd80     0x1f7f build/FreeRTOS/production/_ext/540595297/tcpip_commands.o
 .debug_line    0x00011cff     0x2344 build/FreeRTOS/production/_ext/540595297/iperf.o
 .debug_line    0x00014043     0x1a2e build/FreeRTOS/production/_ext/540595297/ipv4.o
 .debug_line    0x00015a71      0x3b5 build/FreeRTOS/production/_ext/540595297/tcpip_heap_alloc.o
 .debug_line    0x00015e26      0xa0b build/FreeRTOS/production/_ext/540595297/tcpip_heap_internal.o
 .debug_line    0x00016831     0x26c9 build/FreeRTOS/production/_ext/540595297/dhcp.o
 .debug_line    0x00018efa     0x1f45 build/FreeRTOS/production/_ext/540595297/dns.o
 .debug_line    0x0001ae3f      0x239 build/FreeRTOS/production/_ext/540595297/hash_fnv.o
 .debug_line    0x0001b078      0x4da build/FreeRTOS/production/_ext/540595297/oahash.o
 .debug_line    0x0001b552     0x204d build/FreeRTOS/production/_ext/540595297/tcpip_helpers.o
 .debug_line    0x0001d59f     0x39fb build/FreeRTOS/production/_ext/540595297/tcpip_manager.o
 .debug_line    0x00020f9a      0x503 build/FreeRTOS/production/_ext/540595297/tcpip_notify.o
 .debug_line    0x0002149d      0x8d2 build/FreeRTOS/production/_ext/540595297/tcpip_packet.o
 .debug_line    0x00021d6f     0x2b51 build/FreeRTOS/production/_ext/540595297/udp.o
 .debug_line    0x000248c0      0x4e5 build/FreeRTOS/production/_ext/891571577/osal_freertos.o
 .debug_line    0x00024da5      0x303 build/FreeRTOS/production/_ext/892004133/plib_clock.o
 .debug_line    0x000250a8      0x132 build/FreeRTOS/production/_ext/894153619/plib_evsys.o
 .debug_line    0x000251da      0x53e build/FreeRTOS/production/_ext/1494909205/plib_nvic.o
 .debug_line    0x00025718      0x597 build/FreeRTOS/production/_ext/320424729/plib_nvmctrl.o
 .debug_line    0x00025caf      0x408 build/FreeRTOS/production/_ext/1494856054/plib_port.o
 .debug_line    0x000260b7      0xbaa build/FreeRTOS/production/_ext/2092608928/plib_sercom1_usart.o
 .debug_line    0x00026c61      0x3bd build/FreeRTOS/production/_ext/579449528/plib_tc0.o
 .debug_line    0x0002701e       0x7e build/FreeRTOS/production/_ext/1872641887/xc32_monitor.o
 .debug_line    0x0002709c     0x1071 build/FreeRTOS/production/_ext/1005353002/sys_command.o
 .debug_line    0x0002810d      0x735 build/FreeRTOS/production/_ext/548640822/sys_console_uart.o
 .debug_line    0x00028842      0x75f build/FreeRTOS/production/_ext/548640822/sys_console.o
 .debug_line    0x00028fa1      0x312 build/FreeRTOS/production/_ext/147610190/sys_debug.o
 .debug_line    0x000292b3      0x30c build/FreeRTOS/production/_ext/1690414130/sys_int.o
 .debug_line    0x000295bf      0x17f build/FreeRTOS/production/_ext/1093154855/sys_reset.o
 .debug_line    0x0002973e     0x12ef build/FreeRTOS/production/_ext/832704728/sys_time.o
 .debug_line    0x0002aa2d      0x24e build/FreeRTOS/production/_ext/2072568807/sys_time_h2_adapter.o
 .debug_line    0x0002ac7b      0x33b build/FreeRTOS/production/_ext/2072568807/sys_random_h2_adapter.o
 .debug_line    0x0002afb6      0x50a build/FreeRTOS/production/_ext/161576091/tasks.o
 .debug_line    0x0002b4c0      0x864 build/FreeRTOS/production/_ext/161576091/initialization.o
 .debug_line    0x0002bd24      0x3a0 build/FreeRTOS/production/_ext/161576091/interrupts.o
 .debug_line    0x0002c0c4      0x3f9 build/FreeRTOS/production/_ext/161576091/exceptions.o
 .debug_line    0x0002c4bd      0x2b7 build/FreeRTOS/production/_ext/161576091/startup_xc32.o
 .debug_line    0x0002c774      0x1d6 build/FreeRTOS/production/_ext/161576091/libc_syscalls.o
 .debug_line    0x0002c94a      0x22e build/FreeRTOS/production/_ext/161576091/freertos_hooks.o
 .debug_line    0x0002cb78      0x3b2 build/FreeRTOS/production/_ext/246609638/port.o
 .debug_line    0x0002cf2a      0x2d8 build/FreeRTOS/production/_ext/1665200909/heap_1.o
 .debug_line    0x0002d202      0x3d2 build/FreeRTOS/production/_ext/404212886/list.o
 .debug_line    0x0002d5d4      0xf89 build/FreeRTOS/production/_ext/404212886/queue.o
 .debug_line    0x0002e55d     0x181e build/FreeRTOS/production/_ext/404212886/FreeRTOS_tasks.o
 .debug_line    0x0002fd7b      0x2fe build/FreeRTOS/production/_ext/172253694/crypt_wolfcryptcb.o
 .debug_line    0x00030079     0x104d build/FreeRTOS/production/_ext/1664057780/cryptocb.o
 .debug_line    0x000310c6      0xce7 build/FreeRTOS/production/_ext/1664057780/md5.o
 .debug_line    0x00031dad     0x1100 build/FreeRTOS/production/_ext/1664057780/random.o
 .debug_line    0x00032ead     0x1383 build/FreeRTOS/production/_ext/1664057780/sha256.o
 .debug_line    0x00034230      0x62a build/FreeRTOS/production/_ext/1360937237/app.o
 .debug_line    0x0003485a      0x38f build/FreeRTOS/production/_ext/1360937237/main.o
 .debug_line    0x00034be9      0x796 build/FreeRTOS/production/_ext/1428073114/plib_sercom0_spi_master.o
 .debug_line    0x0003537f      0x375 build/FreeRTOS/production/_ext/1434865757/gfx_mono_framebuffer.o
 .debug_line    0x000356f4      0x61a build/FreeRTOS/production/_ext/1434865757/gfx_mono_generic.o
 .debug_line    0x00035d0e      0x4b5 build/FreeRTOS/production/_ext/1434865757/gfx_mono_text.o
 .debug_line    0x000361c3      0x454 build/FreeRTOS/production/_ext/1434865757/gfx_mono_ug_2832hsweg04.o
 .debug_line    0x00036617      0x369 build/FreeRTOS/production/_ext/1434865757/gfx_ssd1306.o
 .debug_line    0x00036980      0x153 build/FreeRTOS/production/_ext/1434865757/gfx_sysfont.o
 .debug_line    0x00036ad3      0x110 c:/program files/microchip/xc32/v3.01/bin/bin/../../lib/gcc/pic32c/8.3.1/../../../../pic32c/lib/thumb/v7e-m+fp/hard\libpic32c.a(data_init.o)
 .debug_line    0x00036be3      0x1c1 c:/program files/microchip/xc32/v3.01/bin/bin/../../lib/gcc/pic32c/8.3.1/thumb/v7e-m+fp/hard\libgcc.a(_arm_addsubdf3.o)
 .debug_line    0x00036da4      0x1da c:/program files/microchip/xc32/v3.01/bin/bin/../../lib/gcc/pic32c/8.3.1/thumb/v7e-m+fp/hard\libgcc.a(_arm_muldivdf3.o)
 .debug_line    0x00036f7e       0xf9 c:/program files/microchip/xc32/v3.01/bin/bin/../../lib/gcc/pic32c/8.3.1/thumb/v7e-m+fp/hard\libgcc.a(_arm_cmpdf2.o)
 .debug_line    0x00037077       0xb1 c:/program files/microchip/xc32/v3.01/bin/bin/../../lib/gcc/pic32c/8.3.1/thumb/v7e-m+fp/hard\libgcc.a(_arm_fixunsdfsi.o)
 .debug_line    0x00037128       0x9c c:/program files/microchip/xc32/v3.01/bin/bin/../../lib/gcc/pic32c/8.3.1/thumb/v7e-m+fp/hard\libgcc.a(_aeabi_uldivmod.o)
 .debug_line    0x000371c4      0x57e c:/program files/microchip/xc32/v3.01/bin/bin/../../lib/gcc/pic32c/8.3.1/thumb/v7e-m+fp/hard\libgcc.a(_udivmoddi4.o)
 .debug_line    0x00037742       0x9c c:/program files/microchip/xc32/v3.01/bin/bin/../../lib/gcc/pic32c/8.3.1/thumb/v7e-m+fp/hard\libgcc.a(_dvmd_tls.o)
 .debug_line    0x000377de       0x9f c:/program files/microchip/xc32/v3.01/bin/bin/../../lib/gcc/pic32c/8.3.1/../../../../pic32c/lib/thumb/v7e-m+fp/hard\libpic32c.a(_close.o)
 .debug_line    0x0003787d       0x9f c:/program files/microchip/xc32/v3.01/bin/bin/../../lib/gcc/pic32c/8.3.1/../../../../pic32c/lib/thumb/v7e-m+fp/hard\libpic32c.a(_fstat.o)
 .debug_line    0x0003791c       0xa0 c:/program files/microchip/xc32/v3.01/bin/bin/../../lib/gcc/pic32c/8.3.1/../../../../pic32c/lib/thumb/v7e-m+fp/hard\libpic32c.a(_getpid.o)
 .debug_line    0x000379bc       0xa0 c:/program files/microchip/xc32/v3.01/bin/bin/../../lib/gcc/pic32c/8.3.1/../../../../pic32c/lib/thumb/v7e-m+fp/hard\libpic32c.a(_isatty.o)
 .debug_line    0x00037a5c       0x9e c:/program files/microchip/xc32/v3.01/bin/bin/../../lib/gcc/pic32c/8.3.1/../../../../pic32c/lib/thumb/v7e-m+fp/hard\libpic32c.a(_kill.o)
 .debug_line    0x00037afa       0x9f c:/program files/microchip/xc32/v3.01/bin/bin/../../lib/gcc/pic32c/8.3.1/../../../../pic32c/lib/thumb/v7e-m+fp/hard\libpic32c.a(_lseek.o)
 .debug_line    0x00037b99       0x9e c:/program files/microchip/xc32/v3.01/bin/bin/../../lib/gcc/pic32c/8.3.1/../../../../pic32c/lib/thumb/v7e-m+fp/hard\libpic32c.a(_read.o)
 .debug_line    0x00037c37       0xb5 c:/program files/microchip/xc32/v3.01/bin/bin/../../lib/gcc/pic32c/8.3.1/../../../../pic32c/lib/thumb/v7e-m+fp/hard\libpic32c.a(sbrk.o)
 .debug_line    0x00037cec       0x9f c:/program files/microchip/xc32/v3.01/bin/bin/../../lib/gcc/pic32c/8.3.1/../../../../pic32c/lib/thumb/v7e-m+fp/hard\libpic32c.a(_write.o)
 .debug_line    0x00037d8b       0x9e c:/program files/microchip/xc32/v3.01/bin/bin/../../lib/gcc/pic32c/8.3.1/../../../../pic32c/lib/thumb/v7e-m+fp/hard\libpic32c.a(close.o)
 .debug_line    0x00037e29      0x106 c:/program files/microchip/xc32/v3.01/bin/bin/../../lib/gcc/pic32c/8.3.1/../../../../pic32c/lib/thumb/v7e-m+fp/hard\libpic32c.a(fstat.o)
 .debug_line    0x00037f2f       0x9d c:/program files/microchip/xc32/v3.01/bin/bin/../../lib/gcc/pic32c/8.3.1/../../../../pic32c/lib/thumb/v7e-m+fp/hard\libpic32c.a(getpid.o)
 .debug_line    0x00037fcc       0x9d c:/program files/microchip/xc32/v3.01/bin/bin/../../lib/gcc/pic32c/8.3.1/../../../../pic32c/lib/thumb/v7e-m+fp/hard\libpic32c.a(isatty.o)
 .debug_line    0x00038069       0x9b c:/program files/microchip/xc32/v3.01/bin/bin/../../lib/gcc/pic32c/8.3.1/../../../../pic32c/lib/thumb/v7e-m+fp/hard\libpic32c.a(kill.o)
 .debug_line    0x00038104       0x9e c:/program files/microchip/xc32/v3.01/bin/bin/../../lib/gcc/pic32c/8.3.1/../../../../pic32c/lib/thumb/v7e-m+fp/hard\libpic32c.a(lseek.o)
 .debug_line    0x000381a2       0xc0 c:/program files/microchip/xc32/v3.01/bin/bin/../../lib/gcc/pic32c/8.3.1/../../../../pic32c/lib/thumb/v7e-m+fp/hard\libpic32c.a(read.o)
 .debug_line    0x00038262       0xd0 c:/program files/microchip/xc32/v3.01/bin/bin/../../lib/gcc/pic32c/8.3.1/../../../../pic32c/lib/thumb/v7e-m+fp/hard\libpic32c.a(write.o)
 .debug_line    0x00038332       0xaa c:/program files/microchip/xc32/v3.01/bin/bin/../../lib/gcc/pic32c/8.3.1/thumb/v7e-m+fp/hard\libgcc.a(_arm_unorddf2.o)
 .debug_line    0x000383dc       0xb5 c:/program files/microchip/xc32/v3.01/bin/bin/../../lib/gcc/pic32c/8.3.1/thumb/v7e-m+fp/hard\libgcc.a(_arm_fixdfsi.o)

.debug_str      0x00000000     0x6f2e
 .debug_str     0x00000000      0x456 build/FreeRTOS/production/_ext/1609394304/crypto.o
 .debug_str     0x00000456      0x486 build/FreeRTOS/production/_ext/1231519722/drv_ethphy.o
 .debug_str     0x000008dc       0xc8 build/FreeRTOS/production/_ext/1231519722/drv_extphy_lan867x.o
 .debug_str     0x000009a4      0x63c build/FreeRTOS/production/_ext/41526634/drv_gmac.o
 .debug_str     0x00000fe0      0x22c build/FreeRTOS/production/_ext/41526634/drv_gmac_lib_samE5x.o
 .debug_str     0x0000120c      0x257 build/FreeRTOS/production/_ext/1149484450/drv_miim.o
 .debug_str     0x00001463        0xe build/FreeRTOS/production/_ext/540595297/helpers.o
 .debug_str     0x00001471      0x32a build/FreeRTOS/production/_ext/540595297/icmp.o
 .debug_str     0x0000179b      0x4fb build/FreeRTOS/production/_ext/540595297/tcp.o
 .debug_str     0x00001c96      0x4c6 build/FreeRTOS/production/_ext/540595297/arp.o
 .debug_str     0x0000215c      0x7d6 build/FreeRTOS/production/_ext/540595297/tcpip_commands.o
 .debug_str     0x00002932      0x522 build/FreeRTOS/production/_ext/540595297/iperf.o
 .debug_str     0x00002e54      0x591 build/FreeRTOS/production/_ext/540595297/ipv4.o
 .debug_str     0x000033e5       0x6d build/FreeRTOS/production/_ext/540595297/tcpip_heap_alloc.o
 .debug_str     0x00003452       0x90 build/FreeRTOS/production/_ext/540595297/tcpip_heap_internal.o
 .debug_str     0x000034e2      0x68b build/FreeRTOS/production/_ext/540595297/dhcp.o
 .debug_str     0x00003b6d      0x4e2 build/FreeRTOS/production/_ext/540595297/dns.o
 .debug_str     0x0000404f        0xe build/FreeRTOS/production/_ext/540595297/hash_fnv.o
 .debug_str     0x0000405d       0x18 build/FreeRTOS/production/_ext/540595297/oahash.o
 .debug_str     0x00004075      0x114 build/FreeRTOS/production/_ext/540595297/tcpip_helpers.o
 .debug_str     0x00004189      0x599 build/FreeRTOS/production/_ext/540595297/tcpip_manager.o
 .debug_str     0x00004722      0x16c build/FreeRTOS/production/_ext/540595297/tcpip_notify.o
 .debug_str     0x0000488e       0x8b build/FreeRTOS/production/_ext/540595297/tcpip_packet.o
 .debug_str     0x00004919      0x40a build/FreeRTOS/production/_ext/540595297/udp.o
 .debug_str     0x00004d23      0x13b build/FreeRTOS/production/_ext/891571577/osal_freertos.o
 .debug_str     0x00004e5e       0x1e build/FreeRTOS/production/_ext/892004133/plib_clock.o
 .debug_str     0x00004e7c        0x0 build/FreeRTOS/production/_ext/894153619/plib_evsys.o
 .debug_str     0x00004e7c        0xa build/FreeRTOS/production/_ext/1494909205/plib_nvic.o
 .debug_str     0x00004e86       0x29 build/FreeRTOS/production/_ext/320424729/plib_nvmctrl.o
 .debug_str     0x00004eaf        0xb build/FreeRTOS/production/_ext/1494856054/plib_port.o
 .debug_str     0x00004eba      0x1c8 build/FreeRTOS/production/_ext/2092608928/plib_sercom1_usart.o
 .debug_str     0x00005082       0xbb build/FreeRTOS/production/_ext/579449528/plib_tc0.o
 .debug_str     0x0000513d        0x0 build/FreeRTOS/production/_ext/1872641887/xc32_monitor.o
 .debug_str     0x0000513d       0xd9 build/FreeRTOS/production/_ext/1005353002/sys_command.o
 .debug_str     0x00005216       0xdf build/FreeRTOS/production/_ext/548640822/sys_console_uart.o
 .debug_str     0x000052f5       0x66 build/FreeRTOS/production/_ext/548640822/sys_console.o
 .debug_str     0x0000535b        0xe build/FreeRTOS/production/_ext/147610190/sys_debug.o
 .debug_str     0x00005369       0x32 build/FreeRTOS/production/_ext/1690414130/sys_int.o
 .debug_str     0x0000539b        0x0 build/FreeRTOS/production/_ext/1093154855/sys_reset.o
 .debug_str     0x0000539b      0x16e build/FreeRTOS/production/_ext/832704728/sys_time.o
 .debug_str     0x00005509       0x64 build/FreeRTOS/production/_ext/2072568807/sys_time_h2_adapter.o
 .debug_str     0x0000556d       0x57 build/FreeRTOS/production/_ext/2072568807/sys_random_h2_adapter.o
 .debug_str     0x000055c4       0x9c build/FreeRTOS/production/_ext/161576091/tasks.o
 .debug_str     0x00005660      0x2a1 build/FreeRTOS/production/_ext/161576091/initialization.o
 .debug_str     0x00005901       0x2c build/FreeRTOS/production/_ext/161576091/interrupts.o
 .debug_str     0x0000592d       0x2c build/FreeRTOS/production/_ext/161576091/exceptions.o
 .debug_str     0x00005959       0x2f build/FreeRTOS/production/_ext/161576091/startup_xc32.o
 .debug_str     0x00005988        0xe build/FreeRTOS/production/_ext/161576091/libc_syscalls.o
 .debug_str     0x00005996       0x25 build/FreeRTOS/production/_ext/161576091/freertos_hooks.o
 .debug_str     0x000059bb       0x26 build/FreeRTOS/production/_ext/246609638/port.o
 .debug_str     0x000059e1       0x4a build/FreeRTOS/production/_ext/1665200909/heap_1.o
 .debug_str     0x00005a2b       0x39 build/FreeRTOS/production/_ext/404212886/list.o
 .debug_str     0x00005a64      0x28d build/FreeRTOS/production/_ext/404212886/queue.o
 .debug_str     0x00005cf1      0x283 build/FreeRTOS/production/_ext/404212886/FreeRTOS_tasks.o
 .debug_str     0x00005f74       0xa6 build/FreeRTOS/production/_ext/172253694/crypt_wolfcryptcb.o
 .debug_str     0x0000601a       0xeb build/FreeRTOS/production/_ext/1664057780/cryptocb.o
 .debug_str     0x00006105        0xe build/FreeRTOS/production/_ext/1664057780/md5.o
 .debug_str     0x00006113       0xfa build/FreeRTOS/production/_ext/1664057780/random.o
 .debug_str     0x0000620d       0x50 build/FreeRTOS/production/_ext/1664057780/sha256.o
 .debug_str     0x0000625d       0xa7 build/FreeRTOS/production/_ext/1360937237/app.o
 .debug_str     0x00006304       0x45 build/FreeRTOS/production/_ext/1360937237/main.o
 .debug_str     0x00006349      0x149 build/FreeRTOS/production/_ext/1428073114/plib_sercom0_spi_master.o
 .debug_str     0x00006492       0x72 build/FreeRTOS/production/_ext/1434865757/gfx_mono_framebuffer.o
 .debug_str     0x00006504       0xae build/FreeRTOS/production/_ext/1434865757/gfx_mono_generic.o
 .debug_str     0x000065b2       0xb2 build/FreeRTOS/production/_ext/1434865757/gfx_mono_text.o
 .debug_str     0x00006664       0xe6 build/FreeRTOS/production/_ext/1434865757/gfx_mono_ug_2832hsweg04.o
 .debug_str     0x0000674a       0x52 build/FreeRTOS/production/_ext/1434865757/gfx_ssd1306.o
 .debug_str     0x0000679c        0x0 build/FreeRTOS/production/_ext/1434865757/gfx_sysfont.o
 .debug_str     0x0000679c        0x0 c:/program files/microchip/xc32/v3.01/bin/bin/../../lib/gcc/pic32c/8.3.1/../../../../pic32c/lib/thumb/v7e-m+fp/hard\libpic32c.a(data_init.o)
 .debug_str     0x0000679c       0xf3 c:/program files/microchip/xc32/v3.01/bin/bin/../../lib/gcc/pic32c/8.3.1/thumb/v7e-m+fp/hard\libgcc.a(_arm_addsubdf3.o)
 .debug_str     0x0000688f       0xf3 c:/program files/microchip/xc32/v3.01/bin/bin/../../lib/gcc/pic32c/8.3.1/thumb/v7e-m+fp/hard\libgcc.a(_arm_muldivdf3.o)
 .debug_str     0x00006982       0xf3 c:/program files/microchip/xc32/v3.01/bin/bin/../../lib/gcc/pic32c/8.3.1/thumb/v7e-m+fp/hard\libgcc.a(_arm_cmpdf2.o)
 .debug_str     0x00006a75       0xf3 c:/program files/microchip/xc32/v3.01/bin/bin/../../lib/gcc/pic32c/8.3.1/thumb/v7e-m+fp/hard\libgcc.a(_arm_fixunsdfsi.o)
 .debug_str     0x00006b68       0xee c:/program files/microchip/xc32/v3.01/bin/bin/../../lib/gcc/pic32c/8.3.1/thumb/v7e-m+fp/hard\libgcc.a(_aeabi_uldivmod.o)
 .debug_str     0x00006c56        0x0 c:/program files/microchip/xc32/v3.01/bin/bin/../../lib/gcc/pic32c/8.3.1/thumb/v7e-m+fp/hard\libgcc.a(_udivmoddi4.o)
 .debug_str     0x00006c56       0xf2 c:/program files/microchip/xc32/v3.01/bin/bin/../../lib/gcc/pic32c/8.3.1/thumb/v7e-m+fp/hard\libgcc.a(_dvmd_tls.o)
 .debug_str     0x00006d48        0x0 c:/program files/microchip/xc32/v3.01/bin/bin/../../lib/gcc/pic32c/8.3.1/../../../../pic32c/lib/thumb/v7e-m+fp/hard\libpic32c.a(_close.o)
 .debug_str     0x00006d48        0x0 c:/program files/microchip/xc32/v3.01/bin/bin/../../lib/gcc/pic32c/8.3.1/../../../../pic32c/lib/thumb/v7e-m+fp/hard\libpic32c.a(_fstat.o)
 .debug_str     0x00006d48        0x0 c:/program files/microchip/xc32/v3.01/bin/bin/../../lib/gcc/pic32c/8.3.1/../../../../pic32c/lib/thumb/v7e-m+fp/hard\libpic32c.a(_getpid.o)
 .debug_str     0x00006d48        0x0 c:/program files/microchip/xc32/v3.01/bin/bin/../../lib/gcc/pic32c/8.3.1/../../../../pic32c/lib/thumb/v7e-m+fp/hard\libpic32c.a(_isatty.o)
 .debug_str     0x00006d48        0x0 c:/program files/microchip/xc32/v3.01/bin/bin/../../lib/gcc/pic32c/8.3.1/../../../../pic32c/lib/thumb/v7e-m+fp/hard\libpic32c.a(_kill.o)
 .debug_str     0x00006d48        0x0 c:/program files/microchip/xc32/v3.01/bin/bin/../../lib/gcc/pic32c/8.3.1/../../../../pic32c/lib/thumb/v7e-m+fp/hard\libpic32c.a(_lseek.o)
 .debug_str     0x00006d48        0x0 c:/program files/microchip/xc32/v3.01/bin/bin/../../lib/gcc/pic32c/8.3.1/../../../../pic32c/lib/thumb/v7e-m+fp/hard\libpic32c.a(_read.o)
 .debug_str     0x00006d48        0x0 c:/program files/microchip/xc32/v3.01/bin/bin/../../lib/gcc/pic32c/8.3.1/../../../../pic32c/lib/thumb/v7e-m+fp/hard\libpic32c.a(sbrk.o)
 .debug_str     0x00006d48        0x0 c:/program files/microchip/xc32/v3.01/bin/bin/../../lib/gcc/pic32c/8.3.1/../../../../pic32c/lib/thumb/v7e-m+fp/hard\libpic32c.a(_write.o)
 .debug_str     0x00006d48        0x0 c:/program files/microchip/xc32/v3.01/bin/bin/../../lib/gcc/pic32c/8.3.1/../../../../pic32c/lib/thumb/v7e-m+fp/hard\libpic32c.a(close.o)
 .debug_str     0x00006d48        0x0 c:/program files/microchip/xc32/v3.01/bin/bin/../../lib/gcc/pic32c/8.3.1/../../../../pic32c/lib/thumb/v7e-m+fp/hard\libpic32c.a(fstat.o)
 .debug_str     0x00006d48        0x0 c:/program files/microchip/xc32/v3.01/bin/bin/../../lib/gcc/pic32c/8.3.1/../../../../pic32c/lib/thumb/v7e-m+fp/hard\libpic32c.a(getpid.o)
 .debug_str     0x00006d48        0x0 c:/program files/microchip/xc32/v3.01/bin/bin/../../lib/gcc/pic32c/8.3.1/../../../../pic32c/lib/thumb/v7e-m+fp/hard\libpic32c.a(isatty.o)
 .debug_str     0x00006d48        0x0 c:/program files/microchip/xc32/v3.01/bin/bin/../../lib/gcc/pic32c/8.3.1/../../../../pic32c/lib/thumb/v7e-m+fp/hard\libpic32c.a(kill.o)
 .debug_str     0x00006d48        0x0 c:/program files/microchip/xc32/v3.01/bin/bin/../../lib/gcc/pic32c/8.3.1/../../../../pic32c/lib/thumb/v7e-m+fp/hard\libpic32c.a(lseek.o)
 .debug_str     0x00006d48        0x0 c:/program files/microchip/xc32/v3.01/bin/bin/../../lib/gcc/pic32c/8.3.1/../../../../pic32c/lib/thumb/v7e-m+fp/hard\libpic32c.a(read.o)
 .debug_str     0x00006d48        0x0 c:/program files/microchip/xc32/v3.01/bin/bin/../../lib/gcc/pic32c/8.3.1/../../../../pic32c/lib/thumb/v7e-m+fp/hard\libpic32c.a(write.o)
 .debug_str     0x00006d48       0xf3 c:/program files/microchip/xc32/v3.01/bin/bin/../../lib/gcc/pic32c/8.3.1/thumb/v7e-m+fp/hard\libgcc.a(_arm_unorddf2.o)
 .debug_str     0x00006e3b       0xf3 c:/program files/microchip/xc32/v3.01/bin/bin/../../lib/gcc/pic32c/8.3.1/thumb/v7e-m+fp/hard\libgcc.a(_arm_fixdfsi.o)

.debug_frame    0x00000000     0x8cb8
 .debug_frame   0x00000000      0x5f8 build/FreeRTOS/production/_ext/1609394304/crypto.o
 .debug_frame   0x000005f8      0x6d8 build/FreeRTOS/production/_ext/1231519722/drv_ethphy.o
 .debug_frame   0x00000cd0      0x108 build/FreeRTOS/production/_ext/1231519722/drv_extphy_lan867x.o
 .debug_frame   0x00000dd8      0x694 build/FreeRTOS/production/_ext/41526634/drv_gmac.o
 .debug_frame   0x0000146c      0x3d0 build/FreeRTOS/production/_ext/41526634/drv_gmac_lib_samE5x.o
 .debug_frame   0x0000183c      0x2b0 build/FreeRTOS/production/_ext/1149484450/drv_miim.o
 .debug_frame   0x00001aec       0xdc build/FreeRTOS/production/_ext/540595297/helpers.o
 .debug_frame   0x00001bc8      0x148 build/FreeRTOS/production/_ext/540595297/icmp.o
 .debug_frame   0x00001d10      0x7b8 build/FreeRTOS/production/_ext/540595297/tcp.o
 .debug_frame   0x000024c8      0x488 build/FreeRTOS/production/_ext/540595297/arp.o
 .debug_frame   0x00002950      0x364 build/FreeRTOS/production/_ext/540595297/tcpip_commands.o
 .debug_frame   0x00002cb4      0x280 build/FreeRTOS/production/_ext/540595297/iperf.o
 .debug_frame   0x00002f34      0x34c build/FreeRTOS/production/_ext/540595297/ipv4.o
 .debug_frame   0x00003280       0x90 build/FreeRTOS/production/_ext/540595297/tcpip_heap_alloc.o
 .debug_frame   0x00003310      0x12c build/FreeRTOS/production/_ext/540595297/tcpip_heap_internal.o
 .debug_frame   0x0000343c      0x52c build/FreeRTOS/production/_ext/540595297/dhcp.o
 .debug_frame   0x00003968      0x450 build/FreeRTOS/production/_ext/540595297/dns.o
 .debug_frame   0x00003db8       0x30 build/FreeRTOS/production/_ext/540595297/hash_fnv.o
 .debug_frame   0x00003de8       0xc0 build/FreeRTOS/production/_ext/540595297/oahash.o
 .debug_frame   0x00003ea8      0x720 build/FreeRTOS/production/_ext/540595297/tcpip_helpers.o
 .debug_frame   0x000045c8      0xab0 build/FreeRTOS/production/_ext/540595297/tcpip_manager.o
 .debug_frame   0x00005078       0xb8 build/FreeRTOS/production/_ext/540595297/tcpip_notify.o
 .debug_frame   0x00005130      0x168 build/FreeRTOS/production/_ext/540595297/tcpip_packet.o
 .debug_frame   0x00005298      0x658 build/FreeRTOS/production/_ext/540595297/udp.o
 .debug_frame   0x000058f0      0x180 build/FreeRTOS/production/_ext/891571577/osal_freertos.o
 .debug_frame   0x00005a70       0x20 build/FreeRTOS/production/_ext/892004133/plib_clock.o
 .debug_frame   0x00005a90       0x20 build/FreeRTOS/production/_ext/894153619/plib_evsys.o
 .debug_frame   0x00005ab0       0x50 build/FreeRTOS/production/_ext/1494909205/plib_nvic.o
 .debug_frame   0x00005b00      0x19c build/FreeRTOS/production/_ext/320424729/plib_nvmctrl.o
 .debug_frame   0x00005c9c       0xdc build/FreeRTOS/production/_ext/1494856054/plib_port.o
 .debug_frame   0x00005d78      0x1b8 build/FreeRTOS/production/_ext/2092608928/plib_sercom1_usart.o
 .debug_frame   0x00005f30       0xd8 build/FreeRTOS/production/_ext/579449528/plib_tc0.o
 .debug_frame   0x00006008       0x30 build/FreeRTOS/production/_ext/1872641887/xc32_monitor.o
 .debug_frame   0x00006038      0x300 build/FreeRTOS/production/_ext/1005353002/sys_command.o
 .debug_frame   0x00006338      0x11c build/FreeRTOS/production/_ext/548640822/sys_console_uart.o
 .debug_frame   0x00006454      0x1d0 build/FreeRTOS/production/_ext/548640822/sys_console.o
 .debug_frame   0x00006624       0x70 build/FreeRTOS/production/_ext/147610190/sys_debug.o
 .debug_frame   0x00006694       0x84 build/FreeRTOS/production/_ext/1690414130/sys_int.o
 .debug_frame   0x00006718       0x20 build/FreeRTOS/production/_ext/1093154855/sys_reset.o
 .debug_frame   0x00006738      0x400 build/FreeRTOS/production/_ext/832704728/sys_time.o
 .debug_frame   0x00006b38       0x88 build/FreeRTOS/production/_ext/2072568807/sys_time_h2_adapter.o
 .debug_frame   0x00006bc0       0xa8 build/FreeRTOS/production/_ext/2072568807/sys_random_h2_adapter.o
 .debug_frame   0x00006c68       0x94 build/FreeRTOS/production/_ext/161576091/tasks.o
 .debug_frame   0x00006cfc       0x44 build/FreeRTOS/production/_ext/161576091/initialization.o
 .debug_frame   0x00006d40       0x20 build/FreeRTOS/production/_ext/161576091/interrupts.o
 .debug_frame   0x00006d60       0x70 build/FreeRTOS/production/_ext/161576091/exceptions.o
 .debug_frame   0x00006dd0       0x38 build/FreeRTOS/production/_ext/161576091/startup_xc32.o
 .debug_frame   0x00006e08       0x20 build/FreeRTOS/production/_ext/161576091/libc_syscalls.o
 .debug_frame   0x00006e28       0x6c build/FreeRTOS/production/_ext/161576091/freertos_hooks.o
 .debug_frame   0x00006e94       0xe8 build/FreeRTOS/production/_ext/246609638/port.o
 .debug_frame   0x00006f7c       0x5c build/FreeRTOS/production/_ext/1665200909/heap_1.o
 .debug_frame   0x00006fd8       0x6c build/FreeRTOS/production/_ext/404212886/list.o
 .debug_frame   0x00007044      0x280 build/FreeRTOS/production/_ext/404212886/queue.o
 .debug_frame   0x000072c4      0x478 build/FreeRTOS/production/_ext/404212886/FreeRTOS_tasks.o
 .debug_frame   0x0000773c       0x38 build/FreeRTOS/production/_ext/172253694/crypt_wolfcryptcb.o
 .debug_frame   0x00007774      0x3f8 build/FreeRTOS/production/_ext/1664057780/cryptocb.o
 .debug_frame   0x00007b6c      0x138 build/FreeRTOS/production/_ext/1664057780/md5.o
 .debug_frame   0x00007ca4      0x2e8 build/FreeRTOS/production/_ext/1664057780/random.o
 .debug_frame   0x00007f8c      0x23c build/FreeRTOS/production/_ext/1664057780/sha256.o
 .debug_frame   0x000081c8       0x40 build/FreeRTOS/production/_ext/1360937237/app.o
 .debug_frame   0x00008208       0x28 build/FreeRTOS/production/_ext/1360937237/main.o
 .debug_frame   0x00008230       0xdc build/FreeRTOS/production/_ext/1428073114/plib_sercom0_spi_master.o
 .debug_frame   0x0000830c       0xf0 build/FreeRTOS/production/_ext/1434865757/gfx_mono_framebuffer.o
 .debug_frame   0x000083fc      0x15c build/FreeRTOS/production/_ext/1434865757/gfx_mono_generic.o
 .debug_frame   0x00008558       0xbc build/FreeRTOS/production/_ext/1434865757/gfx_mono_text.o
 .debug_frame   0x00008614      0x124 build/FreeRTOS/production/_ext/1434865757/gfx_mono_ug_2832hsweg04.o
 .debug_frame   0x00008738       0x68 build/FreeRTOS/production/_ext/1434865757/gfx_ssd1306.o
 .debug_frame   0x000087a0       0x38 c:/program files/microchip/xc32/v3.01/bin/bin/../../lib/gcc/pic32c/8.3.1/../../../../pic32c/lib/thumb/v7e-m+fp/hard\libpic32c.a(data_init.o)
 .debug_frame   0x000087d8       0xac c:/program files/microchip/xc32/v3.01/bin/bin/../../lib/gcc/pic32c/8.3.1/thumb/v7e-m+fp/hard\libgcc.a(_arm_addsubdf3.o)
 .debug_frame   0x00008884       0x50 c:/program files/microchip/xc32/v3.01/bin/bin/../../lib/gcc/pic32c/8.3.1/thumb/v7e-m+fp/hard\libgcc.a(_arm_muldivdf3.o)
 .debug_frame   0x000088d4       0xc4 c:/program files/microchip/xc32/v3.01/bin/bin/../../lib/gcc/pic32c/8.3.1/thumb/v7e-m+fp/hard\libgcc.a(_arm_cmpdf2.o)
 .debug_frame   0x00008998       0x24 c:/program files/microchip/xc32/v3.01/bin/bin/../../lib/gcc/pic32c/8.3.1/thumb/v7e-m+fp/hard\libgcc.a(_arm_fixunsdfsi.o)
 .debug_frame   0x000089bc       0x2c c:/program files/microchip/xc32/v3.01/bin/bin/../../lib/gcc/pic32c/8.3.1/thumb/v7e-m+fp/hard\libgcc.a(_aeabi_uldivmod.o)
 .debug_frame   0x000089e8       0x34 c:/program files/microchip/xc32/v3.01/bin/bin/../../lib/gcc/pic32c/8.3.1/thumb/v7e-m+fp/hard\libgcc.a(_udivmoddi4.o)
 .debug_frame   0x00008a1c       0x20 c:/program files/microchip/xc32/v3.01/bin/bin/../../lib/gcc/pic32c/8.3.1/../../../../pic32c/lib/thumb/v7e-m+fp/hard\libc_nano.a(lib_a-strcmp.o)
 .debug_frame   0x00008a3c       0x20 c:/program files/microchip/xc32/v3.01/bin/bin/../../lib/gcc/pic32c/8.3.1/../../../../pic32c/lib/thumb/v7e-m+fp/hard\libpic32c.a(_close.o)
 .debug_frame   0x00008a5c       0x20 c:/program files/microchip/xc32/v3.01/bin/bin/../../lib/gcc/pic32c/8.3.1/../../../../pic32c/lib/thumb/v7e-m+fp/hard\libpic32c.a(_fstat.o)
 .debug_frame   0x00008a7c       0x20 c:/program files/microchip/xc32/v3.01/bin/bin/../../lib/gcc/pic32c/8.3.1/../../../../pic32c/lib/thumb/v7e-m+fp/hard\libpic32c.a(_getpid.o)
 .debug_frame   0x00008a9c       0x20 c:/program files/microchip/xc32/v3.01/bin/bin/../../lib/gcc/pic32c/8.3.1/../../../../pic32c/lib/thumb/v7e-m+fp/hard\libpic32c.a(_isatty.o)
 .debug_frame   0x00008abc       0x20 c:/program files/microchip/xc32/v3.01/bin/bin/../../lib/gcc/pic32c/8.3.1/../../../../pic32c/lib/thumb/v7e-m+fp/hard\libpic32c.a(_kill.o)
 .debug_frame   0x00008adc       0x20 c:/program files/microchip/xc32/v3.01/bin/bin/../../lib/gcc/pic32c/8.3.1/../../../../pic32c/lib/thumb/v7e-m+fp/hard\libpic32c.a(_lseek.o)
 .debug_frame   0x00008afc       0x20 c:/program files/microchip/xc32/v3.01/bin/bin/../../lib/gcc/pic32c/8.3.1/../../../../pic32c/lib/thumb/v7e-m+fp/hard\libpic32c.a(_read.o)
 .debug_frame   0x00008b1c       0x20 c:/program files/microchip/xc32/v3.01/bin/bin/../../lib/gcc/pic32c/8.3.1/../../../../pic32c/lib/thumb/v7e-m+fp/hard\libpic32c.a(sbrk.o)
 .debug_frame   0x00008b3c       0x20 c:/program files/microchip/xc32/v3.01/bin/bin/../../lib/gcc/pic32c/8.3.1/../../../../pic32c/lib/thumb/v7e-m+fp/hard\libpic32c.a(_write.o)
 .debug_frame   0x00008b5c       0x20 c:/program files/microchip/xc32/v3.01/bin/bin/../../lib/gcc/pic32c/8.3.1/../../../../pic32c/lib/thumb/v7e-m+fp/hard\libpic32c.a(close.o)
 .debug_frame   0x00008b7c       0x20 c:/program files/microchip/xc32/v3.01/bin/bin/../../lib/gcc/pic32c/8.3.1/../../../../pic32c/lib/thumb/v7e-m+fp/hard\libpic32c.a(fstat.o)
 .debug_frame   0x00008b9c       0x20 c:/program files/microchip/xc32/v3.01/bin/bin/../../lib/gcc/pic32c/8.3.1/../../../../pic32c/lib/thumb/v7e-m+fp/hard\libpic32c.a(getpid.o)
 .debug_frame   0x00008bbc       0x20 c:/program files/microchip/xc32/v3.01/bin/bin/../../lib/gcc/pic32c/8.3.1/../../../../pic32c/lib/thumb/v7e-m+fp/hard\libpic32c.a(isatty.o)
 .debug_frame   0x00008bdc       0x20 c:/program files/microchip/xc32/v3.01/bin/bin/../../lib/gcc/pic32c/8.3.1/../../../../pic32c/lib/thumb/v7e-m+fp/hard\libpic32c.a(kill.o)
 .debug_frame   0x00008bfc       0x20 c:/program files/microchip/xc32/v3.01/bin/bin/../../lib/gcc/pic32c/8.3.1/../../../../pic32c/lib/thumb/v7e-m+fp/hard\libpic32c.a(lseek.o)
 .debug_frame   0x00008c1c       0x2c c:/program files/microchip/xc32/v3.01/bin/bin/../../lib/gcc/pic32c/8.3.1/../../../../pic32c/lib/thumb/v7e-m+fp/hard\libpic32c.a(read.o)
 .debug_frame   0x00008c48       0x2c c:/program files/microchip/xc32/v3.01/bin/bin/../../lib/gcc/pic32c/8.3.1/../../../../pic32c/lib/thumb/v7e-m+fp/hard\libpic32c.a(write.o)
 .debug_frame   0x00008c74       0x20 c:/program files/microchip/xc32/v3.01/bin/bin/../../lib/gcc/pic32c/8.3.1/thumb/v7e-m+fp/hard\libgcc.a(_arm_unorddf2.o)
 .debug_frame   0x00008c94       0x24 c:/program files/microchip/xc32/v3.01/bin/bin/../../lib/gcc/pic32c/8.3.1/thumb/v7e-m+fp/hard\libgcc.a(_arm_fixdfsi.o)

.stack          0x20025ff0      0x100
 .stack         0x20025ff0      0x100 stack

.bss.ucHeap%1   0x20000004     0xa000
 .bss.ucHeap    0x20000004     0xa000 build/FreeRTOS/production/_ext/1665200909/heap_1.o

.bss.SERCOM1_USART_ReadBuffer%2
                0x2000a004     0x1000
 .bss.SERCOM1_USART_ReadBuffer
                0x2000a004     0x1000 build/FreeRTOS/production/_ext/2092608928/plib_sercom1_usart.o

.bss.SERCOM1_USART_WriteBuffer%3
                0x2000b004     0x1000
 .bss.SERCOM1_USART_WriteBuffer
                0x2000b004     0x1000 build/FreeRTOS/production/_ext/2092608928/plib_sercom1_usart.o

.bss.printBuff%4
                0x2000c004      0xa00
 .bss.printBuff
                0x2000c004      0xa00 build/FreeRTOS/production/_ext/1005353002/sys_command.o

.bss.icmpPingBuff%5
                0x2000ca04      0x7d0
 .bss.icmpPingBuff
                0x2000ca04      0x7d0 build/FreeRTOS/production/_ext/540595297/tcpip_commands.o

.bss.TCPIP_STACK_MODULE_SIGNAL_TBL%6
                0x2000d1d4      0x270
 .bss.TCPIP_STACK_MODULE_SIGNAL_TBL
                0x2000d1d4      0x270 build/FreeRTOS/production/_ext/540595297/tcpip_manager.o

.bss.framebuffer%7
                0x2000d444      0x200
 .bss.framebuffer
                0x2000d444      0x200 build/FreeRTOS/production/_ext/1434865757/gfx_mono_ug_2832hsweg04.o
                0x2000d444                framebuffer

.data.__global_locale%8
                0x2000d644      0x16c
 .data.__global_locale
                0x2000d644      0x16c c:/program files/microchip/xc32/v3.01/bin/bin/../../lib/gcc/pic32c/8.3.1/../../../../pic32c/lib/thumb/v7e-m+fp/hard\libc_nano.a(lib_a-locale.o)
                0x2000d644                __global_locale

.bss.sysRandCtx%9
                0x2000d7b0      0x108
 .bss.sysRandCtx
                0x2000d7b0      0x108 build/FreeRTOS/production/_ext/2072568807/sys_random_h2_adapter.o

.data._gmac_drv_dcpt%10
                0x2000d8b8       0xf8
 .data._gmac_drv_dcpt
                0x2000d8b8       0xf8 build/FreeRTOS/production/_ext/41526634/drv_gmac.o

.bss.gIperfState%11
                0x2000d9b0       0xd8
 .bss.gIperfState
                0x2000d9b0       0xd8 build/FreeRTOS/production/_ext/540595297/iperf.o

.bss.consolePrintBuffer%12
                0x2000da88       0xc8
 .bss.consolePrintBuffer
                0x2000da88       0xc8 build/FreeRTOS/production/_ext/548640822/sys_console.o

.bss.timers%13  0x2000db50       0xa0
 .bss.timers    0x2000db50       0xa0 build/FreeRTOS/production/_ext/832704728/sys_time.o

.bss.gDrvMIIMObj%14
                0x2000dbf0       0x94
 .bss.gDrvMIIMObj
                0x2000dbf0       0x94 build/FreeRTOS/production/_ext/1149484450/drv_miim.o

.bss.TCPIP_MODULES_QUEUE_TBL%15
                0x2000dc84       0x90
 .bss.TCPIP_MODULES_QUEUE_TBL
                0x2000dc84       0x90 build/FreeRTOS/production/_ext/540595297/tcpip_manager.o

.bss.gmac_dcpt_array%16
                0x2000dd18       0x80
 .bss.gmac_dcpt_array
                0x2000dd18       0x80 build/FreeRTOS/production/_ext/41526634/drv_gmac_lib_samE5x.o

.bss._usrCmdTbl%17
                0x2000dd98       0x80
 .bss._usrCmdTbl
                0x2000dd98       0x80 build/FreeRTOS/production/_ext/1005353002/sys_command.o

.bss.gPhyDrvInst%18
                0x2000de18       0x68
 .bss.gPhyDrvInst
                0x2000de18       0x68 build/FreeRTOS/production/_ext/1231519722/drv_ethphy.o

.bss.pxReadyTasksLists%19
                0x2000de80       0x64
 .bss.pxReadyTasksLists
                0x2000de80       0x64 build/FreeRTOS/production/_ext/404212886/FreeRTOS_tasks.o

.bss.gCryptoDev%20
                0x2000dee4       0x60
 .bss.gCryptoDev
                0x2000dee4       0x60 build/FreeRTOS/production/_ext/1664057780/cryptocb.o

.data.impure_data%21
                0x2000df44       0x60
 .data.impure_data
                0x2000df44       0x60 c:/program files/microchip/xc32/v3.01/bin/bin/../../lib/gcc/pic32c/8.3.1/../../../../pic32c/lib/thumb/v7e-m+fp/hard\libc_nano.a(lib_a-impure.o)

.bss.arpMod%22  0x2000dfa4       0x4c
 .bss.arpMod    0x2000dfa4       0x4c build/FreeRTOS/production/_ext/540595297/arp.o

.bss.sercom1USARTObj%23
                0x2000dff0       0x40
 .bss.sercom1USARTObj
                0x2000dff0       0x40 build/FreeRTOS/production/_ext/2092608928/plib_sercom1_usart.o

.bss.gSystemCounterObj%24
                0x2000e030       0x38
 .bss.gSystemCounterObj
                0x2000e030       0x38 build/FreeRTOS/production/_ext/832704728/sys_time.o

.bss.g_bfr%25   0x2000e068       0x34
 .bss.g_bfr     0x2000e068       0x34 build/FreeRTOS/production/_ext/540595297/iperf.o
                0x2000e068                g_bfr

.bss.sercom0SPIObj%26
                0x2000e09c       0x2c
 .bss.sercom0SPIObj
                0x2000e09c       0x2c build/FreeRTOS/production/_ext/1428073114/plib_sercom0_spi_master.o

.bss.gDnsDcpt%27
                0x2000e0c8       0x28
 .bss.gDnsDcpt  0x2000e0c8       0x28 build/FreeRTOS/production/_ext/540595297/dns.o

.bss.tcpip_stack_ctrl_data%28
                0x2000e0f0       0x20
 .bss.tcpip_stack_ctrl_data
                0x2000e0f0       0x20 build/FreeRTOS/production/_ext/540595297/tcpip_manager.o

.bss.__sf_fake_stderr%29
                0x2000e110       0x20
 .bss.__sf_fake_stderr
                0x2000e110       0x20 c:/program files/microchip/xc32/v3.01/bin/bin/../../lib/gcc/pic32c/8.3.1/../../../../pic32c/lib/thumb/v7e-m+fp/hard\libc_nano.a(lib_a-findfp.o)
                0x2000e110                __sf_fake_stderr

.bss.__sf_fake_stdin%30
                0x2000e130       0x20
 .bss.__sf_fake_stdin
                0x2000e130       0x20 c:/program files/microchip/xc32/v3.01/bin/bin/../../lib/gcc/pic32c/8.3.1/../../../../pic32c/lib/thumb/v7e-m+fp/hard\libc_nano.a(lib_a-findfp.o)
                0x2000e130                __sf_fake_stdin

.bss.__sf_fake_stdout%31
                0x2000e150       0x20
 .bss.__sf_fake_stdout
                0x2000e150       0x20 c:/program files/microchip/xc32/v3.01/bin/bin/../../lib/gcc/pic32c/8.3.1/../../../../pic32c/lib/thumb/v7e-m+fp/hard\libc_nano.a(lib_a-findfp.o)
                0x2000e150                __sf_fake_stdout

.bss.dnslookupTargetHost%32
                0x2000e170       0x1f
 .bss.dnslookupTargetHost
                0x2000e170       0x1f build/FreeRTOS/production/_ext/540595297/tcpip_commands.o

.bss.icmpTargetHost%33
                0x2000e190       0x1f
 .bss.icmpTargetHost
                0x2000e190       0x1f build/FreeRTOS/production/_ext/540595297/tcpip_commands.o

.bss%34         0x2000e1b0       0x1c
 .bss           0x2000e1b0       0x1c c:/program files/microchip/xc32/v3.01/bin/bin/../../lib/gcc/pic32c/8.3.1/thumb/v7e-m+fp/hard/crtbegin.o

.bss.icmpEchoRequest%35
                0x2000e1cc       0x18
 .bss.icmpEchoRequest
                0x2000e1cc       0x18 build/FreeRTOS/production/_ext/540595297/icmp.o

.bss.cmdTcpipInitData%36
                0x2000e1e4       0x18
 .bss.cmdTcpipInitData
                0x2000e1e4       0x18 build/FreeRTOS/production/_ext/540595297/tcpip_commands.o

.bss.tcpip_init_data%37
                0x2000e1fc       0x18
 .bss.tcpip_init_data
                0x2000e1fc       0x18 build/FreeRTOS/production/_ext/540595297/tcpip_manager.o

.bss.icmpRegisteredUsers%38
                0x2000e214       0x14
 .bss.icmpRegisteredUsers
                0x2000e214       0x14 build/FreeRTOS/production/_ext/540595297/icmp.o

.bss.ipv4ArpQueue%39
                0x2000e228       0x14
 .bss.ipv4ArpQueue
                0x2000e228       0x14 build/FreeRTOS/production/_ext/540595297/ipv4.o

.bss.ipv4PacketFilters%40
                0x2000e23c       0x14
 .bss.ipv4PacketFilters
                0x2000e23c       0x14 build/FreeRTOS/production/_ext/540595297/ipv4.o

.bss.dhcpRegisteredUsers%41
                0x2000e250       0x14
 .bss.dhcpRegisteredUsers
                0x2000e250       0x14 build/FreeRTOS/production/_ext/540595297/dhcp.o

.bss.sysObj%42  0x2000e264       0x14
 .bss.sysObj    0x2000e264       0x14 build/FreeRTOS/production/_ext/161576091/initialization.o
                0x2000e264                sysObj

.data.tcpipHeapConfig%43
                0x2000e278       0x14
 .data.tcpipHeapConfig
                0x2000e278       0x14 build/FreeRTOS/production/_ext/161576091/initialization.o
                0x2000e278                tcpipHeapConfig

.bss.xDelayedTaskList1%44
                0x2000e28c       0x14
 .bss.xDelayedTaskList1
                0x2000e28c       0x14 build/FreeRTOS/production/_ext/404212886/FreeRTOS_tasks.o

.bss.xDelayedTaskList2%45
                0x2000e2a0       0x14
 .bss.xDelayedTaskList2
                0x2000e2a0       0x14 build/FreeRTOS/production/_ext/404212886/FreeRTOS_tasks.o

.bss.xPendingReadyList%46
                0x2000e2b4       0x14
 .bss.xPendingReadyList
                0x2000e2b4       0x14 build/FreeRTOS/production/_ext/404212886/FreeRTOS_tasks.o

.bss.xSuspendedTaskList%47
                0x2000e2c8       0x14
 .bss.xSuspendedTaskList
                0x2000e2c8       0x14 build/FreeRTOS/production/_ext/404212886/FreeRTOS_tasks.o

.bss.xTasksWaitingTermination%48
                0x2000e2dc       0x14
 .bss.xTasksWaitingTermination
                0x2000e2dc       0x14 build/FreeRTOS/production/_ext/404212886/FreeRTOS_tasks.o

.bss.clientObj%49
                0x2000e2f0       0x14
 .bss.clientObj
                0x2000e2f0       0x14 build/FreeRTOS/production/_ext/1360937237/app.o

.bss.icmpTargetAddrStr%50
                0x2000e304       0x11
 .bss.icmpTargetAddrStr
                0x2000e304       0x11 build/FreeRTOS/production/_ext/540595297/tcpip_commands.o

.bss.tcpip_heap_config%51
                0x2000e318       0x10
 .bss.tcpip_heap_config
                0x2000e318       0x10 build/FreeRTOS/production/_ext/540595297/tcpip_manager.o

.bss.ipv4ArpPool%52
                0x2000e328        0xc
 .bss.ipv4ArpPool
                0x2000e328        0xc build/FreeRTOS/production/_ext/540595297/ipv4.o

.bss.gConsoleUartData%53
                0x2000e334        0xc
 .bss.gConsoleUartData
                0x2000e334        0xc build/FreeRTOS/production/_ext/548640822/sys_console_uart.o

.bss.consoleDeviceInstance%54
                0x2000e340        0xc
 .bss.consoleDeviceInstance
                0x2000e340        0xc build/FreeRTOS/production/_ext/548640822/sys_console.o

.data.sysfont%55
                0x2000e34c        0xc
 .data.sysfont  0x2000e34c        0xc build/FreeRTOS/production/_ext/1434865757/gfx_sysfont.o
                0x2000e34c                sysfont

.bss.TC0_CallbackObject%56
                0x2000e358        0x8
 .bss.TC0_CallbackObject
                0x2000e358        0x8 build/FreeRTOS/production/_ext/579449528/plib_tc0.o

.bss.cmdIODevList%57
                0x2000e360        0x8
 .bss.cmdIODevList
                0x2000e360        0x8 build/FreeRTOS/production/_ext/1005353002/sys_command.o

.data.arpBcastAdd%58
                0x2000e368        0x6
 .data.arpBcastAdd
                0x2000e368        0x6 build/FreeRTOS/production/_ext/540595297/arp.o

.bss._hEventMac%59
                0x2000dd14        0x4
 .bss._hEventMac
                0x2000dd14        0x4 build/FreeRTOS/production/_ext/41526634/drv_gmac.o

.bss.drvGmacQueEvents%60
                0x2000e370        0x4
 .bss.drvGmacQueEvents
                0x2000e370        0x4 build/FreeRTOS/production/_ext/41526634/drv_gmac_lib_samE5x.o
                0x2000e370                drvGmacQueEvents

.bss.icmpEchoStart%61
                0x2000e374        0x4
 .bss.icmpEchoStart
                0x2000e374        0x4 build/FreeRTOS/production/_ext/540595297/icmp.o

.bss.icmpEchoTmo%62
                0x2000e378        0x4
 .bss.icmpEchoTmo
                0x2000e378        0x4 build/FreeRTOS/production/_ext/540595297/icmp.o

.bss.icmpInitCount%63
                0x2000e37c        0x4
 .bss.icmpInitCount
                0x2000e37c        0x4 build/FreeRTOS/production/_ext/540595297/icmp.o

.bss.icmpMemH%64
                0x2000e380        0x4
 .bss.icmpMemH  0x2000e380        0x4 build/FreeRTOS/production/_ext/540595297/icmp.o

.bss.pIcmpEchoRequest%65
                0x2000e384        0x4
 .bss.pIcmpEchoRequest
                0x2000e384        0x4 build/FreeRTOS/production/_ext/540595297/icmp.o

.bss.signalHandle%66
                0x2000e388        0x4
 .bss.signalHandle
                0x2000e388        0x4 build/FreeRTOS/production/_ext/540595297/icmp.o

.bss.TCBStubs%67
                0x2000e38c        0x4
 .bss.TCBStubs  0x2000e38c        0x4 build/FreeRTOS/production/_ext/540595297/tcp.o

.bss.TcpSockets%68
                0x2000e390        0x4
 .bss.TcpSockets
                0x2000e390        0x4 build/FreeRTOS/production/_ext/540595297/tcp.o

.bss.tcpHeapH%69
                0x2000e394        0x4
 .bss.tcpHeapH  0x2000e394        0x4 build/FreeRTOS/production/_ext/540595297/tcp.o

.bss.tcpInitCount%70
                0x2000e398        0x4
 .bss.tcpInitCount
                0x2000e398        0x4 build/FreeRTOS/production/_ext/540595297/tcp.o

.bss.tcpLockCount%71
                0x2000e39c        0x4
 .bss.tcpLockCount
                0x2000e39c        0x4 build/FreeRTOS/production/_ext/540595297/tcp.o

.bss.tcpSemaphore%72
                0x2000e3a0        0x4
 .bss.tcpSemaphore
                0x2000e3a0        0x4 build/FreeRTOS/production/_ext/540595297/tcp.o

.bss.tcpSignalHandle%73
                0x2000e3a4        0x4
 .bss.tcpSignalHandle
                0x2000e3a4        0x4 build/FreeRTOS/production/_ext/540595297/tcp.o

.bss.commandInitCount%74
                0x2000e3a8        0x4
 .bss.commandInitCount
                0x2000e3a8        0x4 build/FreeRTOS/production/_ext/540595297/tcpip_commands.o

.bss.dnsLookUpStartTick%75
                0x2000e3ac        0x4
 .bss.dnsLookUpStartTick
                0x2000e3ac        0x4 build/FreeRTOS/production/_ext/540595297/tcpip_commands.o

.bss.dnsLookupCmdIoParam%76
                0x2000e3b0        0x4
 .bss.dnsLookupCmdIoParam
                0x2000e3b0        0x4 build/FreeRTOS/production/_ext/540595297/tcpip_commands.o

.bss.icmpAckRecv%77
                0x2000e3b4        0x4
 .bss.icmpAckRecv
                0x2000e3b4        0x4 build/FreeRTOS/production/_ext/540595297/tcpip_commands.o

.bss.icmpCmdIoParam%78
                0x2000e3b8        0x4
 .bss.icmpCmdIoParam
                0x2000e3b8        0x4 build/FreeRTOS/production/_ext/540595297/tcpip_commands.o

.bss.icmpNetH%79
                0x2000e3bc        0x4
 .bss.icmpNetH  0x2000e3bc        0x4 build/FreeRTOS/production/_ext/540595297/tcpip_commands.o

.bss.icmpReqCount%80
                0x2000e3c0        0x4
 .bss.icmpReqCount
                0x2000e3c0        0x4 build/FreeRTOS/production/_ext/540595297/tcpip_commands.o

.bss.icmpReqDelay%81
                0x2000e3c4        0x4
 .bss.icmpReqDelay
                0x2000e3c4        0x4 build/FreeRTOS/production/_ext/540595297/tcpip_commands.o

.bss.icmpReqHandle%82
                0x2000e3c8        0x4
 .bss.icmpReqHandle
                0x2000e3c8        0x4 build/FreeRTOS/production/_ext/540595297/tcpip_commands.o

.bss.icmpReqNo%83
                0x2000e3cc        0x4
 .bss.icmpReqNo
                0x2000e3cc        0x4 build/FreeRTOS/production/_ext/540595297/tcpip_commands.o

.bss.icmpStartTick%84
                0x2000e3d0        0x4
 .bss.icmpStartTick
                0x2000e3d0        0x4 build/FreeRTOS/production/_ext/540595297/tcpip_commands.o
                0x2000e3d0                icmpStartTick

.bss.icmpTargetAddr%85
                0x2000e3d4        0x4
 .bss.icmpTargetAddr
                0x2000e3d4        0x4 build/FreeRTOS/production/_ext/540595297/tcpip_commands.o

.bss.initialNetIfs%86
                0x2000e3d8        0x4
 .bss.initialNetIfs
                0x2000e3d8        0x4 build/FreeRTOS/production/_ext/540595297/tcpip_commands.o

.bss.pCmdTcpipInitData%87
                0x2000e3dc        0x4
 .bss.pCmdTcpipInitData
                0x2000e3dc        0x4 build/FreeRTOS/production/_ext/540595297/tcpip_commands.o

.bss.pTcpipCmdDevice%88
                0x2000e3e0        0x4
 .bss.pTcpipCmdDevice
                0x2000e3e0        0x4 build/FreeRTOS/production/_ext/540595297/tcpip_commands.o

.bss.tcpipCmdSignalHandle%89
                0x2000e3e4        0x4
 .bss.tcpipCmdSignalHandle
                0x2000e3e4        0x4 build/FreeRTOS/production/_ext/540595297/tcpip_commands.o

.data.icmpPingSize%90
                0x2000e3e8        0x4
 .data.icmpPingSize
                0x2000e3e8        0x4 build/FreeRTOS/production/_ext/540595297/tcpip_commands.o

.bss.iperfInitCount%91
                0x2000e3ec        0x4
 .bss.iperfInitCount
                0x2000e3ec        0x4 build/FreeRTOS/production/_ext/540595297/iperf.o

.bss.nIperfSessions%92
                0x2000e3f0        0x4
 .bss.nIperfSessions
                0x2000e3f0        0x4 build/FreeRTOS/production/_ext/540595297/iperf.o

.bss.ipv4ActFilterCount%93
                0x2000e3f4        0x4
 .bss.ipv4ActFilterCount
                0x2000e3f4        0x4 build/FreeRTOS/production/_ext/540595297/ipv4.o

.bss.ipv4ArpEntries%94
                0x2000e3f8        0x4
 .bss.ipv4ArpEntries
                0x2000e3f8        0x4 build/FreeRTOS/production/_ext/540595297/ipv4.o

.bss.ipv4ArpHandle%95
                0x2000e3fc        0x4
 .bss.ipv4ArpHandle
                0x2000e3fc        0x4 build/FreeRTOS/production/_ext/540595297/ipv4.o

.bss.ipv4MemH%96
                0x2000e400        0x4
 .bss.ipv4MemH  0x2000e400        0x4 build/FreeRTOS/production/_ext/540595297/ipv4.o

.bss.signalHandle%97
                0x2000e404        0x4
 .bss.signalHandle
                0x2000e404        0x4 build/FreeRTOS/production/_ext/540595297/ipv4.o

.bss.DHCPClients%98
                0x2000e408        0x4
 .bss.DHCPClients
                0x2000e408        0x4 build/FreeRTOS/production/_ext/540595297/dhcp.o

.bss.dhcpInitCount%99
                0x2000e40c        0x4
 .bss.dhcpInitCount
                0x2000e40c        0x4 build/FreeRTOS/production/_ext/540595297/dhcp.o

.bss.dhcpInterfaces%100
                0x2000e410        0x4
 .bss.dhcpInterfaces
                0x2000e410        0x4 build/FreeRTOS/production/_ext/540595297/dhcp.o

.bss.dhcpMemH%101
                0x2000e414        0x4
 .bss.dhcpMemH  0x2000e414        0x4 build/FreeRTOS/production/_ext/540595297/dhcp.o

.bss.dhcpSecondCount%102
                0x2000e418        0x4
 .bss.dhcpSecondCount
                0x2000e418        0x4 build/FreeRTOS/production/_ext/540595297/dhcp.o

.bss.dhcpSignalHandle%103
                0x2000e41c        0x4
 .bss.dhcpSignalHandle
                0x2000e41c        0x4 build/FreeRTOS/production/_ext/540595297/dhcp.o

.bss.dnsInitCount%104
                0x2000e420        0x4
 .bss.dnsInitCount
                0x2000e420        0x4 build/FreeRTOS/production/_ext/540595297/dns.o

.bss.pgDnsDcpt%105
                0x2000e424        0x4
 .bss.pgDnsDcpt
                0x2000e424        0x4 build/FreeRTOS/production/_ext/540595297/dns.o

.bss.newTcpipErrorEventCnt%106
                0x2000e428        0x4
 .bss.newTcpipErrorEventCnt
                0x2000e428        0x4 build/FreeRTOS/production/_ext/540595297/tcpip_manager.o

.bss.newTcpipStackEventCnt%107
                0x2000e42c        0x4
 .bss.newTcpipStackEventCnt
                0x2000e42c        0x4 build/FreeRTOS/production/_ext/540595297/tcpip_manager.o

.bss.newTcpipTickAvlbl%108
                0x2000e430        0x4
 .bss.newTcpipTickAvlbl
                0x2000e430        0x4 build/FreeRTOS/production/_ext/540595297/tcpip_manager.o

.bss.stackAsyncSignalCount%109
                0x2000e434        0x4
 .bss.stackAsyncSignalCount
                0x2000e434        0x4 build/FreeRTOS/production/_ext/540595297/tcpip_manager.o

.bss.stackTaskRate%110
                0x2000e438        0x4
 .bss.stackTaskRate
                0x2000e438        0x4 build/FreeRTOS/production/_ext/540595297/tcpip_manager.o

.bss.tcpipDefIf%111
                0x2000e43c        0x4
 .bss.tcpipDefIf
                0x2000e43c        0x4 build/FreeRTOS/production/_ext/540595297/tcpip_manager.o

.bss.tcpipNetIf%112
                0x2000e440        0x4
 .bss.tcpipNetIf
                0x2000e440        0x4 build/FreeRTOS/production/_ext/540595297/tcpip_manager.o

.bss.tcpip_stack_init_cb%113
                0x2000e444        0x4
 .bss.tcpip_stack_init_cb
                0x2000e444        0x4 build/FreeRTOS/production/_ext/540595297/tcpip_manager.o

.bss.totTcpipEventsCnt%114
                0x2000e448        0x4
 .bss.totTcpipEventsCnt
                0x2000e448        0x4 build/FreeRTOS/production/_ext/540595297/tcpip_manager.o

.data.tcpip_stack_tickH%115
                0x2000e44c        0x4
 .data.tcpip_stack_tickH
                0x2000e44c        0x4 build/FreeRTOS/production/_ext/540595297/tcpip_manager.o

.bss.pktMemH%116
                0x2000e450        0x4
 .bss.pktMemH   0x2000e450        0x4 build/FreeRTOS/production/_ext/540595297/tcpip_packet.o

.bss.UDPSocketDcpt%117
                0x2000e454        0x4
 .bss.UDPSocketDcpt
                0x2000e454        0x4 build/FreeRTOS/production/_ext/540595297/udp.o

.bss.nUdpSockets%118
                0x2000e458        0x4
 .bss.nUdpSockets
                0x2000e458        0x4 build/FreeRTOS/production/_ext/540595297/udp.o

.bss.signalHandle%119
                0x2000e45c        0x4
 .bss.signalHandle
                0x2000e45c        0x4 build/FreeRTOS/production/_ext/540595297/udp.o

.bss.udpInitCount%120
                0x2000e460        0x4
 .bss.udpInitCount
                0x2000e460        0x4 build/FreeRTOS/production/_ext/540595297/udp.o

.bss.udpMemH%121
                0x2000e464        0x4
 .bss.udpMemH   0x2000e464        0x4 build/FreeRTOS/production/_ext/540595297/udp.o

.bss.userSem%122
                0x2000e468        0x4
 .bss.userSem   0x2000e468        0x4 build/FreeRTOS/production/_ext/540595297/udp.o

.bss._cmdInitData%123
                0x2000e46c        0x4
 .bss._cmdInitData
                0x2000e46c        0x4 build/FreeRTOS/production/_ext/1005353002/sys_command.o

.bss.printBuffPtr%124
                0x2000e470        0x4
 .bss.printBuffPtr
                0x2000e470        0x4 build/FreeRTOS/production/_ext/1005353002/sys_command.o

.bss.consolePrintBufferMutex%125
                0x2000e474        0x4
 .bss.consolePrintBufferMutex
                0x2000e474        0x4 build/FreeRTOS/production/_ext/548640822/sys_console.o

.bss.sysDebugInstance%126
                0x2000e478        0x4
 .bss.sysDebugInstance
                0x2000e478        0x4 build/FreeRTOS/production/_ext/147610190/sys_debug.o

.bss.gTickConv%127
                0x2000e47c        0x4
 .bss.gTickConv
                0x2000e47c        0x4 build/FreeRTOS/production/_ext/2072568807/sys_time_h2_adapter.o

.bss.systemAdaptObj%128
                0x2000e480        0x4
 .bss.systemAdaptObj
                0x2000e480        0x4 build/FreeRTOS/production/_ext/2072568807/sys_time_h2_adapter.o

.bss.pRandCtx%129
                0x2000e484        0x4
 .bss.pRandCtx  0x2000e484        0x4 build/FreeRTOS/production/_ext/2072568807/sys_random_h2_adapter.o

.bss.xAPP_Tasks%130
                0x2000e488        0x4
 .bss.xAPP_Tasks
                0x2000e488        0x4 build/FreeRTOS/production/_ext/161576091/tasks.o
                0x2000e488                xAPP_Tasks

.bss.sysCmdInit%131
                0x2000e48c        0x4
 .bss.sysCmdInit
                0x2000e48c        0x4 build/FreeRTOS/production/_ext/161576091/initialization.o
                0x2000e48c                sysCmdInit

.data.uxCriticalNesting%132
                0x2000e490        0x4
 .data.uxCriticalNesting
                0x2000e490        0x4 build/FreeRTOS/production/_ext/246609638/port.o

.bss.pucAlignedHeap.6555%133
                0x2000e494        0x4
 .bss.pucAlignedHeap.6555
                0x2000e494        0x4 build/FreeRTOS/production/_ext/1665200909/heap_1.o

.bss.xNextFreeByte%134
                0x2000e498        0x4
 .bss.xNextFreeByte
                0x2000e498        0x4 build/FreeRTOS/production/_ext/1665200909/heap_1.o

.bss.pxCurrentTCB%135
                0x2000e49c        0x4
 .bss.pxCurrentTCB
                0x2000e49c        0x4 build/FreeRTOS/production/_ext/404212886/FreeRTOS_tasks.o
                0x2000e49c                pxCurrentTCB

.bss.pxDelayedTaskList%136
                0x2000e4a0        0x4
 .bss.pxDelayedTaskList
                0x2000e4a0        0x4 build/FreeRTOS/production/_ext/404212886/FreeRTOS_tasks.o

.bss.pxOverflowDelayedTaskList%137
                0x2000e4a4        0x4
 .bss.pxOverflowDelayedTaskList
                0x2000e4a4        0x4 build/FreeRTOS/production/_ext/404212886/FreeRTOS_tasks.o

.bss.uxCurrentNumberOfTasks%138
                0x2000e4a8        0x4
 .bss.uxCurrentNumberOfTasks
                0x2000e4a8        0x4 build/FreeRTOS/production/_ext/404212886/FreeRTOS_tasks.o

.bss.uxDeletedTasksWaitingCleanUp%139
                0x2000e4ac        0x4
 .bss.uxDeletedTasksWaitingCleanUp
                0x2000e4ac        0x4 build/FreeRTOS/production/_ext/404212886/FreeRTOS_tasks.o

.bss.uxSchedulerSuspended%140
                0x2000e4b0        0x4
 .bss.uxSchedulerSuspended
                0x2000e4b0        0x4 build/FreeRTOS/production/_ext/404212886/FreeRTOS_tasks.o

.bss.uxTaskNumber%141
                0x2000e4b4        0x4
 .bss.uxTaskNumber
                0x2000e4b4        0x4 build/FreeRTOS/production/_ext/404212886/FreeRTOS_tasks.o

.bss.uxTopReadyPriority%142
                0x2000e4b8        0x4
 .bss.uxTopReadyPriority
                0x2000e4b8        0x4 build/FreeRTOS/production/_ext/404212886/FreeRTOS_tasks.o

.bss.xIdleTaskHandle%143
                0x2000e4bc        0x4
 .bss.xIdleTaskHandle
                0x2000e4bc        0x4 build/FreeRTOS/production/_ext/404212886/FreeRTOS_tasks.o

.bss.xNextTaskUnblockTime%144
                0x2000e4c0        0x4
 .bss.xNextTaskUnblockTime
                0x2000e4c0        0x4 build/FreeRTOS/production/_ext/404212886/FreeRTOS_tasks.o

.bss.xNumOfOverflows%145
                0x2000e4c4        0x4
 .bss.xNumOfOverflows
                0x2000e4c4        0x4 build/FreeRTOS/production/_ext/404212886/FreeRTOS_tasks.o

.bss.xPendedTicks%146
                0x2000e4c8        0x4
 .bss.xPendedTicks
                0x2000e4c8        0x4 build/FreeRTOS/production/_ext/404212886/FreeRTOS_tasks.o

.bss.xSchedulerRunning%147
                0x2000e4cc        0x4
 .bss.xSchedulerRunning
                0x2000e4cc        0x4 build/FreeRTOS/production/_ext/404212886/FreeRTOS_tasks.o

.bss.xTickCount%148
                0x2000e4d0        0x4
 .bss.xTickCount
                0x2000e4d0        0x4 build/FreeRTOS/production/_ext/404212886/FreeRTOS_tasks.o

.bss.xYieldPending%149
                0x2000e4d4        0x4
 .bss.xYieldPending
                0x2000e4d4        0x4 build/FreeRTOS/production/_ext/404212886/FreeRTOS_tasks.o

.bss.opHandle%150
                0x2000e4d8        0x4
 .bss.opHandle  0x2000e4d8        0x4 build/FreeRTOS/production/_ext/1360937237/app.o

.bss.fbpointer%151
                0x2000e4dc        0x4
 .bss.fbpointer
                0x2000e4dc        0x4 build/FreeRTOS/production/_ext/1434865757/gfx_mono_framebuffer.o

.bss%152        0x2000e4e0        0x4
 .bss           0x2000e4e0        0x4 c:/program files/microchip/xc32/v3.01/bin/bin/../../lib/gcc/pic32c/8.3.1/../../../../pic32c/lib/thumb/v7e-m+fp/hard\libpic32c.a(data_init.o)

.data._impure_ptr%153
                0x2000e4e4        0x4
 .data._impure_ptr
                0x2000e4e4        0x4 c:/program files/microchip/xc32/v3.01/bin/bin/../../lib/gcc/pic32c/8.3.1/../../../../pic32c/lib/thumb/v7e-m+fp/hard\libc_nano.a(lib_a-impure.o)
                0x2000e4e4                _impure_ptr

.bss.__malloc_free_list%154
                0x2000e4e8        0x4
 .bss.__malloc_free_list
                0x2000e4e8        0x4 c:/program files/microchip/xc32/v3.01/bin/bin/../../lib/gcc/pic32c/8.3.1/../../../../pic32c/lib/thumb/v7e-m+fp/hard\libc_nano.a(lib_a-nano-mallocr.o)
                0x2000e4e8                __malloc_free_list

.bss.__malloc_sbrk_start%155
                0x2000e4ec        0x4
 .bss.__malloc_sbrk_start
                0x2000e4ec        0x4 c:/program files/microchip/xc32/v3.01/bin/bin/../../lib/gcc/pic32c/8.3.1/../../../../pic32c/lib/thumb/v7e-m+fp/hard\libc_nano.a(lib_a-nano-mallocr.o)
                0x2000e4ec                __malloc_sbrk_start

.bss%156        0x2000e4f0        0x4
 .bss           0x2000e4f0        0x4 c:/program files/microchip/xc32/v3.01/bin/bin/../../lib/gcc/pic32c/8.3.1/../../../../pic32c/lib/thumb/v7e-m+fp/hard\libpic32c.a(sbrk.o)

.bss.data%157   0x2000e36e        0x2
 .bss.data      0x2000e36e        0x2 build/FreeRTOS/production/_ext/1360937237/app.o

.bss.appData%158
                0x2000e4f4        0x1
 .bss.appData   0x2000e4f4        0x1 build/FreeRTOS/production/_ext/1360937237/app.o
                0x2000e4f4                appData

.data.drvGmacIRQ%159
                0x2000e4f8        0x2
 .data.drvGmacIRQ
                0x2000e4f8        0x2 build/FreeRTOS/production/_ext/41526634/drv_gmac_lib_samE5x.o
                0x2000e4f8                drvGmacIRQ

.bss.tcpDefRxSize%160
                0x2000e316        0x2
 .bss.tcpDefRxSize
                0x2000e316        0x2 build/FreeRTOS/production/_ext/540595297/tcp.o

.bss.tcpDefTxSize%161
                0x2000e4f6        0x2
 .bss.tcpDefTxSize
                0x2000e4f6        0x2 build/FreeRTOS/production/_ext/540595297/tcp.o

.bss.icmpIdentifier%162
                0x2000e4fa        0x2
 .bss.icmpIdentifier
                0x2000e4fa        0x2 build/FreeRTOS/production/_ext/540595297/tcpip_commands.o

.bss.icmpSequenceNo%163
                0x2000e4fc        0x2
 .bss.icmpSequenceNo
                0x2000e4fc        0x2 build/FreeRTOS/production/_ext/540595297/tcpip_commands.o

.bss.ipv4Identifier%164
                0x2000e4fe        0x2
 .bss.ipv4Identifier
                0x2000e4fe        0x2 build/FreeRTOS/production/_ext/540595297/ipv4.o

.bss.ipv4InitCount%165
                0x2000e500        0x2
 .bss.ipv4InitCount
                0x2000e500        0x2 build/FreeRTOS/production/_ext/540595297/ipv4.o

.bss.dhcpClientPort%166
                0x2000e502        0x2
 .bss.dhcpClientPort
                0x2000e502        0x2 build/FreeRTOS/production/_ext/540595297/dhcp.o

.bss.dhcpClientSocket%167
                0x2000e504        0x2
 .bss.dhcpClientSocket
                0x2000e504        0x2 build/FreeRTOS/production/_ext/540595297/dhcp.o

.bss.dhcpServerPort%168
                0x2000e506        0x2
 .bss.dhcpServerPort
                0x2000e506        0x2 build/FreeRTOS/production/_ext/540595297/dhcp.o

.bss.udpDefTxSize%169
                0x2000e508        0x2
 .bss.udpDefTxSize
                0x2000e508        0x2 build/FreeRTOS/production/_ext/540595297/udp.o

.data.gSysTimeTokenCount%170
                0x2000e50a        0x2
 .data.gSysTimeTokenCount
                0x2000e50a        0x2 build/FreeRTOS/production/_ext/832704728/sys_time.o

.data.queueIndex.10784%171
                0x2000e18f        0x1
 .data.queueIndex.10784
                0x2000e18f        0x1 build/FreeRTOS/production/_ext/41526634/drv_gmac.o

.bss.tcpipCmdStat%172
                0x2000e1af        0x1
 .bss.tcpipCmdStat
                0x2000e1af        0x1 build/FreeRTOS/production/_ext/540595297/tcpip_commands.o

.data.dnsType%173
                0x2000e315        0x1
 .data.dnsType  0x2000e315        0x1 build/FreeRTOS/production/_ext/540595297/tcpip_commands.o

.bss.iperf_async_request.14917%174
                0x2000e4f5        0x1
 .bss.iperf_async_request.14917
                0x2000e4f5        0x1 build/FreeRTOS/production/_ext/540595297/iperf.o

.bss.ipv4FilterType%175
                0x2000e50c        0x1
 .bss.ipv4FilterType
                0x2000e50c        0x1 build/FreeRTOS/production/_ext/540595297/ipv4.o

.bss.tcpip_stack_status%176
                0x2000e50d        0x1
 .bss.tcpip_stack_status
                0x2000e50d        0x1 build/FreeRTOS/production/_ext/540595297/tcpip_manager.o

.bss.isConsoleMutexCreated%177
                0x2000e50e        0x1
 .bss.isConsoleMutexCreated
                0x2000e50e        0x1 build/FreeRTOS/production/_ext/548640822/sys_console.o

.bss.gblErrLvl%178
                0x2000e50f        0x1
 .bss.gblErrLvl
                0x2000e50f        0x1 build/FreeRTOS/production/_ext/147610190/sys_debug.o
                0x2000e50f                gblErrLvl

.bss.isLastByteTransferInProgress.8232%179
                0x2000e510        0x1
 .bss.isLastByteTransferInProgress.8232
                0x2000e510        0x1 build/FreeRTOS/production/_ext/1428073114/plib_sercom0_spi_master.o

.eh_frame%z1    0x00000000        0x0
 .eh_frame      0x00000000        0x0 c:/program files/microchip/xc32/v3.01/bin/bin/../../lib/gcc/pic32c/8.3.1/thumb/v7e-m+fp/hard/crtbegin.o

.rodata%180     0x0000028c     0x16f4
 .rodata        0x0000028c     0x16f4 build/FreeRTOS/production/_ext/540595297/tcpip_commands.o

.text.TCPIP_TCP_Task%181
                0x00001980      0xe40
 .text.TCPIP_TCP_Task
                0x00001980      0xe40 build/FreeRTOS/production/_ext/540595297/tcp.o
                0x00001980                TCPIP_TCP_Task

.text.TCPIP_IPERF_Task%182
                0x000027c0      0xd34
 .text.TCPIP_IPERF_Task
                0x000027c0      0xd34 build/FreeRTOS/production/_ext/540595297/iperf.o
                0x000027c0                TCPIP_IPERF_Task

.rodata.sysfont_glyphs%183
                0x000034f4      0xbc0
 .rodata.sysfont_glyphs
                0x000034f4      0xbc0 build/FreeRTOS/production/_ext/1434865757/gfx_sysfont.o

.dinit%184      0x000040b4      0xb90
 .dinit         0x000040b4      0xb90 data_init

.text._dtoa_r%185
                0x00004c48      0xb6c
 .text._dtoa_r  0x00004c48      0xb6c c:/program files/microchip/xc32/v3.01/bin/bin/../../lib/gcc/pic32c/8.3.1/../../../../pic32c/lib/thumb/v7e-m+fp/hard\libc_nano.a(lib_a-dtoa.o)
                0x00004c48                _dtoa_r

.rodata%186     0x000057b4      0xaa4
 .rodata        0x000057b4      0xaa4 build/FreeRTOS/production/_ext/540595297/iperf.o

.rodata.macPIC32CHwRegDcpt%187
                0x00006258      0x708
 .rodata.macPIC32CHwRegDcpt
                0x00006258      0x708 build/FreeRTOS/production/_ext/41526634/drv_gmac.o

.text.Transform%188
                0x00006960      0x6d0
 .text.Transform
                0x00006960      0x6d0 build/FreeRTOS/production/_ext/1664057780/md5.o

.text.TCPIP_STACK_Task%189
                0x00007030      0x630
 .text.TCPIP_STACK_Task
                0x00007030      0x630 build/FreeRTOS/production/_ext/540595297/tcpip_manager.o
                0x00007030                TCPIP_STACK_Task

.text.CommandIperfStart%190
                0x00007660      0x5c4
 .text.CommandIperfStart
                0x00007660      0x5c4 build/FreeRTOS/production/_ext/540595297/iperf.o

.text._TcpSend%191
                0x00007c24      0x5b0
 .text._TcpSend
                0x00007c24      0x5b0 build/FreeRTOS/production/_ext/540595297/tcp.o

.text._printf_float%192
                0x000081d4      0x52c
 .text._printf_float
                0x000081d4      0x52c c:/program files/microchip/xc32/v3.01/bin/bin/../../lib/gcc/pic32c/8.3.1/../../../../pic32c/lib/thumb/v7e-m+fp/hard\libc_nano.a(lib_a-nano-vfprintf_float.o)
                0x000081d4                _printf_float

.text._Command_DNS_Service%193
                0x00008700      0x518
 .text._Command_DNS_Service
                0x00008700      0x518 build/FreeRTOS/production/_ext/540595297/tcpip_commands.o

.text.TCPIP_DHCP_Task%194
                0x00008c18      0x4c0
 .text.TCPIP_DHCP_Task
                0x00008c18      0x4c0 build/FreeRTOS/production/_ext/540595297/dhcp.o
                0x00008c18                TCPIP_DHCP_Task

.rodata%195     0x000090d8      0x490
 .rodata        0x000090d8      0x490 build/FreeRTOS/production/_ext/540595297/tcpip_manager.o

.text._TCPIP_DoInitialize%196
                0x00009568      0x424
 .text._TCPIP_DoInitialize
                0x00009568      0x424 build/FreeRTOS/production/_ext/540595297/tcpip_manager.o

.text.SYS_CMD_Tasks%197
                0x0000998c      0x424
 .text.SYS_CMD_Tasks
                0x0000998c      0x424 build/FreeRTOS/production/_ext/1005353002/sys_command.o
                0x0000998c                SYS_CMD_Tasks

.text%198       0x00009db0      0x424
 .text          0x00009db0      0x424 c:/program files/microchip/xc32/v3.01/bin/bin/../../lib/gcc/pic32c/8.3.1/thumb/v7e-m+fp/hard\libgcc.a(_arm_muldivdf3.o)
                0x00009db0                __aeabi_dmul
                0x00009db0                __muldf3
                0x0000a004                __divdf3
                0x0000a004                __aeabi_ddiv

.text._DNS_ProcessPacket%199
                0x0000a1d4      0x3f8
 .text._DNS_ProcessPacket
                0x0000a1d4      0x3f8 build/FreeRTOS/production/_ext/540595297/dns.o

.text.TCPIP_COMMAND_Task%200
                0x0000a5cc      0x3d0
 .text.TCPIP_COMMAND_Task
                0x0000a5cc      0x3d0 build/FreeRTOS/production/_ext/540595297/tcpip_commands.o
                0x0000a5cc                TCPIP_COMMAND_Task

.text.GenericTxStart%201
                0x0000a99c      0x3cc
 .text.GenericTxStart
                0x0000a99c      0x3cc build/FreeRTOS/production/_ext/540595297/iperf.o

.text.DRV_PIC32CGMAC_LibRxGetPacket%202
                0x0000ad68      0x380
 .text.DRV_PIC32CGMAC_LibRxGetPacket
                0x0000ad68      0x380 build/FreeRTOS/production/_ext/41526634/drv_gmac_lib_samE5x.o
                0x0000ad68                DRV_PIC32CGMAC_LibRxGetPacket

.text%203       0x0000b0e8      0x378
 .text          0x0000b0e8      0x378 c:/program files/microchip/xc32/v3.01/bin/bin/../../lib/gcc/pic32c/8.3.1/thumb/v7e-m+fp/hard\libgcc.a(_arm_addsubdf3.o)
                0x0000b0e8                __aeabi_drsub
                0x0000b0f0                __aeabi_dsub
                0x0000b0f0                __subdf3
                0x0000b0f4                __aeabi_dadd
                0x0000b0f4                __adddf3
                0x0000b36c                __floatunsidf
                0x0000b36c                __aeabi_ui2d
                0x0000b38c                __floatsidf
                0x0000b38c                __aeabi_i2d
                0x0000b3b0                __aeabi_f2d
                0x0000b3b0                __extendsfdf2
                0x0000b3f4                __floatundidf
                0x0000b3f4                __aeabi_ul2d
                0x0000b404                __floatdidf
                0x0000b404                __aeabi_l2d

.text.TCPIP_Helper_StringToIPv6Address%204
                0x0000b460      0x364
 .text.TCPIP_Helper_StringToIPv6Address
                0x0000b460      0x364 build/FreeRTOS/production/_ext/540595297/tcpip_helpers.o
                0x0000b460                TCPIP_Helper_StringToIPv6Address

.text.Transform_Sha256%205
                0x0000b7c4      0x30c
 .text.Transform_Sha256
                0x0000b7c4      0x30c build/FreeRTOS/production/_ext/1664057780/sha256.o

.text.DRV_GMAC_Initialize%206
                0x0000bad0      0x308
 .text.DRV_GMAC_Initialize
                0x0000bad0      0x308 build/FreeRTOS/production/_ext/41526634/drv_gmac.o
                0x0000bad0                DRV_GMAC_Initialize

.text.TCPIP_TCP_FifoSizeAdjust%207
                0x0000bdd8      0x2f0
 .text.TCPIP_TCP_FifoSizeAdjust
                0x0000bdd8      0x2f0 build/FreeRTOS/production/_ext/540595297/tcp.o
                0x0000bdd8                TCPIP_TCP_FifoSizeAdjust

.text.Hash_DRBG_Generate%208
                0x0000c0c8      0x2d0
 .text.Hash_DRBG_Generate
                0x0000c0c8      0x2d0 build/FreeRTOS/production/_ext/1664057780/random.o

.text%209       0x0000c398      0x2d0
 .text          0x0000c398      0x2d0 c:/program files/microchip/xc32/v3.01/bin/bin/../../lib/gcc/pic32c/8.3.1/thumb/v7e-m+fp/hard\libgcc.a(_udivmoddi4.o)
                0x0000c398                __udivmoddi4

.text._TCP_Open%210
                0x0000c668      0x2c0
 .text._TCP_Open
                0x0000c668      0x2c0 build/FreeRTOS/production/_ext/540595297/tcp.o

.text.TCPIP_ARP_Task%211
                0x0000c928      0x2c0
 .text.TCPIP_ARP_Task
                0x0000c928      0x2c0 build/FreeRTOS/production/_ext/540595297/arp.o
                0x0000c928                TCPIP_ARP_Task

.text._DNS_Send_Query%212
                0x0000cbe8      0x290
 .text._DNS_Send_Query
                0x0000cbe8      0x290 build/FreeRTOS/production/_ext/540595297/dns.o

.text._CommandDhcpOptions%213
                0x0000ce78      0x270
 .text._CommandDhcpOptions
                0x0000ce78      0x270 build/FreeRTOS/production/_ext/540595297/tcpip_commands.o

.rodata%214     0x0000d0e8      0x26c
 .rodata        0x0000d0e8      0x26c build/FreeRTOS/production/_ext/1005353002/sys_command.o

.text.ReportBW_Jitter_Loss%215
                0x0000d354      0x25c
 .text.ReportBW_Jitter_Loss
                0x0000d354      0x25c build/FreeRTOS/production/_ext/540595297/iperf.o

.text._CommandPing%216
                0x0000d5b0      0x254
 .text._CommandPing
                0x0000d5b0      0x254 build/FreeRTOS/production/_ext/540595297/tcpip_commands.o

.text.TCPIP_UDP_Task%217
                0x0000d804      0x24c
 .text.TCPIP_UDP_Task
                0x0000d804      0x24c build/FreeRTOS/production/_ext/540595297/udp.o
                0x0000d804                TCPIP_UDP_Task

.text.TCPIP_STACK_BringNetUp%218
                0x0000da50      0x23c
 .text.TCPIP_STACK_BringNetUp
                0x0000da50      0x23c build/FreeRTOS/production/_ext/540595297/tcpip_manager.o

.text.TCPIP_IPV4_Task%219
                0x0000dc8c      0x234
 .text.TCPIP_IPV4_Task
                0x0000dc8c      0x234 build/FreeRTOS/production/_ext/540595297/ipv4.o
                0x0000dc8c                TCPIP_IPV4_Task

.text._printf_i%220
                0x0000dec0      0x228
 .text._printf_i
                0x0000dec0      0x228 c:/program files/microchip/xc32/v3.01/bin/bin/../../lib/gcc/pic32c/8.3.1/../../../../pic32c/lib/thumb/v7e-m+fp/hard\libc_nano.a(lib_a-nano-vfprintf_i.o)
                0x0000dec0                _printf_i

.text.TCPIP_UDP_Flush%221
                0x0000e0e8      0x220
 .text.TCPIP_UDP_Flush
                0x0000e0e8      0x220 build/FreeRTOS/production/_ext/540595297/udp.o
                0x0000e0e8                TCPIP_UDP_Flush

.text.TCPIP_IPV4_PktTx%222
                0x0000e308      0x210
 .text.TCPIP_IPV4_PktTx
                0x0000e308      0x210 build/FreeRTOS/production/_ext/540595297/ipv4.o
                0x0000e308                TCPIP_IPV4_PktTx

.text._Command_NetInfo%223
                0x0000e518      0x20c
 .text._Command_NetInfo
                0x0000e518      0x20c build/FreeRTOS/production/_ext/540595297/tcpip_commands.o

.text.TCPIP_DNS_ClientInitialize%224
                0x0000e724      0x20c
 .text.TCPIP_DNS_ClientInitialize
                0x0000e724      0x20c build/FreeRTOS/production/_ext/540595297/dns.o
                0x0000e724                TCPIP_DNS_ClientInitialize

.text.TCPIP_UDP_OptionsSet%225
                0x0000e930      0x204
 .text.TCPIP_UDP_OptionsSet
                0x0000e930      0x204 build/FreeRTOS/production/_ext/540595297/udp.o
                0x0000e930                TCPIP_UDP_OptionsSet

.text._vfprintf_r%226
                0x0000eb34      0x1f8
 .text._vfprintf_r
                0x0000eb34      0x1f8 c:/program files/microchip/xc32/v3.01/bin/bin/../../lib/gcc/pic32c/8.3.1/../../../../pic32c/lib/thumb/v7e-m+fp/hard\libc_nano.a(lib_a-nano-vfprintf.o)
                0x0000eb34                _vfprintf_r
                0x0000eb34                _vfiprintf_r

.text.Lan867x_Miim_Task%227
                0x0000ed2c      0x1e8
 .text.Lan867x_Miim_Task
                0x0000ed2c      0x1e8 build/FreeRTOS/production/_ext/1231519722/drv_extphy_lan867x.o

.text.TCPIP_ICMP_Task%228
                0x0000ef14      0x1e4
 .text.TCPIP_ICMP_Task
                0x0000ef14      0x1e4 build/FreeRTOS/production/_ext/540595297/icmp.o
                0x0000ef14                TCPIP_ICMP_Task

.text.TCPIP_ARP_Initialize%229
                0x0000f0f8      0x1e4
 .text.TCPIP_ARP_Initialize
                0x0000f0f8      0x1e4 build/FreeRTOS/production/_ext/540595297/arp.o
                0x0000f0f8                TCPIP_ARP_Initialize

.text.xTaskCreate%230
                0x0000f2dc      0x1e4
 .text.xTaskCreate
                0x0000f2dc      0x1e4 build/FreeRTOS/production/_ext/404212886/FreeRTOS_tasks.o
                0x0000f2dc                xTaskCreate

.text._DHCPReceive%231
                0x0000f4c0      0x1dc
 .text._DHCPReceive
                0x0000f4c0      0x1dc build/FreeRTOS/production/_ext/540595297/dhcp.o

.text.GenericTxEnd%232
                0x0000f69c      0x1cc
 .text.GenericTxEnd
                0x0000f69c      0x1cc build/FreeRTOS/production/_ext/540595297/iperf.o

.text._svfprintf_r%233
                0x0000f868      0x1cc
 .text._svfprintf_r
                0x0000f868      0x1cc c:/program files/microchip/xc32/v3.01/bin/bin/../../lib/gcc/pic32c/8.3.1/../../../../pic32c/lib/thumb/v7e-m+fp/hard\libc_nano.a(lib_a-nano-svfprintf.o)
                0x0000f868                _svfiprintf_r
                0x0000f868                _svfprintf_r

.text.DRV_EXTPHY_MIIConfigure%234
                0x0000fa34      0x1c4
 .text.DRV_EXTPHY_MIIConfigure
                0x0000fa34      0x1c4 build/FreeRTOS/production/_ext/1231519722/drv_extphy_lan867x.o

.text._DHCPSend%235
                0x0000fbf8      0x1bc
 .text._DHCPSend
                0x0000fbf8      0x1bc build/FreeRTOS/production/_ext/540595297/dhcp.o

.text.DRV_GMAC_PacketRx%236
                0x0000fdb4      0x1b0
 .text.DRV_GMAC_PacketRx
                0x0000fdb4      0x1b0 build/FreeRTOS/production/_ext/41526634/drv_gmac.o
                0x0000fdb4                DRV_GMAC_PacketRx

.text.DRV_PIC32CGMAC_LibRxFilterHash_Calculate%237
                0x0000ff64      0x1b0
 .text.DRV_PIC32CGMAC_LibRxFilterHash_Calculate
                0x0000ff64      0x1b0 build/FreeRTOS/production/_ext/41526634/drv_gmac_lib_samE5x.o
                0x0000ff64                DRV_PIC32CGMAC_LibRxFilterHash_Calculate

.text.SERCOM1_USART_InterruptHandler%238
                0x00010114      0x1b0
 .text.SERCOM1_USART_InterruptHandler
                0x00010114      0x1b0 build/FreeRTOS/production/_ext/2092608928/plib_sercom1_usart.o
                0x00010114                SERCOM1_USART_InterruptHandler

.text.APP_Tasks%239
                0x000102c4      0x1ac
 .text.APP_Tasks
                0x000102c4      0x1ac build/FreeRTOS/production/_ext/1360937237/app.o
                0x000102c4                APP_Tasks

.text._DRV_ETHPHY_DefaultDetect%240
                0x00010470      0x1a6
 .text._DRV_ETHPHY_DefaultDetect
                0x00010470      0x1a6 build/FreeRTOS/production/_ext/1231519722/drv_ethphy.o

.text.CommandIperfSize%241
                0x00010618      0x190
 .text.CommandIperfSize
                0x00010618      0x190 build/FreeRTOS/production/_ext/540595297/iperf.o

.text.TCPIP_DHCP_Initialize%242
                0x000107a8      0x190
 .text.TCPIP_DHCP_Initialize
                0x000107a8      0x190 build/FreeRTOS/production/_ext/540595297/dhcp.o
                0x000107a8                TCPIP_DHCP_Initialize

.text._Command_MacInfo%243
                0x00010938      0x188
 .text._Command_MacInfo
                0x00010938      0x188 build/FreeRTOS/production/_ext/540595297/tcpip_commands.o

.text.wc_Sha256Final%244
                0x00010ac0      0x188
 .text.wc_Sha256Final
                0x00010ac0      0x188 build/FreeRTOS/production/_ext/1664057780/sha256.o
                0x00010ac0                wc_Sha256Final

.text._InitRng%245
                0x00010c48      0x184
 .text._InitRng
                0x00010c48      0x184 build/FreeRTOS/production/_ext/1664057780/random.o

.text._TcpCloseSocket%246
                0x00010dcc      0x172
 .text._TcpCloseSocket
                0x00010dcc      0x172 build/FreeRTOS/production/_ext/540595297/tcp.o

.text.TCPIP_TCP_ArrayPut%247
                0x00010f40      0x170
 .text.TCPIP_TCP_ArrayPut
                0x00010f40      0x170 build/FreeRTOS/production/_ext/540595297/tcp.o
                0x00010f40                TCPIP_TCP_ArrayPut

.text.SERCOM0_SPI_InterruptHandler%248
                0x000110b0      0x170
 .text.SERCOM0_SPI_InterruptHandler
                0x000110b0      0x170 build/FreeRTOS/production/_ext/1428073114/plib_sercom0_spi_master.o
                0x000110b0                SERCOM0_SPI_InterruptHandler

.text._DHCPOptionHostName%249
                0x00011220      0x16c
 .text._DHCPOptionHostName
                0x00011220      0x16c build/FreeRTOS/production/_ext/540595297/dhcp.o

.text.DRV_PIC32CGMAC_LibTxAckPacket%250
                0x0001138c      0x164
 .text.DRV_PIC32CGMAC_LibTxAckPacket
                0x0001138c      0x164 build/FreeRTOS/production/_ext/41526634/drv_gmac_lib_samE5x.o
                0x0001138c                DRV_PIC32CGMAC_LibTxAckPacket

.text._Command_NetworkOnOff%251
                0x000114f0      0x164
 .text._Command_NetworkOnOff
                0x000114f0      0x164 build/FreeRTOS/production/_ext/540595297/tcpip_commands.o

.text.CommandHelp%252
                0x00011654      0x164
 .text.CommandHelp
                0x00011654      0x164 build/FreeRTOS/production/_ext/1005353002/sys_command.o

.text._UDPOpen%253
                0x000117b8      0x15c
 .text._UDPOpen
                0x000117b8      0x15c build/FreeRTOS/production/_ext/540595297/udp.o

.text.TCPIP_DNS_EntryQuery%254
                0x00011914      0x154
 .text.TCPIP_DNS_EntryQuery
                0x00011914      0x154 build/FreeRTOS/production/_ext/540595297/dns.o
                0x00011914                TCPIP_DNS_EntryQuery

.text.xQueueSemaphoreTake%255
                0x00011a68      0x154
 .text.xQueueSemaphoreTake
                0x00011a68      0x154 build/FreeRTOS/production/_ext/404212886/queue.o
                0x00011a68                xQueueSemaphoreTake

.text.DRV_MIIM_Tasks%256
                0x00011bbc      0x150
 .text.DRV_MIIM_Tasks
                0x00011bbc      0x150 build/FreeRTOS/production/_ext/1149484450/drv_miim.o
                0x00011bbc                DRV_MIIM_Tasks

.text.TCPIP_TCP_Initialize%257
                0x00011d0c      0x150
 .text.TCPIP_TCP_Initialize
                0x00011d0c      0x150 build/FreeRTOS/production/_ext/540595297/tcp.o
                0x00011d0c                TCPIP_TCP_Initialize

.text.wc_Sha256Update%258
                0x00011e5c      0x144
 .text.wc_Sha256Update
                0x00011e5c      0x144 build/FreeRTOS/production/_ext/1664057780/sha256.o
                0x00011e5c                wc_Sha256Update

.text.Hash_df%259
                0x00011fa0      0x13e
 .text.Hash_df  0x00011fa0      0x13e build/FreeRTOS/production/_ext/1664057780/random.o

.text._MACDeinit%260
                0x000120e0      0x13c
 .text._MACDeinit
                0x000120e0      0x13c build/FreeRTOS/production/_ext/41526634/drv_gmac.o

.text.TCPIP_UDP_Deinitialize%261
                0x0001221c      0x13c
 .text.TCPIP_UDP_Deinitialize
                0x0001221c      0x13c build/FreeRTOS/production/_ext/540595297/udp.o
                0x0001221c                TCPIP_UDP_Deinitialize

.text._LoadNetworkConfig%262
                0x00012358      0x138
 .text._LoadNetworkConfig
                0x00012358      0x138 build/FreeRTOS/production/_ext/540595297/tcpip_manager.o

.text.CommandIperfNetIf%263
                0x00012490      0x130
 .text.CommandIperfNetIf
                0x00012490      0x130 build/FreeRTOS/production/_ext/540595297/iperf.o

.text._DNS_Resolve%264
                0x000125c0      0x130
 .text._DNS_Resolve
                0x000125c0      0x130 build/FreeRTOS/production/_ext/540595297/dns.o

.text.SERCOM0_SPI_WriteRead%265
                0x000126f0      0x130
 .text.SERCOM0_SPI_WriteRead
                0x000126f0      0x130 build/FreeRTOS/production/_ext/1428073114/plib_sercom0_spi_master.o
                0x000126f0                SERCOM0_SPI_WriteRead

.text.__multiply%266
                0x00012820      0x130
 .text.__multiply
                0x00012820      0x130 c:/program files/microchip/xc32/v3.01/bin/bin/../../lib/gcc/pic32c/8.3.1/../../../../pic32c/lib/thumb/v7e-m+fp/hard\libc_nano.a(lib_a-mprec.o)
                0x00012820                __multiply

.text.quorem%267
                0x00012950      0x12e
 .text.quorem   0x00012950      0x12e c:/program files/microchip/xc32/v3.01/bin/bin/../../lib/gcc/pic32c/8.3.1/../../../../pic32c/lib/thumb/v7e-m+fp/hard\libc_nano.a(lib_a-dtoa.o)

.text.TCPIP_IPV4_Initialize%268
                0x00012a80      0x128
 .text.TCPIP_IPV4_Initialize
                0x00012a80      0x128 build/FreeRTOS/production/_ext/540595297/ipv4.o
                0x00012a80                TCPIP_IPV4_Initialize

.text.TCPIP_UDP_OptionsGet%269
                0x00012ba8      0x128
 .text.TCPIP_UDP_OptionsGet
                0x00012ba8      0x128 build/FreeRTOS/production/_ext/540595297/udp.o
                0x00012ba8                TCPIP_UDP_OptionsGet

.rodata%270     0x00012cd0      0x128
 .rodata        0x00012cd0      0x128 build/FreeRTOS/production/_ext/1360937237/app.o

.text.TCPIP_UDP_Bind%271
                0x00012df8      0x124
 .text.TCPIP_UDP_Bind
                0x00012df8      0x124 build/FreeRTOS/production/_ext/540595297/udp.o
                0x00012df8                TCPIP_UDP_Bind

.text.xQueueGenericSend%272
                0x00012f1c      0x124
 .text.xQueueGenericSend
                0x00012f1c      0x124 build/FreeRTOS/production/_ext/404212886/queue.o
                0x00012f1c                xQueueGenericSend

.text.DRV_GMAC_Tasks%273
                0x00013040      0x120
 .text.DRV_GMAC_Tasks
                0x00013040      0x120 build/FreeRTOS/production/_ext/41526634/drv_gmac.o
                0x00013040                DRV_GMAC_Tasks

.text.DRV_PIC32CGMAC_LibRxBuffersAppend%274
                0x00013160      0x120
 .text.DRV_PIC32CGMAC_LibRxBuffersAppend
                0x00013160      0x120 build/FreeRTOS/production/_ext/41526634/drv_gmac_lib_samE5x.o
                0x00013160                DRV_PIC32CGMAC_LibRxBuffersAppend

.text._Command_StackOnOff%275
                0x00013280      0x120
 .text._Command_StackOnOff
                0x00013280      0x120 build/FreeRTOS/production/_ext/540595297/tcpip_commands.o

.text.TCPIP_IPV4_PacketFormatTx%276
                0x000133a0      0x120
 .text.TCPIP_IPV4_PacketFormatTx
                0x000133a0      0x120 build/FreeRTOS/production/_ext/540595297/ipv4.o
                0x000133a0                TCPIP_IPV4_PacketFormatTx

.text.TCPIP_Helper_StringToIPAddress%277
                0x000134c0      0x120
 .text.TCPIP_Helper_StringToIPAddress
                0x000134c0      0x120 build/FreeRTOS/production/_ext/540595297/tcpip_helpers.o
                0x000134c0                TCPIP_Helper_StringToIPAddress

.text.DRV_GMAC_EventMaskSet%278
                0x000135e0      0x11c
 .text.DRV_GMAC_EventMaskSet
                0x000135e0      0x11c build/FreeRTOS/production/_ext/41526634/drv_gmac.o
                0x000135e0                DRV_GMAC_EventMaskSet

.text._UDPv4TxAckFnc%279
                0x000136fc      0x11c
 .text._UDPv4TxAckFnc
                0x000136fc      0x11c build/FreeRTOS/production/_ext/540595297/udp.o

.text.wc_RNG_GenerateBlock%280
                0x00013818      0x11c
 .text.wc_RNG_GenerateBlock
                0x00013818      0x11c build/FreeRTOS/production/_ext/1664057780/random.o
                0x00013818                wc_RNG_GenerateBlock

.text.xTaskIncrementTick%281
                0x00013934      0x114
 .text.xTaskIncrementTick
                0x00013934      0x114 build/FreeRTOS/production/_ext/404212886/FreeRTOS_tasks.o
                0x00013934                xTaskIncrementTick

.text.CommandPingHandler%282
                0x00013a48      0x110
 .text.CommandPingHandler
                0x00013a48      0x110 build/FreeRTOS/production/_ext/540595297/tcpip_commands.o

.text%283       0x00013b58      0x110
 .text          0x00013b58      0x110 c:/program files/microchip/xc32/v3.01/bin/bin/../../lib/gcc/pic32c/8.3.1/thumb/v7e-m+fp/hard\libgcc.a(_arm_cmpdf2.o)
                0x00013b58                __gtdf2
                0x00013b58                __gedf2
                0x00013b60                __ltdf2
                0x00013b60                __ledf2
                0x00013b68                __nedf2
                0x00013b68                __eqdf2
                0x00013b68                __cmpdf2
                0x00013be4                __aeabi_cdrcmple
                0x00013bf4                __aeabi_cdcmpeq
                0x00013bf4                __aeabi_cdcmple
                0x00013c04                __aeabi_dcmpeq
                0x00013c18                __aeabi_dcmplt
                0x00013c2c                __aeabi_dcmple
                0x00013c40                __aeabi_dcmpge
                0x00013c54                __aeabi_dcmpgt

.text._Tcpv4TxAckFnc%284
                0x00013c68      0x10c
 .text._Tcpv4TxAckFnc
                0x00013c68      0x10c build/FreeRTOS/production/_ext/540595297/tcp.o

.text.__sflush_r%285
                0x00013d74      0x10c
 .text.__sflush_r
                0x00013d74      0x10c c:/program files/microchip/xc32/v3.01/bin/bin/../../lib/gcc/pic32c/8.3.1/../../../../pic32c/lib/thumb/v7e-m+fp/hard\libc_nano.a(lib_a-fflush.o)
                0x00013d74                __sflush_r

.text._TCPIP_HEAP_Free%286
                0x00013e80      0x10a
 .text._TCPIP_HEAP_Free
                0x00013e80      0x10a build/FreeRTOS/production/_ext/540595297/tcpip_heap_internal.o

.text.TCPIP_TCP_OptionsSet%287
                0x00013f8a      0x106
 .text.TCPIP_TCP_OptionsSet
                0x00013f8a      0x106 build/FreeRTOS/production/_ext/540595297/tcp.o
                0x00013f8a                TCPIP_TCP_OptionsSet

.text.TCPIP_UDP_Initialize%288
                0x00014090      0x104
 .text.TCPIP_UDP_Initialize
                0x00014090      0x104 build/FreeRTOS/production/_ext/540595297/udp.o
                0x00014090                TCPIP_UDP_Initialize

.rodata._ctype_%289
                0x00014194      0x101
 .rodata._ctype_
                0x00014194      0x101 c:/program files/microchip/xc32/v3.01/bin/bin/../../lib/gcc/pic32c/8.3.1/../../../../pic32c/lib/thumb/v7e-m+fp/hard\libc_nano.a(lib_a-ctype_.o)
                0x00014194                _ctype_

.rodata.K%290   0x00014298      0x100
 .rodata.K      0x00014298      0x100 build/FreeRTOS/production/_ext/1664057780/sha256.o

.text.wc_Md5Update%291
                0x00014398       0xfe
 .text.wc_Md5Update
                0x00014398       0xfe build/FreeRTOS/production/_ext/1664057780/md5.o
                0x00014398                wc_Md5Update

.text.TCPIP_ICMP_EchoRequest%292
                0x00014498       0xfc
 .text.TCPIP_ICMP_EchoRequest
                0x00014498       0xfc build/FreeRTOS/production/_ext/540595297/icmp.o
                0x00014498                TCPIP_ICMP_EchoRequest

.text._Command_AddressService%293
                0x00014594       0xfc
 .text._Command_AddressService
                0x00014594       0xfc build/FreeRTOS/production/_ext/540595297/tcpip_commands.o

.text._Command_HeapInfo%294
                0x00014690       0xfc
 .text._Command_HeapInfo
                0x00014690       0xfc build/FreeRTOS/production/_ext/540595297/tcpip_commands.o

.text.CLOCK_Initialize%295
                0x0001478c       0xf8
 .text.CLOCK_Initialize
                0x0001478c       0xf8 build/FreeRTOS/production/_ext/892004133/plib_clock.o
                0x0001478c                CLOCK_Initialize

.text.TCPIP_TCP_Deinitialize%296
                0x00014884       0xf0
 .text.TCPIP_TCP_Deinitialize
                0x00014884       0xf0 build/FreeRTOS/production/_ext/540595297/tcp.o
                0x00014884                TCPIP_TCP_Deinitialize

.text.TCPIP_ARP_EntryRemoveNet%297
                0x00014974       0xf0
 .text.TCPIP_ARP_EntryRemoveNet
                0x00014974       0xf0 build/FreeRTOS/production/_ext/540595297/arp.o
                0x00014974                TCPIP_ARP_EntryRemoveNet

.text._DNS_IsNameResolved%298
                0x00014a64       0xf0
 .text._DNS_IsNameResolved
                0x00014a64       0xf0 build/FreeRTOS/production/_ext/540595297/dns.o

.text.TCPIP_DNS_ClientTask%299
                0x00014b54       0xf0
 .text.TCPIP_DNS_ClientTask
                0x00014b54       0xf0 build/FreeRTOS/production/_ext/540595297/dns.o
                0x00014b54                TCPIP_DNS_ClientTask

.text._ARPProbeAddress%300
                0x00014c44       0xec
 .text._ARPProbeAddress
                0x00014c44       0xec build/FreeRTOS/production/_ext/540595297/arp.o

.text._DNS_GetAddresses%301
                0x00014d30       0xec
 .text._DNS_GetAddresses
                0x00014d30       0xec build/FreeRTOS/production/_ext/540595297/dns.o

.text._strtol_l.isra.0%302
                0x00014e1c       0xec
 .text._strtol_l.isra.0
                0x00014e1c       0xec c:/program files/microchip/xc32/v3.01/bin/bin/../../lib/gcc/pic32c/8.3.1/../../../../pic32c/lib/thumb/v7e-m+fp/hard\libc_nano.a(lib_a-strtol.o)

.text._printf_common%303
                0x00014f08       0xea
 .text._printf_common
                0x00014f08       0xea c:/program files/microchip/xc32/v3.01/bin/bin/../../lib/gcc/pic32c/8.3.1/../../../../pic32c/lib/thumb/v7e-m+fp/hard\libc_nano.a(lib_a-nano-vfprintf_i.o)
                0x00014f08                _printf_common

.text.DRV_PIC32CGMAC_LibTxSendPacket%304
                0x00014ff4       0xe8
 .text.DRV_PIC32CGMAC_LibTxSendPacket
                0x00014ff4       0xe8 build/FreeRTOS/production/_ext/41526634/drv_gmac_lib_samE5x.o
                0x00014ff4                DRV_PIC32CGMAC_LibTxSendPacket

.text._Command_IPAddressSet%305
                0x000150dc       0xe8
 .text._Command_IPAddressSet
                0x000150dc       0xe8 build/FreeRTOS/production/_ext/540595297/tcpip_commands.o

.text.xTaskResumeAll%306
                0x000151c4       0xe4
 .text.xTaskResumeAll
                0x000151c4       0xe4 build/FreeRTOS/production/_ext/404212886/FreeRTOS_tasks.o
                0x000151c4                xTaskResumeAll

.text.TCPIP_UDP_ArrayGet%307
                0x000152a8       0xde
 .text.TCPIP_UDP_ArrayGet
                0x000152a8       0xde build/FreeRTOS/production/_ext/540595297/udp.o
                0x000152a8                TCPIP_UDP_ArrayGet

.text.DRV_ETHPHY_Setup%308
                0x00015388       0xdc
 .text.DRV_ETHPHY_Setup
                0x00015388       0xdc build/FreeRTOS/production/_ext/1231519722/drv_ethphy.o
                0x00015388                DRV_ETHPHY_Setup

.text.__swsetup_r%309
                0x00015464       0xdc
 .text.__swsetup_r
                0x00015464       0xdc c:/program files/microchip/xc32/v3.01/bin/bin/../../lib/gcc/pic32c/8.3.1/../../../../pic32c/lib/thumb/v7e-m+fp/hard\libc_nano.a(lib_a-wsetup.o)
                0x00015464                __swsetup_r

.text.SYS_TIME_PLIBCallback%310
                0x00015540       0xd4
 .text.SYS_TIME_PLIBCallback
                0x00015540       0xd4 build/FreeRTOS/production/_ext/832704728/sys_time.o

.text.ssd1306_init%311
                0x00015614       0xd4
 .text.ssd1306_init
                0x00015614       0xd4 build/FreeRTOS/production/_ext/1434865757/gfx_ssd1306.o
                0x00015614                ssd1306_init

.text._DRV_ETHPHY_NegResultPhase_ANAD%312
                0x000156e8       0xd2
 .text._DRV_ETHPHY_NegResultPhase_ANAD
                0x000156e8       0xd2 build/FreeRTOS/production/_ext/1231519722/drv_ethphy.o

.text.DRV_ETHPHY_Detect%313
                0x000157ba       0xd0
 .text.DRV_ETHPHY_Detect
                0x000157ba       0xd0 build/FreeRTOS/production/_ext/1231519722/drv_extphy_lan867x.o

.text.DRV_GMAC_PacketTx%314
                0x0001588c       0xcc
 .text.DRV_GMAC_PacketTx
                0x0001588c       0xcc build/FreeRTOS/production/_ext/41526634/drv_gmac.o
                0x0001588c                DRV_GMAC_PacketTx

.text.TCPIP_TCP_ArrayGet%315
                0x00015958       0xcc
 .text.TCPIP_TCP_ArrayGet
                0x00015958       0xcc build/FreeRTOS/production/_ext/540595297/tcp.o
                0x00015958                TCPIP_TCP_ArrayGet

.text.TCPIP_HEAP_CreateInternal%316
                0x00015a24       0xcc
 .text.TCPIP_HEAP_CreateInternal
                0x00015a24       0xcc build/FreeRTOS/production/_ext/540595297/tcpip_heap_internal.o
                0x00015a24                TCPIP_HEAP_CreateInternal

.text.DRV_PIC32CGMAC_LibRxInit%317
                0x00015af0       0xc8
 .text.DRV_PIC32CGMAC_LibRxInit
                0x00015af0       0xc8 build/FreeRTOS/production/_ext/41526634/drv_gmac_lib_samE5x.o
                0x00015af0                DRV_PIC32CGMAC_LibRxInit

.text._Command_DNSAddressSet%318
                0x00015bb8       0xc8
 .text._Command_DNSAddressSet
                0x00015bb8       0xc8 build/FreeRTOS/production/_ext/540595297/tcpip_commands.o

.text.gfx_mono_generic_draw_horizontal_line%319
                0x00015c80       0xc8
 .text.gfx_mono_generic_draw_horizontal_line
                0x00015c80       0xc8 build/FreeRTOS/production/_ext/1434865757/gfx_mono_generic.o
                0x00015c80                gfx_mono_generic_draw_horizontal_line

.text.__mdiff%320
                0x00015d48       0xc8
 .text.__mdiff  0x00015d48       0xc8 c:/program files/microchip/xc32/v3.01/bin/bin/../../lib/gcc/pic32c/8.3.1/../../../../pic32c/lib/thumb/v7e-m+fp/hard\libc_nano.a(lib_a-mprec.o)
                0x00015d48                __mdiff

.rodata.__mprec_tens%321
                0x00015e10       0xc8
 .rodata.__mprec_tens
                0x00015e10       0xc8 c:/program files/microchip/xc32/v3.01/bin/bin/../../lib/gcc/pic32c/8.3.1/../../../../pic32c/lib/thumb/v7e-m+fp/hard\libc_nano.a(lib_a-mprec.o)
                0x00015e10                __mprec_tens

.text._DRV_MIIM_StartOp%322
                0x00015ed8       0xc4
 .text._DRV_MIIM_StartOp
                0x00015ed8       0xc4 build/FreeRTOS/production/_ext/1149484450/drv_miim.o

.text.TCPIP_UDP_OpenServerSkt%323
                0x00015f9c       0xc4
 .text.TCPIP_UDP_OpenServerSkt
                0x00015f9c       0xc4 build/FreeRTOS/production/_ext/540595297/udp.o
                0x00015f9c                TCPIP_UDP_OpenServerSkt

.text.TCPIP_TCP_Bind%324
                0x00016060       0xc0
 .text.TCPIP_TCP_Bind
                0x00016060       0xc0 build/FreeRTOS/production/_ext/540595297/tcp.o
                0x00016060                TCPIP_TCP_Bind

.text._Command_DefaultInterfaceSet%325
                0x00016120       0xc0
 .text._Command_DefaultInterfaceSet
                0x00016120       0xc0 build/FreeRTOS/production/_ext/540595297/tcpip_commands.o

.rodata.tcpipCmdTbl%326
                0x000161e0       0xc0
 .rodata.tcpipCmdTbl
                0x000161e0       0xc0 build/FreeRTOS/production/_ext/540595297/tcpip_commands.o

.text.TCPIP_Helper_StringToMACAddress%327
                0x000162a0       0xc0
 .text.TCPIP_Helper_StringToMACAddress
                0x000162a0       0xc0 build/FreeRTOS/production/_ext/540595297/tcpip_helpers.o
                0x000162a0                TCPIP_Helper_StringToMACAddress

.text._DRV_MIIM_ClientDeallocate%328
                0x00016360       0xbc
 .text._DRV_MIIM_ClientDeallocate
                0x00016360       0xbc build/FreeRTOS/production/_ext/1149484450/drv_miim.o

.text.TCPIP_IPV4_DeInitialize%329
                0x0001641c       0xbc
 .text.TCPIP_IPV4_DeInitialize
                0x0001641c       0xbc build/FreeRTOS/production/_ext/540595297/ipv4.o
                0x0001641c                TCPIP_IPV4_DeInitialize

.text.TCPIP_STACK_KillStack%330
                0x000164d8       0xbc
 .text.TCPIP_STACK_KillStack
                0x000164d8       0xbc build/FreeRTOS/production/_ext/540595297/tcpip_manager.o

.text.PORT_Initialize%331
                0x00016594       0xbc
 .text.PORT_Initialize
                0x00016594       0xbc build/FreeRTOS/production/_ext/1494856054/plib_port.o
                0x00016594                PORT_Initialize

.text.__swbuf_r%332
                0x00016650       0xbc
 .text.__swbuf_r
                0x00016650       0xbc c:/program files/microchip/xc32/v3.01/bin/bin/../../lib/gcc/pic32c/8.3.1/../../../../pic32c/lib/thumb/v7e-m+fp/hard\libc_nano.a(lib_a-wbuf.o)
                0x00016650                __swbuf_r

.text._GetMaxSegSizeOption%333
                0x0001670c       0xba
 .text._GetMaxSegSizeOption
                0x0001670c       0xba build/FreeRTOS/production/_ext/540595297/tcp.o

.text.CommandIperfStop%334
                0x000167c8       0xb8
 .text.CommandIperfStop
                0x000167c8       0xb8 build/FreeRTOS/production/_ext/540595297/iperf.o

.text.TCPIP_IPERF_Initialize%335
                0x00016880       0xb8
 .text.TCPIP_IPERF_Initialize
                0x00016880       0xb8 build/FreeRTOS/production/_ext/540595297/iperf.o
                0x00016880                TCPIP_IPERF_Initialize

.text.TCPIP_IPV4_ArpHandler%336
                0x00016938       0xb8
 .text.TCPIP_IPV4_ArpHandler
                0x00016938       0xb8 build/FreeRTOS/production/_ext/540595297/ipv4.o

.text.wc_Md5Final%337
                0x000169f0       0xb8
 .text.wc_Md5Final
                0x000169f0       0xb8 build/FreeRTOS/production/_ext/1664057780/md5.o
                0x000169f0                wc_Md5Final

.text.gfx_mono_draw_char%338
                0x00016aa8       0xb8
 .text.gfx_mono_draw_char
                0x00016aa8       0xb8 build/FreeRTOS/production/_ext/1434865757/gfx_mono_text.o
                0x00016aa8                gfx_mono_draw_char

.text.__ssputs_r%339
                0x00016b60       0xb6
 .text.__ssputs_r
                0x00016b60       0xb6 c:/program files/microchip/xc32/v3.01/bin/bin/../../lib/gcc/pic32c/8.3.1/../../../../pic32c/lib/thumb/v7e-m+fp/hard\libc_nano.a(lib_a-__ssputs.o)
                0x00016b60                __ssputs_r

.text._ARPSendIfPkt%340
                0x00016c18       0xb4
 .text._ARPSendIfPkt
                0x00016c18       0xb4 build/FreeRTOS/production/_ext/540595297/arp.o

.text.SYS_TIME_HwTimerCompareUpdate%341
                0x00016ccc       0xb4
 .text.SYS_TIME_HwTimerCompareUpdate
                0x00016ccc       0xb4 build/FreeRTOS/production/_ext/832704728/sys_time.o

.text._malloc_r%342
                0x00016d80       0xb4
 .text._malloc_r
                0x00016d80       0xb4 c:/program files/microchip/xc32/v3.01/bin/bin/../../lib/gcc/pic32c/8.3.1/../../../../pic32c/lib/thumb/v7e-m+fp/hard\libc_nano.a(lib_a-nano-mallocr.o)
                0x00016d80                _malloc_r

.text.TCPIP_STACK_NetUp%343
                0x00016e34       0xb0
 .text.TCPIP_STACK_NetUp
                0x00016e34       0xb0 build/FreeRTOS/production/_ext/540595297/tcpip_manager.o
                0x00016e34                TCPIP_STACK_NetUp

.text.SYS_TIME_TimerObjectCreate%344
                0x00016ee4       0xb0
 .text.SYS_TIME_TimerObjectCreate
                0x00016ee4       0xb0 build/FreeRTOS/production/_ext/832704728/sys_time.o

.text.SYS_TIME_Initialize%345
                0x00016f94       0xb0
 .text.SYS_TIME_Initialize
                0x00016f94       0xb0 build/FreeRTOS/production/_ext/832704728/sys_time.o
                0x00016f94                SYS_TIME_Initialize

.text.TCPIP_Commands_Initialize%346
                0x00017044       0xac
 .text.TCPIP_Commands_Initialize
                0x00017044       0xac build/FreeRTOS/production/_ext/540595297/tcpip_commands.o
                0x00017044                TCPIP_Commands_Initialize

.text._TcpDisconnect%347
                0x000170f0       0xaa
 .text._TcpDisconnect
                0x000170f0       0xaa build/FreeRTOS/production/_ext/540595297/tcp.o

.text._TCPIP_HEAP_Malloc%348
                0x0001719a       0xaa
 .text._TCPIP_HEAP_Malloc
                0x0001719a       0xaa build/FreeRTOS/production/_ext/540595297/tcpip_heap_internal.o

.text.Hash_DRBG_Reseed%349
                0x00017244       0xaa
 .text.Hash_DRBG_Reseed
                0x00017244       0xaa build/FreeRTOS/production/_ext/1664057780/random.o

.text._DRV_ETHPHY_SetupPhaseReset%350
                0x000172f0       0xa8
 .text._DRV_ETHPHY_SetupPhaseReset
                0x000172f0       0xa8 build/FreeRTOS/production/_ext/1231519722/drv_ethphy.o

.text._TCP_SktSetSequenceNo%351
                0x00017398       0xa8
 .text._TCP_SktSetSequenceNo
                0x00017398       0xa8 build/FreeRTOS/production/_ext/540595297/tcp.o

.text.TCPIP_TCP_ServerOpen%352
                0x00017440       0xa8
 .text.TCPIP_TCP_ServerOpen
                0x00017440       0xa8 build/FreeRTOS/production/_ext/540595297/tcp.o
                0x00017440                TCPIP_TCP_ServerOpen

.text.SERCOM1_USART_Write%353
                0x000174e8       0xa8
 .text.SERCOM1_USART_Write
                0x000174e8       0xa8 build/FreeRTOS/production/_ext/2092608928/plib_sercom1_usart.o
                0x000174e8                SERCOM1_USART_Write

.text.vTaskSwitchContext%354
                0x00017590       0xa8
 .text.vTaskSwitchContext
                0x00017590       0xa8 build/FreeRTOS/production/_ext/404212886/FreeRTOS_tasks.o
                0x00017590                vTaskSwitchContext

.text.xTaskPriorityInherit%355
                0x00017638       0xa8
 .text.xTaskPriorityInherit
                0x00017638       0xa8 build/FreeRTOS/production/_ext/404212886/FreeRTOS_tasks.o
                0x00017638                xTaskPriorityInherit

.text.__lshift%356
                0x000176e0       0xa6
 .text.__lshift
                0x000176e0       0xa6 c:/program files/microchip/xc32/v3.01/bin/bin/../../lib/gcc/pic32c/8.3.1/../../../../pic32c/lib/thumb/v7e-m+fp/hard\libc_nano.a(lib_a-mprec.o)
                0x000176e0                __lshift

.text._DHCPProcessReceiveData%357
                0x00017788       0xa4
 .text._DHCPProcessReceiveData
                0x00017788       0xa4 build/FreeRTOS/production/_ext/540595297/dhcp.o

.text._DRV_ETHPHY_SetupPhaseNegotiate_SubPhase0%358
                0x0001782c       0xa2
 .text._DRV_ETHPHY_SetupPhaseNegotiate_SubPhase0
                0x0001782c       0xa2 build/FreeRTOS/production/_ext/1231519722/drv_ethphy.o

.text.TCPIP_Helper_IPv6AddressToString%359
                0x000178ce       0xa2
 .text.TCPIP_Helper_IPv6AddressToString
                0x000178ce       0xa2 build/FreeRTOS/production/_ext/540595297/tcpip_helpers.o
                0x000178ce                TCPIP_Helper_IPv6AddressToString

.text.wc_RNG_HealthTest_ex%360
                0x00017970       0xa2
 .text.wc_RNG_HealthTest_ex
                0x00017970       0xa2 build/FreeRTOS/production/_ext/1664057780/random.o
                0x00017970                wc_RNG_HealthTest_ex

.text._ARPDeleteResources%361
                0x00017a14       0xa0
 .text._ARPDeleteResources
                0x00017a14       0xa0 build/FreeRTOS/production/_ext/540595297/arp.o

.text._UDPv4AllocateSktTxBuffer%362
                0x00017ab4       0xa0
 .text._UDPv4AllocateSktTxBuffer
                0x00017ab4       0xa0 build/FreeRTOS/production/_ext/540595297/udp.o

.text.TCPIP_UDP_Disconnect%363
                0x00017b54       0xa0
 .text.TCPIP_UDP_Disconnect
                0x00017b54       0xa0 build/FreeRTOS/production/_ext/540595297/udp.o
                0x00017b54                TCPIP_UDP_Disconnect

.text%364       0x00017c00       0xa0
 .text          0x00017c00       0xa0 c:/program files/microchip/xc32/v3.01/bin/bin/../../lib/gcc/pic32c/8.3.1/../../../../pic32c/lib/thumb/v7e-m+fp/hard\libc_nano.a(lib_a-memchr.o)
                0x00017c00                memchr

.text._DRV_PHY_SMITransferStart%365
                0x00017ca0       0x9e
 .text._DRV_PHY_SMITransferStart
                0x00017ca0       0x9e build/FreeRTOS/production/_ext/1231519722/drv_ethphy.o

.text.__d2b%366
                0x00017d3e       0x9e
 .text.__d2b    0x00017d3e       0x9e c:/program files/microchip/xc32/v3.01/bin/bin/../../lib/gcc/pic32c/8.3.1/../../../../pic32c/lib/thumb/v7e-m+fp/hard\libc_nano.a(lib_a-mprec.o)
                0x00017d3e                __d2b

.text.DRV_MIIM_Setup%367
                0x00017ddc       0x9c
 .text.DRV_MIIM_Setup
                0x00017ddc       0x9c build/FreeRTOS/production/_ext/1149484450/drv_miim.o
                0x00017ddc                DRV_MIIM_Setup

.text._Command_MACAddressSet%368
                0x00017e78       0x9c
 .text._Command_MACAddressSet
                0x00017e78       0x9c build/FreeRTOS/production/_ext/540595297/tcpip_commands.o

.text._free_r%369
                0x00017f14       0x9c
 .text._free_r  0x00017f14       0x9c c:/program files/microchip/xc32/v3.01/bin/bin/../../lib/gcc/pic32c/8.3.1/../../../../pic32c/lib/thumb/v7e-m+fp/hard\libc_nano.a(lib_a-nano-freer.o)
                0x00017f14                _free_r

.text.__pow5mult%370
                0x00017fb0       0x9c
 .text.__pow5mult
                0x00017fb0       0x9c c:/program files/microchip/xc32/v3.01/bin/bin/../../lib/gcc/pic32c/8.3.1/../../../../pic32c/lib/thumb/v7e-m+fp/hard\libc_nano.a(lib_a-mprec.o)
                0x00017fb0                __pow5mult

.text.Lan867x_Write_Bit_Register%371
                0x0001804c       0x9a
 .text.Lan867x_Write_Bit_Register
                0x0001804c       0x9a build/FreeRTOS/production/_ext/1231519722/drv_extphy_lan867x.o
                0x0001804c                Lan867x_Write_Bit_Register

.text._DRV_ETHPHY_SetupPhaseDetect%372
                0x000180e8       0x98
 .text._DRV_ETHPHY_SetupPhaseDetect
                0x000180e8       0x98 build/FreeRTOS/production/_ext/1231519722/drv_ethphy.o

.text.DRV_GMAC_StatisticsGet%373
                0x00018180       0x98
 .text.DRV_GMAC_StatisticsGet
                0x00018180       0x98 build/FreeRTOS/production/_ext/41526634/drv_gmac.o
                0x00018180                DRV_GMAC_StatisticsGet

.text._DHCPEnable%374
                0x00018218       0x98
 .text._DHCPEnable
                0x00018218       0x98 build/FreeRTOS/production/_ext/540595297/dhcp.o

.text.TCPIP_DHCP_Request%375
                0x000182b0       0x98
 .text.TCPIP_DHCP_Request
                0x000182b0       0x98 build/FreeRTOS/production/_ext/540595297/dhcp.o
                0x000182b0                TCPIP_DHCP_Request

.text.TCPIP_DHCP_InfoGet%376
                0x00018348       0x98
 .text.TCPIP_DHCP_InfoGet
                0x00018348       0x98 build/FreeRTOS/production/_ext/540595297/dhcp.o
                0x00018348                TCPIP_DHCP_InfoGet

.text.DisplayNodeMsg%377
                0x000183e0       0x98
 .text.DisplayNodeMsg
                0x000183e0       0x98 build/FreeRTOS/production/_ext/1005353002/sys_command.o

.text.prvAddCurrentTaskToDelayedList%378
                0x00018478       0x98
 .text.prvAddCurrentTaskToDelayedList
                0x00018478       0x98 build/FreeRTOS/production/_ext/404212886/FreeRTOS_tasks.o

.text.DRV_PIC32CGMAC_LibInitTransfer%379
                0x00018510       0x94
 .text.DRV_PIC32CGMAC_LibInitTransfer
                0x00018510       0x94 build/FreeRTOS/production/_ext/41526634/drv_gmac_lib_samE5x.o
                0x00018510                DRV_PIC32CGMAC_LibInitTransfer

.text.TCPIP_ARP_IsResolved%380
                0x000185a4       0x94
 .text.TCPIP_ARP_IsResolved
                0x000185a4       0x94 build/FreeRTOS/production/_ext/540595297/arp.o
                0x000185a4                TCPIP_ARP_IsResolved

.text.ascii_to_u32s%381
                0x00018638       0x94
 .text.ascii_to_u32s
                0x00018638       0x94 build/FreeRTOS/production/_ext/540595297/iperf.o

.text.DRV_MIIM_OperationResult%382
                0x000186cc       0x90
 .text.DRV_MIIM_OperationResult
                0x000186cc       0x90 build/FreeRTOS/production/_ext/1149484450/drv_miim.o
                0x000186cc                DRV_MIIM_OperationResult

.text._DHCPCleanup%383
                0x0001875c       0x90
 .text._DHCPCleanup
                0x0001875c       0x90 build/FreeRTOS/production/_ext/540595297/dhcp.o

.text._TCPIPStackModuleRxPurge%384
                0x000187ec       0x90
 .text._TCPIPStackModuleRxPurge
                0x000187ec       0x90 build/FreeRTOS/production/_ext/540595297/tcpip_manager.o
                0x000187ec                _TCPIPStackModuleRxPurge

.text.NVIC_Initialize%385
                0x0001887c       0x90
 .text.NVIC_Initialize
                0x0001887c       0x90 build/FreeRTOS/production/_ext/1494909205/plib_nvic.o
                0x0001887c                NVIC_Initialize

.text.SYS_TIME_AddToList%386
                0x0001890c       0x90
 .text.SYS_TIME_AddToList
                0x0001890c       0x90 build/FreeRTOS/production/_ext/832704728/sys_time.o

.text.Reset_Handler%387
                0x0001899c       0x90
 .text.Reset_Handler
                0x0001899c       0x90 build/FreeRTOS/production/_ext/161576091/startup_xc32.o
                0x0001899c                Reset_Handler

.text._DHCPClientClose%388
                0x00018a2c       0x8c
 .text._DHCPClientClose
                0x00018a2c       0x8c build/FreeRTOS/production/_ext/540595297/dhcp.o

.text.TCPIP_STACK_Initialize%389
                0x00018ab8       0x8c
 .text.TCPIP_STACK_Initialize
                0x00018ab8       0x8c build/FreeRTOS/production/_ext/540595297/tcpip_manager.o
                0x00018ab8                TCPIP_STACK_Initialize

.text._UDPsetPacketInfo%390
                0x00018b44       0x8c
 .text._UDPsetPacketInfo
                0x00018b44       0x8c build/FreeRTOS/production/_ext/540595297/udp.o

.text.__smakebuf_r%391
                0x00018bd0       0x8c
 .text.__smakebuf_r
                0x00018bd0       0x8c c:/program files/microchip/xc32/v3.01/bin/bin/../../lib/gcc/pic32c/8.3.1/../../../../pic32c/lib/thumb/v7e-m+fp/hard\libc_nano.a(lib_a-makebuf.o)
                0x00018bd0                __smakebuf_r

.text._Command_GatewayAddressSet%392
                0x00018c5c       0x88
 .text._Command_GatewayAddressSet
                0x00018c5c       0x88 build/FreeRTOS/production/_ext/540595297/tcpip_commands.o

.text._DHCPPacketFilter%393
                0x00018ce4       0x88
 .text._DHCPPacketFilter
                0x00018ce4       0x88 build/FreeRTOS/production/_ext/540595297/dhcp.o

.text._DHCPSetLeaseTimeParams%394
                0x00018d6c       0x88
 .text._DHCPSetLeaseTimeParams
                0x00018d6c       0x88 build/FreeRTOS/production/_ext/540595297/dhcp.o

.text._OAHashFindBkt%395
                0x00018df4       0x88
 .text._OAHashFindBkt
                0x00018df4       0x88 build/FreeRTOS/production/_ext/540595297/oahash.o

.text.SYS_CMDIO_ADD%396
                0x00018e7c       0x88
 .text.SYS_CMDIO_ADD
                0x00018e7c       0x88 build/FreeRTOS/production/_ext/1005353002/sys_command.o
                0x00018e7c                SYS_CMDIO_ADD

.text.__pic32c_data_initialization%397
                0x00018f04       0x88
 .text.__pic32c_data_initialization
                0x00018f04       0x88 c:/program files/microchip/xc32/v3.01/bin/bin/../../lib/gcc/pic32c/8.3.1/../../../../pic32c/lib/thumb/v7e-m+fp/hard\libpic32c.a(data_init.o)
                0x00018f04                __pic32c_data_initialization

.text.TCPIP_IPV4_MacPacketSwitchTxToRx%398
                0x00018f8c       0x84
 .text.TCPIP_IPV4_MacPacketSwitchTxToRx
                0x00018f8c       0x84 build/FreeRTOS/production/_ext/540595297/ipv4.o
                0x00018f8c                TCPIP_IPV4_MacPacketSwitchTxToRx

.text.TCPIP_STACK_NetAddressSet%399
                0x00019010       0x84
 .text.TCPIP_STACK_NetAddressSet
                0x00019010       0x84 build/FreeRTOS/production/_ext/540595297/tcpip_manager.o
                0x00019010                TCPIP_STACK_NetAddressSet

.text._TCPIP_PKT_PacketAlloc%400
                0x00019094       0x84
 .text._TCPIP_PKT_PacketAlloc
                0x00019094       0x84 build/FreeRTOS/production/_ext/540595297/tcpip_packet.o
                0x00019094                _TCPIP_PKT_PacketAlloc

.text.DRV_PIC32CGMAC_LibTxAckErrPacket%401
                0x00019118       0x82
 .text.DRV_PIC32CGMAC_LibTxAckErrPacket
                0x00019118       0x82 build/FreeRTOS/production/_ext/41526634/drv_gmac_lib_samE5x.o
                0x00019118                DRV_PIC32CGMAC_LibTxAckErrPacket

.text._DNS_ValidateIf%402
                0x0001919a       0x82
 .text._DNS_ValidateIf
                0x0001919a       0x82 build/FreeRTOS/production/_ext/540595297/dns.o

.text.TCPIP_Helper_PacketChecksum%403
                0x0001921c       0x82
 .text.TCPIP_Helper_PacketChecksum
                0x0001921c       0x82 build/FreeRTOS/production/_ext/540595297/tcpip_helpers.o
                0x0001921c                TCPIP_Helper_PacketChecksum

.text.__fputwc%404
                0x0001929e       0x82
 .text.__fputwc
                0x0001929e       0x82 c:/program files/microchip/xc32/v3.01/bin/bin/../../lib/gcc/pic32c/8.3.1/../../../../pic32c/lib/thumb/v7e-m+fp/hard\libc_nano.a(lib_a-fputwc.o)
                0x0001929e                __fputwc

.text.DRV_ETHPHY_VendorSMIReadStart%405
                0x00019320       0x80
 .text.DRV_ETHPHY_VendorSMIReadStart
                0x00019320       0x80 build/FreeRTOS/production/_ext/1231519722/drv_ethphy.o
                0x00019320                DRV_ETHPHY_VendorSMIReadStart

.text.DRV_ETHPHY_VendorSMIWriteStart%406
                0x000193a0       0x80
 .text.DRV_ETHPHY_VendorSMIWriteStart
                0x000193a0       0x80 build/FreeRTOS/production/_ext/1231519722/drv_ethphy.o
                0x000193a0                DRV_ETHPHY_VendorSMIWriteStart

.text.SERCOM1_USART_Initialize%407
                0x00019420       0x80
 .text.SERCOM1_USART_Initialize
                0x00019420       0x80 build/FreeRTOS/production/_ext/2092608928/plib_sercom1_usart.o
                0x00019420                SERCOM1_USART_Initialize

.text.SendCommandPrint%408
                0x000194a0       0x80
 .text.SendCommandPrint
                0x000194a0       0x80 build/FreeRTOS/production/_ext/1005353002/sys_command.o

.text.xTaskPriorityDisinherit%409
                0x00019520       0x80
 .text.xTaskPriorityDisinherit
                0x00019520       0x80 build/FreeRTOS/production/_ext/404212886/FreeRTOS_tasks.o
                0x00019520                xTaskPriorityDisinherit

.text.vTaskPriorityDisinheritAfterTimeout%410
                0x000195a0       0x80
 .text.vTaskPriorityDisinheritAfterTimeout
                0x000195a0       0x80 build/FreeRTOS/production/_ext/404212886/FreeRTOS_tasks.o
                0x000195a0                vTaskPriorityDisinheritAfterTimeout

.rodata.outputA_data%411
                0x00019620       0x80
 .rodata.outputA_data
                0x00019620       0x80 build/FreeRTOS/production/_ext/1664057780/random.o
                0x00019620                outputA_data

.rodata.outputB_data%412
                0x000196a0       0x80
 .rodata.outputB_data
                0x000196a0       0x80 build/FreeRTOS/production/_ext/1664057780/random.o
                0x000196a0                outputB_data

.text.prvUnlockQueue%413
                0x00019720       0x7e
 .text.prvUnlockQueue
                0x00019720       0x7e build/FreeRTOS/production/_ext/404212886/queue.o

.text.__multadd%414
                0x0001979e       0x7e
 .text.__multadd
                0x0001979e       0x7e c:/program files/microchip/xc32/v3.01/bin/bin/../../lib/gcc/pic32c/8.3.1/../../../../pic32c/lib/thumb/v7e-m+fp/hard\libc_nano.a(lib_a-mprec.o)
                0x0001979e                __multadd

.text.DRV_ETHPHY_VendorSMIReadResultGet%415
                0x0001981c       0x7c
 .text.DRV_ETHPHY_VendorSMIReadResultGet
                0x0001981c       0x7c build/FreeRTOS/production/_ext/1231519722/drv_ethphy.o
                0x0001981c                DRV_ETHPHY_VendorSMIReadResultGet

.text.DRV_PIC32CGMAC_LibInit%416
                0x00019898       0x7c
 .text.DRV_PIC32CGMAC_LibInit
                0x00019898       0x7c build/FreeRTOS/production/_ext/41526634/drv_gmac_lib_samE5x.o
                0x00019898                DRV_PIC32CGMAC_LibInit

.text.SYS_Tasks%417
                0x00019914       0x7c
 .text.SYS_Tasks
                0x00019914       0x7c build/FreeRTOS/production/_ext/161576091/tasks.o
                0x00019914                SYS_Tasks

.text.SYS_Initialize%418
                0x00019990       0x7c
 .text.SYS_Initialize
                0x00019990       0x7c build/FreeRTOS/production/_ext/161576091/initialization.o
                0x00019990                SYS_Initialize

.text.TCPIP_TCP_SocketInfoGet%419
                0x00019a0c       0x7a
 .text.TCPIP_TCP_SocketInfoGet
                0x00019a0c       0x7a build/FreeRTOS/production/_ext/540595297/tcp.o
                0x00019a0c                TCPIP_TCP_SocketInfoGet

.text._DRV_ETHPHY_SetupPhaseNegotiate_SubPhase4%420
                0x00019a86       0x78
 .text._DRV_ETHPHY_SetupPhaseNegotiate_SubPhase4
                0x00019a86       0x78 build/FreeRTOS/production/_ext/1231519722/drv_ethphy.o

.text.DRV_PIC32CGMAC_LibTxInit%421
                0x00019b00       0x78
 .text.DRV_PIC32CGMAC_LibTxInit
                0x00019b00       0x78 build/FreeRTOS/production/_ext/41526634/drv_gmac_lib_samE5x.o
                0x00019b00                DRV_PIC32CGMAC_LibTxInit

.text.DRV_MIIM_Open%422
                0x00019b78       0x78
 .text.DRV_MIIM_Open
                0x00019b78       0x78 build/FreeRTOS/production/_ext/1149484450/drv_miim.o
                0x00019b78                DRV_MIIM_Open

.text.DRV_MIIM_Initialize%423
                0x00019bf0       0x78
 .text.DRV_MIIM_Initialize
                0x00019bf0       0x78 build/FreeRTOS/production/_ext/1149484450/drv_miim.o
                0x00019bf0                DRV_MIIM_Initialize

.rodata%424     0x00019c68       0x78
 .rodata        0x00019c68       0x78 build/FreeRTOS/production/_ext/540595297/ipv4.o

.text.TCPIP_Helper_PacketCopy%425
                0x00019ce0       0x78
 .text.TCPIP_Helper_PacketCopy
                0x00019ce0       0x78 build/FreeRTOS/production/_ext/540595297/tcpip_helpers.o
                0x00019ce0                TCPIP_Helper_PacketCopy

.text.SERCOM1_USART_Read%426
                0x00019d58       0x78
 .text.SERCOM1_USART_Read
                0x00019d58       0x78 build/FreeRTOS/production/_ext/2092608928/plib_sercom1_usart.o
                0x00019d58                SERCOM1_USART_Read

.text.__sfp%427
                0x00019dd0       0x78
 .text.__sfp    0x00019dd0       0x78 c:/program files/microchip/xc32/v3.01/bin/bin/../../lib/gcc/pic32c/8.3.1/../../../../pic32c/lib/thumb/v7e-m+fp/hard\libc_nano.a(lib_a-findfp.o)
                0x00019dd0                __sfp

.text._DRV_GMAC_LinkStateNegResult%428
                0x00019e48       0x76
 .text._DRV_GMAC_LinkStateNegResult
                0x00019e48       0x76 build/FreeRTOS/production/_ext/41526634/drv_gmac.o

.text.prvCopyDataToQueue%429
                0x00019ebe       0x76
 .text.prvCopyDataToQueue
                0x00019ebe       0x76 build/FreeRTOS/production/_ext/404212886/queue.o

.text.DRV_GMAC_Process%430
                0x00019f34       0x74
 .text.DRV_GMAC_Process
                0x00019f34       0x74 build/FreeRTOS/production/_ext/41526634/drv_gmac.o
                0x00019f34                DRV_GMAC_Process

.text._ARPUpdateEntry%431
                0x00019fa8       0x74
 .text._ARPUpdateEntry
                0x00019fa8       0x74 build/FreeRTOS/production/_ext/540595297/arp.o

.text.TCPIP_ARP_EntryRemove%432
                0x0001a01c       0x74
 .text.TCPIP_ARP_EntryRemove
                0x0001a01c       0x74 build/FreeRTOS/production/_ext/540595297/arp.o
                0x0001a01c                TCPIP_ARP_EntryRemove

.text.GenericTxDone%433
                0x0001a090       0x74
 .text.GenericTxDone
                0x0001a090       0x74 build/FreeRTOS/production/_ext/540595297/iperf.o

.text.TCPIP_DHCP_ConnectionHandler%434
                0x0001a104       0x74
 .text.TCPIP_DHCP_ConnectionHandler
                0x0001a104       0x74 build/FreeRTOS/production/_ext/540595297/dhcp.o
                0x0001a104                TCPIP_DHCP_ConnectionHandler

.text.xTaskRemoveFromEventList%435
                0x0001a178       0x74
 .text.xTaskRemoveFromEventList
                0x0001a178       0x74 build/FreeRTOS/production/_ext/404212886/FreeRTOS_tasks.o
                0x0001a178                xTaskRemoveFromEventList

.text.wc_GenerateSeed%436
                0x0001a1ec       0x74
 .text.wc_GenerateSeed
                0x0001a1ec       0x74 build/FreeRTOS/production/_ext/1664057780/random.o
                0x0001a1ec                wc_GenerateSeed

.text.gfx_mono_draw_string%437
                0x0001a260       0x74
 .text.gfx_mono_draw_string
                0x0001a260       0x74 build/FreeRTOS/production/_ext/1434865757/gfx_mono_text.o
                0x0001a260                gfx_mono_draw_string

.text._MacTxPendingPackets%438
                0x0001a2d4       0x72
 .text._MacTxPendingPackets
                0x0001a2d4       0x72 build/FreeRTOS/production/_ext/41526634/drv_gmac.o

.text._TCPIP_StackSyncFunction%439
                0x0001a346       0x72
 .text._TCPIP_StackSyncFunction
                0x0001a346       0x72 build/FreeRTOS/production/_ext/540595297/tcpip_manager.o

.text.TCPIP_PKT_DataSegmentGet%440
                0x0001a3b8       0x72
 .text.TCPIP_PKT_DataSegmentGet
                0x0001a3b8       0x72 build/FreeRTOS/production/_ext/540595297/tcpip_packet.o
                0x0001a3b8                TCPIP_PKT_DataSegmentGet

.text.Hash_DRBG_Instantiate%441
                0x0001a42a       0x72
 .text.Hash_DRBG_Instantiate
                0x0001a42a       0x72 build/FreeRTOS/production/_ext/1664057780/random.o

.text.DRV_GMAC_EventAcknowledge%442
                0x0001a49c       0x70
 .text.DRV_GMAC_EventAcknowledge
                0x0001a49c       0x70 build/FreeRTOS/production/_ext/41526634/drv_gmac.o
                0x0001a49c                DRV_GMAC_EventAcknowledge

.text.DRV_GMAC_Tasks_ISR%443
                0x0001a50c       0x70
 .text.DRV_GMAC_Tasks_ISR
                0x0001a50c       0x70 build/FreeRTOS/production/_ext/41526634/drv_gmac.o
                0x0001a50c                DRV_GMAC_Tasks_ISR

.text.TCPIP_IPV4_Cleanup%444
                0x0001a57c       0x70
 .text.TCPIP_IPV4_Cleanup
                0x0001a57c       0x70 build/FreeRTOS/production/_ext/540595297/ipv4.o

.text.TCPIP_Helper_CalcIPChecksum%445
                0x0001a5ec       0x70
 .text.TCPIP_Helper_CalcIPChecksum
                0x0001a5ec       0x70 build/FreeRTOS/production/_ext/540595297/tcpip_helpers.o
                0x0001a5ec                TCPIP_Helper_CalcIPChecksum

.text.xQueueGenericReset%446
                0x0001a65c       0x70
 .text.xQueueGenericReset
                0x0001a65c       0x70 build/FreeRTOS/production/_ext/404212886/queue.o
                0x0001a65c                xQueueGenericReset

.text.prvIdleTask%447
                0x0001a6cc       0x70
 .text.prvIdleTask
                0x0001a6cc       0x70 build/FreeRTOS/production/_ext/404212886/FreeRTOS_tasks.o

.text.DRV_PIC32CGMAC_LibMACOpen%448
                0x0001a73c       0x6c
 .text.DRV_PIC32CGMAC_LibMACOpen
                0x0001a73c       0x6c build/FreeRTOS/production/_ext/41526634/drv_gmac_lib_samE5x.o
                0x0001a73c                DRV_PIC32CGMAC_LibMACOpen

.text._AllocateRxPacket%449
                0x0001a7a8       0x6c
 .text._AllocateRxPacket
                0x0001a7a8       0x6c build/FreeRTOS/production/_ext/41526634/drv_gmac_lib_samE5x.o

.text.TCPIP_ICMP_Initialize%450
                0x0001a814       0x6c
 .text.TCPIP_ICMP_Initialize
                0x0001a814       0x6c build/FreeRTOS/production/_ext/540595297/icmp.o
                0x0001a814                TCPIP_ICMP_Initialize

.text._TcpCleanup%451
                0x0001a880       0x6c
 .text._TcpCleanup
                0x0001a880       0x6c build/FreeRTOS/production/_ext/540595297/tcp.o

.text._Command_BIOSNameSet%452
                0x0001a8ec       0x6c
 .text._Command_BIOSNameSet
                0x0001a8ec       0x6c build/FreeRTOS/production/_ext/540595297/tcpip_commands.o

.text.TCPIP_DNS_Disable%453
                0x0001a958       0x6c
 .text.TCPIP_DNS_Disable
                0x0001a958       0x6c build/FreeRTOS/production/_ext/540595297/dns.o
                0x0001a958                TCPIP_DNS_Disable

.rodata.TCPIP_STACK_MODULE_ENTRY_TBL%454
                0x0001a9c4       0x6c
 .rodata.TCPIP_STACK_MODULE_ENTRY_TBL
                0x0001a9c4       0x6c build/FreeRTOS/production/_ext/540595297/tcpip_manager.o

.text.SYS_CMD_ADDGRP%455
                0x0001aa30       0x6c
 .text.SYS_CMD_ADDGRP
                0x0001aa30       0x6c build/FreeRTOS/production/_ext/1005353002/sys_command.o
                0x0001aa30                SYS_CMD_ADDGRP

.text.SYS_CONSOLE_Print%456
                0x0001aa9c       0x6c
 .text.SYS_CONSOLE_Print
                0x0001aa9c       0x6c build/FreeRTOS/production/_ext/548640822/sys_console.o
                0x0001aa9c                SYS_CONSOLE_Print

.text.pvPortMalloc%457
                0x0001ab08       0x6c
 .text.pvPortMalloc
                0x0001ab08       0x6c build/FreeRTOS/production/_ext/1665200909/heap_1.o
                0x0001ab08                pvPortMalloc

.text.snprintf%458
                0x0001ab74       0x6c
 .text.snprintf
                0x0001ab74       0x6c c:/program files/microchip/xc32/v3.01/bin/bin/../../lib/gcc/pic32c/8.3.1/../../../../pic32c/lib/thumb/v7e-m+fp/hard\libc_nano.a(lib_a-snprintf.o)
                0x0001ab74                sniprintf
                0x0001ab74                __snprintf_dis
                0x0001ab74                snprintf

.text.wc_CryptoCb_Sha256Hash%459
                0x0001abe0       0x6a
 .text.wc_CryptoCb_Sha256Hash
                0x0001abe0       0x6a build/FreeRTOS/production/_ext/1664057780/cryptocb.o
                0x0001abe0                wc_CryptoCb_Sha256Hash

.text.DRV_ETHPHY_Open%460
                0x0001ac4c       0x68
 .text.DRV_ETHPHY_Open
                0x0001ac4c       0x68 build/FreeRTOS/production/_ext/1231519722/drv_ethphy.o
                0x0001ac4c                DRV_ETHPHY_Open

.text._TcpSwapHeader%461
                0x0001acb4       0x68
 .text._TcpSwapHeader
                0x0001acb4       0x68 build/FreeRTOS/production/_ext/540595297/tcp.o

.text._DNS_AddSelectionIf%462
                0x0001ad1c       0x68
 .text._DNS_AddSelectionIf
                0x0001ad1c       0x68 build/FreeRTOS/production/_ext/540595297/dns.o

.text.TCPIP_OAHASH_EntryLookup%463
                0x0001ad84       0x68
 .text.TCPIP_OAHASH_EntryLookup
                0x0001ad84       0x68 build/FreeRTOS/production/_ext/540595297/oahash.o
                0x0001ad84                TCPIP_OAHASH_EntryLookup

.text._TCPIPStackInsertRxPacket%464
                0x0001adec       0x68
 .text._TCPIPStackInsertRxPacket
                0x0001adec       0x68 build/FreeRTOS/production/_ext/540595297/tcpip_manager.o
                0x0001adec                _TCPIPStackInsertRxPacket

.text.SYS_CONSOLE_Initialize%465
                0x0001ae54       0x68
 .text.SYS_CONSOLE_Initialize
                0x0001ae54       0x68 build/FreeRTOS/production/_ext/548640822/sys_console.o
                0x0001ae54                SYS_CONSOLE_Initialize

.rodata%466     0x0001aebc       0x68
 .rodata        0x0001aebc       0x68 build/FreeRTOS/production/_ext/161576091/initialization.o

.text.wc_RNG_TestSeed%467
                0x0001af24       0x68
 .text.wc_RNG_TestSeed
                0x0001af24       0x68 build/FreeRTOS/production/_ext/1664057780/random.o
                0x0001af24                wc_RNG_TestSeed

.text.rand%468  0x0001af8c       0x68
 .text.rand     0x0001af8c       0x68 c:/program files/microchip/xc32/v3.01/bin/bin/../../lib/gcc/pic32c/8.3.1/../../../../pic32c/lib/thumb/v7e-m+fp/hard\libc_nano.a(lib_a-rand.o)
                0x0001af8c                rand

.text._Balloc%469
                0x0001aff4       0x68
 .text._Balloc  0x0001aff4       0x68 c:/program files/microchip/xc32/v3.01/bin/bin/../../lib/gcc/pic32c/8.3.1/../../../../pic32c/lib/thumb/v7e-m+fp/hard\libc_nano.a(lib_a-mprec.o)
                0x0001aff4                _Balloc

.text._DRV_ETHPHY_NegResultPhase_BMSTAT%470
                0x0001b05c       0x64
 .text._DRV_ETHPHY_NegResultPhase_BMSTAT
                0x0001b05c       0x64 build/FreeRTOS/production/_ext/1231519722/drv_ethphy.o

.text._DRV_ETHPHY_ResetPhaseRead%471
                0x0001b0c0       0x64
 .text._DRV_ETHPHY_ResetPhaseRead
                0x0001b0c0       0x64 build/FreeRTOS/production/_ext/1231519722/drv_ethphy.o

.text.DRV_GMAC_RegisterStatisticsGet%472
                0x0001b124       0x64
 .text.DRV_GMAC_RegisterStatisticsGet
                0x0001b124       0x64 build/FreeRTOS/production/_ext/41526634/drv_gmac.o
                0x0001b124                DRV_GMAC_RegisterStatisticsGet

.text._MacRxPacketAck%473
                0x0001b188       0x64
 .text._MacRxPacketAck
                0x0001b188       0x64 build/FreeRTOS/production/_ext/41526634/drv_gmac_lib_samE5x.o

.text.TCPIP_OAHASH_EntryLookupOrInsert%474
                0x0001b1ec       0x64
 .text.TCPIP_OAHASH_EntryLookupOrInsert
                0x0001b1ec       0x64 build/FreeRTOS/production/_ext/540595297/oahash.o
                0x0001b1ec                TCPIP_OAHASH_EntryLookupOrInsert

.text.TCPIP_STACK_BringNetDown%475
                0x0001b250       0x64
 .text.TCPIP_STACK_BringNetDown
                0x0001b250       0x64 build/FreeRTOS/production/_ext/540595297/tcpip_manager.o

.text.TCPIP_UDP_SocketInfoGet%476
                0x0001b2b4       0x64
 .text.TCPIP_UDP_SocketInfoGet
                0x0001b2b4       0x64 build/FreeRTOS/production/_ext/540595297/udp.o
                0x0001b2b4                TCPIP_UDP_SocketInfoGet

.text.xPortPendSVHandler%477
                0x0001b320       0x64
 .text.xPortPendSVHandler
                0x0001b320       0x64 build/FreeRTOS/production/_ext/246609638/port.o
                0x0001b320                xPortPendSVHandler

.text.vTaskStartScheduler%478
                0x0001b384       0x64
 .text.vTaskStartScheduler
                0x0001b384       0x64 build/FreeRTOS/production/_ext/404212886/FreeRTOS_tasks.o
                0x0001b384                vTaskStartScheduler

.text.wc_InitSha256_ex%479
                0x0001b3e8       0x64
 .text.wc_InitSha256_ex
                0x0001b3e8       0x64 build/FreeRTOS/production/_ext/1664057780/sha256.o
                0x0001b3e8                wc_InitSha256_ex

.text.TCPIP_ARP_EntryGet%480
                0x0001b44c       0x62
 .text.TCPIP_ARP_EntryGet
                0x0001b44c       0x62 build/FreeRTOS/production/_ext/540595297/arp.o
                0x0001b44c                TCPIP_ARP_EntryGet

.text._PingStop%481
                0x0001b4b0       0x60
 .text._PingStop
                0x0001b4b0       0x60 build/FreeRTOS/production/_ext/540595297/tcpip_commands.o

.text.Ipv4FilterSetActive%482
                0x0001b510       0x60
 .text.Ipv4FilterSetActive
                0x0001b510       0x60 build/FreeRTOS/production/_ext/540595297/ipv4.o
                0x0001b510                Ipv4FilterSetActive

.text._DHCPOptionProcessDns%483
                0x0001b570       0x60
 .text._DHCPOptionProcessDns
                0x0001b570       0x60 build/FreeRTOS/production/_ext/540595297/dhcp.o

.text.TCPIP_DHCP_Disable%484
                0x0001b5d0       0x60
 .text.TCPIP_DHCP_Disable
                0x0001b5d0       0x60 build/FreeRTOS/production/_ext/540595297/dhcp.o
                0x0001b5d0                TCPIP_DHCP_Disable

.text.TCPIP_DNS_ClientDeinitialize%485
                0x0001b630       0x60
 .text.TCPIP_DNS_ClientDeinitialize
                0x0001b630       0x60 build/FreeRTOS/production/_ext/540595297/dns.o
                0x0001b630                TCPIP_DNS_ClientDeinitialize

.text.TCPIP_DNS_GetIPAddressesNumber%486
                0x0001b690       0x60
 .text.TCPIP_DNS_GetIPAddressesNumber
                0x0001b690       0x60 build/FreeRTOS/production/_ext/540595297/dns.o
                0x0001b690                TCPIP_DNS_GetIPAddressesNumber

.text._TCPIP_SelectDefaultNet%487
                0x0001b6f0       0x60
 .text._TCPIP_SelectDefaultNet
                0x0001b6f0       0x60 build/FreeRTOS/production/_ext/540595297/tcpip_manager.o

.text.gfx_mono_ssd1306_draw_pixel%488
                0x0001b750       0x60
 .text.gfx_mono_ssd1306_draw_pixel
                0x0001b750       0x60 build/FreeRTOS/production/_ext/1434865757/gfx_mono_ug_2832hsweg04.o
                0x0001b750                gfx_mono_ssd1306_draw_pixel

.text.__sinit%489
                0x0001b7b0       0x60
 .text.__sinit  0x0001b7b0       0x60 c:/program files/microchip/xc32/v3.01/bin/bin/../../lib/gcc/pic32c/8.3.1/../../../../pic32c/lib/thumb/v7e-m+fp/hard\libc_nano.a(lib_a-findfp.o)
                0x0001b7b0                __sinit

.text.__lo0bits%490
                0x0001b810       0x60
 .text.__lo0bits
                0x0001b810       0x60 c:/program files/microchip/xc32/v3.01/bin/bin/../../lib/gcc/pic32c/8.3.1/../../../../pic32c/lib/thumb/v7e-m+fp/hard\libc_nano.a(lib_a-mprec.o)
                0x0001b810                __lo0bits

.rodata.DRV_ETHPHY_OBJECT_BASE_Default%491
                0x0001b870       0x5c
 .rodata.DRV_ETHPHY_OBJECT_BASE_Default
                0x0001b870       0x5c build/FreeRTOS/production/_ext/1231519722/drv_ethphy.o
                0x0001b870                DRV_ETHPHY_OBJECT_BASE_Default

.text._DRV_GMAC_LinkStateWaitLinkUp%492
                0x0001b8cc       0x5c
 .text._DRV_GMAC_LinkStateWaitLinkUp
                0x0001b8cc       0x5c build/FreeRTOS/production/_ext/41526634/drv_gmac.o

.text._TcpClientSocketConnect%493
                0x0001b928       0x5c
 .text._TcpClientSocketConnect
                0x0001b928       0x5c build/FreeRTOS/production/_ext/540595297/tcp.o

.text.TCPIP_ARP_Probe%494
                0x0001b984       0x5c
 .text.TCPIP_ARP_Probe
                0x0001b984       0x5c build/FreeRTOS/production/_ext/540595297/arp.o
                0x0001b984                TCPIP_ARP_Probe

.text.TCPIP_DHCP_Enable%495
                0x0001b9e0       0x5c
 .text.TCPIP_DHCP_Enable
                0x0001b9e0       0x5c build/FreeRTOS/production/_ext/540595297/dhcp.o
                0x0001b9e0                TCPIP_DHCP_Enable

.text._TCPIPStackIpAddFromAnyNet%496
                0x0001ba3c       0x5c
 .text._TCPIPStackIpAddFromAnyNet
                0x0001ba3c       0x5c build/FreeRTOS/production/_ext/540595297/tcpip_manager.o
                0x0001ba3c                _TCPIPStackIpAddFromAnyNet

.text.SYS_TIME_RemoveFromList%497
                0x0001ba98       0x5c
 .text.SYS_TIME_RemoveFromList
                0x0001ba98       0x5c build/FreeRTOS/production/_ext/832704728/sys_time.o

.text.xTaskCheckForTimeOut%498
                0x0001baf4       0x5c
 .text.xTaskCheckForTimeOut
                0x0001baf4       0x5c build/FreeRTOS/production/_ext/404212886/FreeRTOS_tasks.o
                0x0001baf4                xTaskCheckForTimeOut

.text.wc_CryptoCb_RandomBlock%499
                0x0001bb50       0x5c
 .text.wc_CryptoCb_RandomBlock
                0x0001bb50       0x5c build/FreeRTOS/production/_ext/1664057780/cryptocb.o
                0x0001bb50                wc_CryptoCb_RandomBlock

.text._vsnprintf_r%500
                0x0001bbac       0x5c
 .text._vsnprintf_r
                0x0001bbac       0x5c c:/program files/microchip/xc32/v3.01/bin/bin/../../lib/gcc/pic32c/8.3.1/../../../../pic32c/lib/thumb/v7e-m+fp/hard\libc_nano.a(lib_a-vsnprintf.o)
                0x0001bbac                _vsniprintf_r
                0x0001bbac                _vsnprintf_r

.text.DRV_PIC32CGMAC_LibRxBuffersCountGet%501
                0x0001bc08       0x5a
 .text.DRV_PIC32CGMAC_LibRxBuffersCountGet
                0x0001bc08       0x5a build/FreeRTOS/production/_ext/41526634/drv_gmac_lib_samE5x.o
                0x0001bc08                DRV_PIC32CGMAC_LibRxBuffersCountGet

.text.TCPIP_UDP_BcastIPV4AddressSet%502
                0x0001bc62       0x5a
 .text.TCPIP_UDP_BcastIPV4AddressSet
                0x0001bc62       0x5a build/FreeRTOS/production/_ext/540595297/udp.o
                0x0001bc62                TCPIP_UDP_BcastIPV4AddressSet

.text.DRV_ETHPHY_Initialize%503
                0x0001bcbc       0x58
 .text.DRV_ETHPHY_Initialize
                0x0001bcbc       0x58 build/FreeRTOS/production/_ext/1231519722/drv_ethphy.o
                0x0001bcbc                DRV_ETHPHY_Initialize

.text.DRV_GMAC_RxFilterHashTableEntrySet%504
                0x0001bd14       0x58
 .text.DRV_GMAC_RxFilterHashTableEntrySet
                0x0001bd14       0x58 build/FreeRTOS/production/_ext/41526634/drv_gmac.o
                0x0001bd14                DRV_GMAC_RxFilterHashTableEntrySet

.rodata.DRV_GMAC_Object%505
                0x0001bd6c       0x58
 .rodata.DRV_GMAC_Object
                0x0001bd6c       0x58 build/FreeRTOS/production/_ext/41526634/drv_gmac.o
                0x0001bd6c                DRV_GMAC_Object

.text._DNS_Enable%506
                0x0001bdc4       0x58
 .text._DNS_Enable
                0x0001bdc4       0x58 build/FreeRTOS/production/_ext/540595297/dns.o

.text._TCPIPStackModuleSignalRequest%507
                0x0001be1c       0x58
 .text._TCPIPStackModuleSignalRequest
                0x0001be1c       0x58 build/FreeRTOS/production/_ext/540595297/tcpip_manager.o
                0x0001be1c                _TCPIPStackModuleSignalRequest

.text.OSAL_SEM_Create%508
                0x0001be74       0x58
 .text.OSAL_SEM_Create
                0x0001be74       0x58 build/FreeRTOS/production/_ext/891571577/osal_freertos.o
                0x0001be74                OSAL_SEM_Create

.text.SYS_TIME_TimerStart%509
                0x0001becc       0x58
 .text.SYS_TIME_TimerStart
                0x0001becc       0x58 build/FreeRTOS/production/_ext/832704728/sys_time.o
                0x0001becc                SYS_TIME_TimerStart

.text.DRV_MIIM_OperationAbort%510
                0x0001bf24       0x56
 .text.DRV_MIIM_OperationAbort
                0x0001bf24       0x56 build/FreeRTOS/production/_ext/1149484450/drv_miim.o
                0x0001bf24                DRV_MIIM_OperationAbort

.text._DRV_PHY_SMITransferWaitComplete%511
                0x0001bf7a       0x54
 .text._DRV_PHY_SMITransferWaitComplete
                0x0001bf7a       0x54 build/FreeRTOS/production/_ext/1231519722/drv_ethphy.o

.text._DRV_ETHPHY_NegCompletePhaseAN_Restart%512
                0x0001bfce       0x54
 .text._DRV_ETHPHY_NegCompletePhaseAN_Restart
                0x0001bfce       0x54 build/FreeRTOS/production/_ext/1231519722/drv_ethphy.o

.text._ARPNotifyClients%513
                0x0001c024       0x54
 .text._ARPNotifyClients
                0x0001c024       0x54 build/FreeRTOS/production/_ext/540595297/arp.o

.text.IperfSetState%514
                0x0001c078       0x54
 .text.IperfSetState
                0x0001c078       0x54 build/FreeRTOS/production/_ext/540595297/iperf.o

.text.TCPIP_IPERF_Deinitialize%515
                0x0001c0cc       0x54
 .text.TCPIP_IPERF_Deinitialize
                0x0001c0cc       0x54 build/FreeRTOS/production/_ext/540595297/iperf.o
                0x0001c0cc                TCPIP_IPERF_Deinitialize

.text.IPv4RegisterFilter%516
                0x0001c120       0x54
 .text.IPv4RegisterFilter
                0x0001c120       0x54 build/FreeRTOS/production/_ext/540595297/ipv4.o
                0x0001c120                IPv4RegisterFilter

.text._DHCPOptionWriteSrvIdent%517
                0x0001c174       0x54
 .text._DHCPOptionWriteSrvIdent
                0x0001c174       0x54 build/FreeRTOS/production/_ext/540595297/dhcp.o

.text._DNS_DeleteHash%518
                0x0001c1c8       0x54
 .text._DNS_DeleteHash
                0x0001c1c8       0x54 build/FreeRTOS/production/_ext/540595297/dns.o

.text.TCPIP_DNS_RemoveAll%519
                0x0001c21c       0x54
 .text.TCPIP_DNS_RemoveAll
                0x0001c21c       0x54 build/FreeRTOS/production/_ext/540595297/dns.o
                0x0001c21c                TCPIP_DNS_RemoveAll

.text.TCPIP_STACK_StringToMACId%520
                0x0001c270       0x54
 .text.TCPIP_STACK_StringToMACId
                0x0001c270       0x54 build/FreeRTOS/production/_ext/540595297/tcpip_manager.o
                0x0001c270                TCPIP_STACK_StringToMACId

.text._TCPIPStackAnyNetLinked%521
                0x0001c2c4       0x54
 .text._TCPIPStackAnyNetLinked
                0x0001c2c4       0x54 build/FreeRTOS/production/_ext/540595297/tcpip_manager.o
                0x0001c2c4                _TCPIPStackAnyNetLinked

.text.SYS_TIME_CallbackRegisterMS%522
                0x0001c318       0x54
 .text.SYS_TIME_CallbackRegisterMS
                0x0001c318       0x54 build/FreeRTOS/production/_ext/832704728/sys_time.o
                0x0001c318                SYS_TIME_CallbackRegisterMS

.text.strtok%523
                0x0001c36c       0x54
 .text.strtok   0x0001c36c       0x54 c:/program files/microchip/xc32/v3.01/bin/bin/../../lib/gcc/pic32c/8.3.1/../../../../pic32c/lib/thumb/v7e-m+fp/hard\libc_nano.a(lib_a-strtok.o)
                0x0001c36c                strtok

.text._fflush_r%524
                0x0001c3c0       0x54
 .text._fflush_r
                0x0001c3c0       0x54 c:/program files/microchip/xc32/v3.01/bin/bin/../../lib/gcc/pic32c/8.3.1/../../../../pic32c/lib/thumb/v7e-m+fp/hard\libc_nano.a(lib_a-fflush.o)
                0x0001c3c0                _fflush_r

.text._TcpAbort%525
                0x0001c414       0x52
 .text._TcpAbort
                0x0001c414       0x52 build/FreeRTOS/production/_ext/540595297/tcp.o

.text.TCPIP_TCP_RemoteBind%526
                0x0001c466       0x52
 .text.TCPIP_TCP_RemoteBind
                0x0001c466       0x52 build/FreeRTOS/production/_ext/540595297/tcp.o
                0x0001c466                TCPIP_TCP_RemoteBind

.text.__strtok_r%527
                0x0001c4b8       0x52
 .text.__strtok_r
                0x0001c4b8       0x52 c:/program files/microchip/xc32/v3.01/bin/bin/../../lib/gcc/pic32c/8.3.1/../../../../pic32c/lib/thumb/v7e-m+fp/hard\libc_nano.a(lib_a-strtok_r.o)
                0x0001c4b8                __strtok_r

.text.DRV_ETHPHY_LinkStatusGet%528
                0x0001c50c       0x50
 .text.DRV_ETHPHY_LinkStatusGet
                0x0001c50c       0x50 build/FreeRTOS/production/_ext/1231519722/drv_ethphy.o
                0x0001c50c                DRV_ETHPHY_LinkStatusGet

.text.DRV_GMAC_ParametersGet%529
                0x0001c55c       0x50
 .text.DRV_GMAC_ParametersGet
                0x0001c55c       0x50 build/FreeRTOS/production/_ext/41526634/drv_gmac.o
                0x0001c55c                DRV_GMAC_ParametersGet

.rodata%530     0x0001c5ac       0x50
 .rodata        0x0001c5ac       0x50 build/FreeRTOS/production/_ext/540595297/tcp.o

.text._DHCPOptionWriteIPRequest%531
                0x0001c5fc       0x50
 .text._DHCPOptionWriteIPRequest
                0x0001c5fc       0x50 build/FreeRTOS/production/_ext/540595297/dhcp.o

.text.TCPIP_DHCP_Renew%532
                0x0001c64c       0x50
 .text.TCPIP_DHCP_Renew
                0x0001c64c       0x50 build/FreeRTOS/production/_ext/540595297/dhcp.o
                0x0001c64c                TCPIP_DHCP_Renew

.text.TCPIP_DNS_OAHASH_DeleteEntry%533
                0x0001c69c       0x50
 .text.TCPIP_DNS_OAHASH_DeleteEntry
                0x0001c69c       0x50 build/FreeRTOS/production/_ext/540595297/dns.o

.text.TCPIP_Helper_FormatNetBIOSName%534
                0x0001c6ec       0x50
 .text.TCPIP_Helper_FormatNetBIOSName
                0x0001c6ec       0x50 build/FreeRTOS/production/_ext/540595297/tcpip_helpers.o
                0x0001c6ec                TCPIP_Helper_FormatNetBIOSName

.text.SYS_CONSOLE_Status%535
                0x0001c73c       0x50
 .text.SYS_CONSOLE_Status
                0x0001c73c       0x50 build/FreeRTOS/production/_ext/548640822/sys_console.o
                0x0001c73c                SYS_CONSOLE_Status

.text._raise_r%536
                0x0001c78c       0x50
 .text._raise_r
                0x0001c78c       0x50 c:/program files/microchip/xc32/v3.01/bin/bin/../../lib/gcc/pic32c/8.3.1/../../../../pic32c/lib/thumb/v7e-m+fp/hard\libc_nano.a(lib_a-signal.o)
                0x0001c78c                _raise_r

.text%537       0x0001c7dc       0x50
 .text          0x0001c7dc       0x50 c:/program files/microchip/xc32/v3.01/bin/bin/../../lib/gcc/pic32c/8.3.1/thumb/v7e-m+fp/hard\libgcc.a(_arm_fixdfsi.o)
                0x0001c7dc                __aeabi_d2iz
                0x0001c7dc                __fixdfsi

.text._DRV_ETHPHY_SetupPhaseNegotiate_SubPhase7%538
                0x0001c82c       0x4e
 .text._DRV_ETHPHY_SetupPhaseNegotiate_SubPhase7
                0x0001c82c       0x4e build/FreeRTOS/production/_ext/1231519722/drv_ethphy.o

.text._DRV_MIIM_GetClientAndLock%539
                0x0001c87a       0x4e
 .text._DRV_MIIM_GetClientAndLock
                0x0001c87a       0x4e build/FreeRTOS/production/_ext/1149484450/drv_miim.o

.text.TCPIP_IPV4_SelectDestInterface%540
                0x0001c8c8       0x4e
 .text.TCPIP_IPV4_SelectDestInterface
                0x0001c8c8       0x4e build/FreeRTOS/production/_ext/540595297/ipv4.o
                0x0001c8c8                TCPIP_IPV4_SelectDestInterface

.text.TCPIP_UDP_PutIsReady%541
                0x0001c916       0x4e
 .text.TCPIP_UDP_PutIsReady
                0x0001c916       0x4e build/FreeRTOS/production/_ext/540595297/udp.o
                0x0001c916                TCPIP_UDP_PutIsReady

.text._DRV_ETHPHY_LinkStatPhaseRead%542
                0x0001c964       0x4c
 .text._DRV_ETHPHY_LinkStatPhaseRead
                0x0001c964       0x4c build/FreeRTOS/production/_ext/1231519722/drv_ethphy.o

.text._TcpSocketKill%543
                0x0001c9b0       0x4c
 .text._TcpSocketKill
                0x0001c9b0       0x4c build/FreeRTOS/production/_ext/540595297/tcp.o

.text.ResetIperfCounters%544
                0x0001c9fc       0x4c
 .text.ResetIperfCounters
                0x0001c9fc       0x4c build/FreeRTOS/production/_ext/540595297/iperf.o

.text._DHCPSetRunFail%545
                0x0001ca48       0x4c
 .text._DHCPSetRunFail
                0x0001ca48       0x4c build/FreeRTOS/production/_ext/540595297/dhcp.o

.text.TCPIP_Helper_IPAddressToString%546
                0x0001ca94       0x4c
 .text.TCPIP_Helper_IPAddressToString
                0x0001ca94       0x4c build/FreeRTOS/production/_ext/540595297/tcpip_helpers.o
                0x0001ca94                TCPIP_Helper_IPAddressToString

.text._TCPIP_MacEventCB%547
                0x0001cae0       0x4c
 .text._TCPIP_MacEventCB
                0x0001cae0       0x4c build/FreeRTOS/production/_ext/540595297/tcpip_manager.o

.text._UDPClose%548
                0x0001cb2c       0x4c
 .text._UDPClose
                0x0001cb2c       0x4c build/FreeRTOS/production/_ext/540595297/udp.o

.text.gfx_mono_ssd1306_init%549
                0x0001cb78       0x4c
 .text.gfx_mono_ssd1306_init
                0x0001cb78       0x4c build/FreeRTOS/production/_ext/1434865757/gfx_mono_ug_2832hsweg04.o
                0x0001cb78                gfx_mono_ssd1306_init

.text._realloc_r%550
                0x0001cbc4       0x4c
 .text._realloc_r
                0x0001cbc4       0x4c c:/program files/microchip/xc32/v3.01/bin/bin/../../lib/gcc/pic32c/8.3.1/../../../../pic32c/lib/thumb/v7e-m+fp/hard\libc_nano.a(lib_a-nano-reallocr.o)
                0x0001cbc4                _realloc_r

.text.TCPIP_IPV4_SelectSourceInterface%551
                0x0001cc10       0x4a
 .text.TCPIP_IPV4_SelectSourceInterface
                0x0001cc10       0x4a build/FreeRTOS/production/_ext/540595297/ipv4.o
                0x0001cc10                TCPIP_IPV4_SelectSourceInterface

.text.TCPIP_UDP_ArrayPut%552
                0x0001cc5a       0x4a
 .text.TCPIP_UDP_ArrayPut
                0x0001cc5a       0x4a build/FreeRTOS/production/_ext/540595297/udp.o
                0x0001cc5a                TCPIP_UDP_ArrayPut

.text.TCPIP_UDP_DestinationIPAddressSet%553
                0x0001cca4       0x4a
 .text.TCPIP_UDP_DestinationIPAddressSet
                0x0001cca4       0x4a build/FreeRTOS/production/_ext/540595297/udp.o
                0x0001cca4                TCPIP_UDP_DestinationIPAddressSet

.text.__ssfputs_r%554
                0x0001ccee       0x4a
 .text.__ssfputs_r
                0x0001ccee       0x4a c:/program files/microchip/xc32/v3.01/bin/bin/../../lib/gcc/pic32c/8.3.1/../../../../pic32c/lib/thumb/v7e-m+fp/hard\libc_nano.a(lib_a-__ssfputs.o)
                0x0001ccee                __ssfputs_r

.text.DRV_ETHPHY_NegotiationResultGet%555
                0x0001cd38       0x48
 .text.DRV_ETHPHY_NegotiationResultGet
                0x0001cd38       0x48 build/FreeRTOS/production/_ext/1231519722/drv_ethphy.o
                0x0001cd38                DRV_ETHPHY_NegotiationResultGet

.text._DRV_ETHPHY_NegCompletePhaseRead2%556
                0x0001cd80       0x48
 .text._DRV_ETHPHY_NegCompletePhaseRead2
                0x0001cd80       0x48 build/FreeRTOS/production/_ext/1231519722/drv_ethphy.o

.text.DRV_GMAC_LinkCheck%557
                0x0001cdc8       0x48
 .text.DRV_GMAC_LinkCheck
                0x0001cdc8       0x48 build/FreeRTOS/production/_ext/41526634/drv_gmac.o
                0x0001cdc8                DRV_GMAC_LinkCheck

.text._TCPSendWinIncUpdate%558
                0x0001ce10       0x48
 .text._TCPSendWinIncUpdate
                0x0001ce10       0x48 build/FreeRTOS/production/_ext/540595297/tcp.o

.text.TCPIP_TCP_DestinationIPAddressSet%559
                0x0001ce58       0x48
 .text.TCPIP_TCP_DestinationIPAddressSet
                0x0001ce58       0x48 build/FreeRTOS/production/_ext/540595297/tcp.o
                0x0001ce58                TCPIP_TCP_DestinationIPAddressSet

.text.TCPIP_ARP_Deinitialize%560
                0x0001cea0       0x48
 .text.TCPIP_ARP_Deinitialize
                0x0001cea0       0x48 build/FreeRTOS/production/_ext/540595297/arp.o
                0x0001cea0                TCPIP_ARP_Deinitialize

.rodata._DHCPOptProcTbl%561
                0x0001cee8       0x48
 .rodata._DHCPOptProcTbl
                0x0001cee8       0x48 build/FreeRTOS/production/_ext/540595297/dhcp.o

.text.TCPIP_STACK_MACIdToNet%562
                0x0001cf30       0x48
 .text.TCPIP_STACK_MACIdToNet
                0x0001cf30       0x48 build/FreeRTOS/production/_ext/540595297/tcpip_manager.o
                0x0001cf30                TCPIP_STACK_MACIdToNet

.text.TCPIP_STACK_MatchNetAddress%563
                0x0001cf78       0x48
 .text.TCPIP_STACK_MatchNetAddress
                0x0001cf78       0x48 build/FreeRTOS/production/_ext/540595297/tcpip_manager.o
                0x0001cf78                TCPIP_STACK_MatchNetAddress

.text._TCPIPStackSignalHandlerRegister%564
                0x0001cfc0       0x48
 .text._TCPIPStackSignalHandlerRegister
                0x0001cfc0       0x48 build/FreeRTOS/production/_ext/540595297/tcpip_manager.o
                0x0001cfc0                _TCPIPStackSignalHandlerRegister

.rodata.keySeqTbl%565
                0x0001d008       0x48
 .rodata.keySeqTbl
                0x0001d008       0x48 build/FreeRTOS/production/_ext/1005353002/sys_command.o

.rodata.TCPIP_STACK_MODULE_CONFIG_TBL%566
                0x0001d050       0x48
 .rodata.TCPIP_STACK_MODULE_CONFIG_TBL
                0x0001d050       0x48 build/FreeRTOS/production/_ext/161576091/initialization.o
                0x0001d050                TCPIP_STACK_MODULE_CONFIG_TBL

.text.xPortStartScheduler%567
                0x0001d098       0x48
 .text.xPortStartScheduler
                0x0001d098       0x48 build/FreeRTOS/production/_ext/246609638/port.o
                0x0001d098                xPortStartScheduler

.text.wc_CryptoCb_FindDeviceByIndex%568
                0x0001d0e0       0x48
 .text.wc_CryptoCb_FindDeviceByIndex
                0x0001d0e0       0x48 build/FreeRTOS/production/_ext/1664057780/cryptocb.o

.text.__libc_init_array%569
                0x0001d128       0x48
 .text.__libc_init_array
                0x0001d128       0x48 c:/program files/microchip/xc32/v3.01/bin/bin/../../lib/gcc/pic32c/8.3.1/../../../../pic32c/lib/thumb/v7e-m+fp/hard\libc_nano.a(lib_a-init.o)
                0x0001d128                __libc_init_array

.text.srand%570
                0x0001d170       0x48
 .text.srand    0x0001d170       0x48 c:/program files/microchip/xc32/v3.01/bin/bin/../../lib/gcc/pic32c/8.3.1/../../../../pic32c/lib/thumb/v7e-m+fp/hard\libc_nano.a(lib_a-rand.o)
                0x0001d170                srand

.text.std%571   0x0001d1b8       0x48
 .text.std      0x0001d1b8       0x48 c:/program files/microchip/xc32/v3.01/bin/bin/../../lib/gcc/pic32c/8.3.1/../../../../pic32c/lib/thumb/v7e-m+fp/hard\libc_nano.a(lib_a-findfp.o)

.text.__swhatbuf_r%572
                0x0001d200       0x48
 .text.__swhatbuf_r
                0x0001d200       0x48 c:/program files/microchip/xc32/v3.01/bin/bin/../../lib/gcc/pic32c/8.3.1/../../../../pic32c/lib/thumb/v7e-m+fp/hard\libc_nano.a(lib_a-makebuf.o)
                0x0001d200                __swhatbuf_r

.text.Lan867x_Write_Register%573
                0x0001d248       0x46
 .text.Lan867x_Write_Register
                0x0001d248       0x46 build/FreeRTOS/production/_ext/1231519722/drv_extphy_lan867x.o
                0x0001d248                Lan867x_Write_Register

.text._DRV_GMAC_LinkStateGetLink%574
                0x0001d28e       0x46
 .text._DRV_GMAC_LinkStateGetLink
                0x0001d28e       0x46 build/FreeRTOS/production/_ext/41526634/drv_gmac.o

.text.TCPIP_TCP_FifoTxFullGet%575
                0x0001d2d4       0x46
 .text.TCPIP_TCP_FifoTxFullGet
                0x0001d2d4       0x46 build/FreeRTOS/production/_ext/540595297/tcp.o
                0x0001d2d4                TCPIP_TCP_FifoTxFullGet

.text.TCPIP_ARP_Resolve%576
                0x0001d31a       0x46
 .text.TCPIP_ARP_Resolve
                0x0001d31a       0x46 build/FreeRTOS/production/_ext/540595297/arp.o
                0x0001d31a                TCPIP_ARP_Resolve

.text._TCPIP_HEAP_Delete%577
                0x0001d360       0x46
 .text._TCPIP_HEAP_Delete
                0x0001d360       0x46 build/FreeRTOS/production/_ext/540595297/tcpip_heap_internal.o

.text.TCPIP_Helper_SingleListNodeRemove%578
                0x0001d3a6       0x46
 .text.TCPIP_Helper_SingleListNodeRemove
                0x0001d3a6       0x46 build/FreeRTOS/production/_ext/540595297/tcpip_helpers.o
                0x0001d3a6                TCPIP_Helper_SingleListNodeRemove

.text.TCPIP_Notification_CbackRemove%579
                0x0001d3ec       0x46
 .text.TCPIP_Notification_CbackRemove
                0x0001d3ec       0x46 build/FreeRTOS/production/_ext/540595297/tcpip_notify.o
                0x0001d3ec                TCPIP_Notification_CbackRemove

.text.TCPIP_UDP_SignalHandlerRegister%580
                0x0001d432       0x46
 .text.TCPIP_UDP_SignalHandlerRegister
                0x0001d432       0x46 build/FreeRTOS/production/_ext/540595297/udp.o
                0x0001d432                TCPIP_UDP_SignalHandlerRegister

.text.DRV_GMAC_ConfigGet%581
                0x0001d478       0x44
 .text.DRV_GMAC_ConfigGet
                0x0001d478       0x44 build/FreeRTOS/production/_ext/41526634/drv_gmac.o
                0x0001d478                DRV_GMAC_ConfigGet

.text._MacTxDiscardQueues%582
                0x0001d4bc       0x44
 .text._MacTxDiscardQueues
                0x0001d4bc       0x44 build/FreeRTOS/production/_ext/41526634/drv_gmac.o

.text.Helper_SingleListNodeRemove%583
                0x0001d500       0x44
 .text.Helper_SingleListNodeRemove
                0x0001d500       0x44 build/FreeRTOS/production/_ext/1149484450/drv_miim.o
                0x0001d500                Helper_SingleListNodeRemove

.text.TCPIP_TCP_SignalHandlerRegister%584
                0x0001d544       0x44
 .text.TCPIP_TCP_SignalHandlerRegister
                0x0001d544       0x44 build/FreeRTOS/production/_ext/540595297/tcp.o
                0x0001d544                TCPIP_TCP_SignalHandlerRegister

.text.TCPIP_Helper_MACAddressToString%585
                0x0001d588       0x44
 .text.TCPIP_Helper_MACAddressToString
                0x0001d588       0x44 build/FreeRTOS/production/_ext/540595297/tcpip_helpers.o
                0x0001d588                TCPIP_Helper_MACAddressToString

.text.TCPIP_STACK_NetByAddress%586
                0x0001d5cc       0x44
 .text.TCPIP_STACK_NetByAddress
                0x0001d5cc       0x44 build/FreeRTOS/production/_ext/540595297/tcpip_manager.o
                0x0001d5cc                TCPIP_STACK_NetByAddress

.text.TCPIP_STACK_AddressServiceEvent%587
                0x0001d610       0x44
 .text.TCPIP_STACK_AddressServiceEvent
                0x0001d610       0x44 build/FreeRTOS/production/_ext/540595297/tcpip_manager.o
                0x0001d610                TCPIP_STACK_AddressServiceEvent

.text._TCPIPStackModuleRxInsert%588
                0x0001d654       0x44
 .text._TCPIPStackModuleRxInsert
                0x0001d654       0x44 build/FreeRTOS/production/_ext/540595297/tcpip_manager.o
                0x0001d654                _TCPIPStackModuleRxInsert

.rodata%589     0x0001d698       0x44
 .rodata        0x0001d698       0x44 build/FreeRTOS/production/_ext/540595297/udp.o

.text.SYS_INT_SourceDisable%590
                0x0001d6dc       0x44
 .text.SYS_INT_SourceDisable
                0x0001d6dc       0x44 build/FreeRTOS/production/_ext/1690414130/sys_int.o
                0x0001d6dc                SYS_INT_SourceDisable

.rodata%591     0x0001d720       0x44
 .rodata        0x0001d720       0x44 build/FreeRTOS/production/_ext/1434865757/gfx_mono_text.o

.text.gfx_mono_ssd1306_put_byte%592
                0x0001d764       0x44
 .text.gfx_mono_ssd1306_put_byte
                0x0001d764       0x44 build/FreeRTOS/production/_ext/1434865757/gfx_mono_ug_2832hsweg04.o
                0x0001d764                gfx_mono_ssd1306_put_byte

.text.sprintf%593
                0x0001d7a8       0x44
 .text.sprintf  0x0001d7a8       0x44 c:/program files/microchip/xc32/v3.01/bin/bin/../../lib/gcc/pic32c/8.3.1/../../../../pic32c/lib/thumb/v7e-m+fp/hard\libc_nano.a(lib_a-sprintf.o)
                0x0001d7a8                __sprintf_dis
                0x0001d7a8                sprintf
                0x0001d7a8                __sprintf_oxX
                0x0001d7a8                siprintf
                0x0001d7a8                __sprintf_di

.text._DRV_GMAC_LinkStateNegComplete%594
                0x0001d7ec       0x42
 .text._DRV_GMAC_LinkStateNegComplete
                0x0001d7ec       0x42 build/FreeRTOS/production/_ext/41526634/drv_gmac.o

.text._TcpSocketSetSourceInterface%595
                0x0001d82e       0x42
 .text._TcpSocketSetSourceInterface
                0x0001d82e       0x42 build/FreeRTOS/production/_ext/540595297/tcp.o

.text._UDPSetNewRxPacket%596
                0x0001d870       0x42
 .text._UDPSetNewRxPacket
                0x0001d870       0x42 build/FreeRTOS/production/_ext/540595297/udp.o

.text.TCPIP_UDP_SourceIPAddressSet%597
                0x0001d8b2       0x42
 .text.TCPIP_UDP_SourceIPAddressSet
                0x0001d8b2       0x42 build/FreeRTOS/production/_ext/540595297/udp.o
                0x0001d8b2                TCPIP_UDP_SourceIPAddressSet

.text%598       0x0001d8f4       0x40
 .text          0x0001d8f4       0x40 c:/program files/microchip/xc32/v3.01/bin/bin/../../lib/gcc/pic32c/8.3.1/thumb/v7e-m+fp/hard/crtbegin.o

.text.DRV_ETHPHY_Reset%599
                0x0001d934       0x40
 .text.DRV_ETHPHY_Reset
                0x0001d934       0x40 build/FreeRTOS/production/_ext/1231519722/drv_ethphy.o
                0x0001d934                DRV_ETHPHY_Reset

.text.DRV_ETHPHY_NegotiationIsComplete%600
                0x0001d974       0x40
 .text.DRV_ETHPHY_NegotiationIsComplete
                0x0001d974       0x40 build/FreeRTOS/production/_ext/1231519722/drv_ethphy.o
                0x0001d974                DRV_ETHPHY_NegotiationIsComplete

.text.DRV_ETHPHY_RestartNegotiation%601
                0x0001d9b4       0x40
 .text.DRV_ETHPHY_RestartNegotiation
                0x0001d9b4       0x40 build/FreeRTOS/production/_ext/1231519722/drv_ethphy.o
                0x0001d9b4                DRV_ETHPHY_RestartNegotiation

.text._DRV_ETHPHY_ResetPhaseWrite%602
                0x0001d9f4       0x40
 .text._DRV_ETHPHY_ResetPhaseWrite
                0x0001d9f4       0x40 build/FreeRTOS/production/_ext/1231519722/drv_ethphy.o

.rodata.DRV_MIIM_OBJECT_BASE_Default%603
                0x0001da34       0x40
 .rodata.DRV_MIIM_OBJECT_BASE_Default
                0x0001da34       0x40 build/FreeRTOS/production/_ext/1149484450/drv_miim.o
                0x0001da34                DRV_MIIM_OBJECT_BASE_Default

.text._TCP_PortIsAvailable%604
                0x0001da74       0x40
 .text._TCP_PortIsAvailable
                0x0001da74       0x40 build/FreeRTOS/production/_ext/540595297/tcp.o

.text._DHCPSetBoundState%605
                0x0001dab4       0x40
 .text._DHCPSetBoundState
                0x0001dab4       0x40 build/FreeRTOS/production/_ext/540595297/dhcp.o

.text.TCPIP_DHCP_Deinitialize%606
                0x0001daf4       0x40
 .text.TCPIP_DHCP_Deinitialize
                0x0001daf4       0x40 build/FreeRTOS/production/_ext/540595297/dhcp.o
                0x0001daf4                TCPIP_DHCP_Deinitialize

.text.TCPIP_DNS_RemoveEntry%607
                0x0001db34       0x40
 .text.TCPIP_DNS_RemoveEntry
                0x0001db34       0x40 build/FreeRTOS/production/_ext/540595297/dns.o
                0x0001db34                TCPIP_DNS_RemoveEntry

.rodata%608     0x0001db74       0x40
 .rodata        0x0001db74       0x40 build/FreeRTOS/production/_ext/540595297/tcpip_helpers.o

.text.TCPIP_STACK_NetHandleGet%609
                0x0001dbb4       0x40
 .text.TCPIP_STACK_NetHandleGet
                0x0001dbb4       0x40 build/FreeRTOS/production/_ext/540595297/tcpip_manager.o
                0x0001dbb4                TCPIP_STACK_NetHandleGet

.text._TCPIP_PKT_PacketAcknowledge%610
                0x0001dbf4       0x40
 .text._TCPIP_PKT_PacketAcknowledge
                0x0001dbf4       0x40 build/FreeRTOS/production/_ext/540595297/tcpip_packet.o
                0x0001dbf4                _TCPIP_PKT_PacketAcknowledge

.text._UDPIsAvailablePort%611
                0x0001dc34       0x40
 .text._UDPIsAvailablePort
                0x0001dc34       0x40 build/FreeRTOS/production/_ext/540595297/udp.o

.text.TCPIP_UDP_SocketNetSet%612
                0x0001dc74       0x40
 .text.TCPIP_UDP_SocketNetSet
                0x0001dc74       0x40 build/FreeRTOS/production/_ext/540595297/udp.o
                0x0001dc74                TCPIP_UDP_SocketNetSet

.text.TC0_TimerInitialize%613
                0x0001dcb4       0x40
 .text.TC0_TimerInitialize
                0x0001dcb4       0x40 build/FreeRTOS/production/_ext/579449528/plib_tc0.o
                0x0001dcb4                TC0_TimerInitialize

.text.SYS_TIME_TimerAdd%614
                0x0001dcf4       0x40
 .text.SYS_TIME_TimerAdd
                0x0001dcf4       0x40 build/FreeRTOS/production/_ext/832704728/sys_time.o

.rodata%615     0x0001dd34       0x40
 .rodata        0x0001dd34       0x40 build/FreeRTOS/production/_ext/161576091/tasks.o

.text.ssd1306_write_command%616
                0x0001dd74       0x40
 .text.ssd1306_write_command
                0x0001dd74       0x40 build/FreeRTOS/production/_ext/1434865757/gfx_ssd1306.o
                0x0001dd74                ssd1306_write_command

.text.ssd1306_write_data%617
                0x0001ddb4       0x40
 .text.ssd1306_write_data
                0x0001ddb4       0x40 build/FreeRTOS/production/_ext/1434865757/gfx_ssd1306.o
                0x0001ddb4                ssd1306_write_data

.text%618       0x0001ddf4       0x40
 .text          0x0001ddf4       0x40 c:/program files/microchip/xc32/v3.01/bin/bin/../../lib/gcc/pic32c/8.3.1/thumb/v7e-m+fp/hard\libgcc.a(_arm_fixunsdfsi.o)
                0x0001ddf4                __aeabi_d2uiz
                0x0001ddf4                __fixunsdfsi

.text.__hi0bits%619
                0x0001de34       0x40
 .text.__hi0bits
                0x0001de34       0x40 c:/program files/microchip/xc32/v3.01/bin/bin/../../lib/gcc/pic32c/8.3.1/../../../../pic32c/lib/thumb/v7e-m+fp/hard\libc_nano.a(lib_a-mprec.o)
                0x0001de34                __hi0bits

.text.write%620
                0x0001de74       0x40
 .text.write    0x0001de74       0x40 c:/program files/microchip/xc32/v3.01/bin/bin/../../lib/gcc/pic32c/8.3.1/../../../../pic32c/lib/thumb/v7e-m+fp/hard\libpic32c.a(write.o)
                0x0001de74                write

.text._TCPSetHalfFlushFlag%621
                0x0001deb4       0x3e
 .text._TCPSetHalfFlushFlag
                0x0001deb4       0x3e build/FreeRTOS/production/_ext/540595297/tcp.o

.text._DHCPOptionProcessSubNet%622
                0x0001def2       0x3e
 .text._DHCPOptionProcessSubNet
                0x0001def2       0x3e build/FreeRTOS/production/_ext/540595297/dhcp.o

.text.TCPIP_STACK_AddressServiceDefaultSet%623
                0x0001df30       0x3e
 .text.TCPIP_STACK_AddressServiceDefaultSet
                0x0001df30       0x3e build/FreeRTOS/production/_ext/540595297/tcpip_manager.o
                0x0001df30                TCPIP_STACK_AddressServiceDefaultSet

.text.TCPIP_UDP_TxOffsetSet%624
                0x0001df6e       0x3e
 .text.TCPIP_UDP_TxOffsetSet
                0x0001df6e       0x3e build/FreeRTOS/production/_ext/540595297/udp.o
                0x0001df6e                TCPIP_UDP_TxOffsetSet

.rodata%625     0x0001dfac       0x3d
 .rodata        0x0001dfac       0x3d c:/program files/microchip/xc32/v3.01/bin/bin/../../lib/gcc/pic32c/8.3.1/../../../../pic32c/lib/thumb/v7e-m+fp/hard\libc_nano.a(lib_a-assert.o)

.text._DRV_ETHPHY_NegCompletePhaseAN_Complete%626
                0x0001dfea       0x3c
 .text._DRV_ETHPHY_NegCompletePhaseAN_Complete
                0x0001dfea       0x3c build/FreeRTOS/production/_ext/1231519722/drv_ethphy.o

.text.Lan867x_Read_Register%627
                0x0001e026       0x3c
 .text.Lan867x_Read_Register
                0x0001e026       0x3c build/FreeRTOS/production/_ext/1231519722/drv_extphy_lan867x.o
                0x0001e026                Lan867x_Read_Register

.text.DRV_MIIM_RegisterCallback%628
                0x0001e062       0x3c
 .text.DRV_MIIM_RegisterCallback
                0x0001e062       0x3c build/FreeRTOS/production/_ext/1149484450/drv_miim.o
                0x0001e062                DRV_MIIM_RegisterCallback

.text.hexatob%629
                0x0001e09e       0x3c
 .text.hexatob  0x0001e09e       0x3c build/FreeRTOS/production/_ext/540595297/helpers.o
                0x0001e09e                hexatob

.text.TCPIP_TCP_Close%630
                0x0001e0da       0x3c
 .text.TCPIP_TCP_Close
                0x0001e0da       0x3c build/FreeRTOS/production/_ext/540595297/tcp.o
                0x0001e0da                TCPIP_TCP_Close

.text._DHCPOptionProcessRouter%631
                0x0001e116       0x3c
 .text._DHCPOptionProcessRouter
                0x0001e116       0x3c build/FreeRTOS/production/_ext/540595297/dhcp.o

.text._DHCPNotifyClients%632
                0x0001e154       0x3c
 .text._DHCPNotifyClients
                0x0001e154       0x3c build/FreeRTOS/production/_ext/540595297/dhcp.o

.text.TCPIP_DHCP_IsEnabled%633
                0x0001e190       0x3c
 .text.TCPIP_DHCP_IsEnabled
                0x0001e190       0x3c build/FreeRTOS/production/_ext/540595297/dhcp.o
                0x0001e190                TCPIP_DHCP_IsEnabled

.text._TCPIPStackModuleSignalGet%634
                0x0001e1cc       0x3c
 .text._TCPIPStackModuleSignalGet
                0x0001e1cc       0x3c build/FreeRTOS/production/_ext/540595297/tcpip_manager.o
                0x0001e1cc                _TCPIPStackModuleSignalGet

.text._TCPIP_PKT_PacketFree%635
                0x0001e208       0x3c
 .text._TCPIP_PKT_PacketFree
                0x0001e208       0x3c build/FreeRTOS/production/_ext/540595297/tcpip_packet.o
                0x0001e208                _TCPIP_PKT_PacketFree

.text.TCPIP_UDP_OpenClientSkt%636
                0x0001e244       0x3c
 .text.TCPIP_UDP_OpenClientSkt
                0x0001e244       0x3c build/FreeRTOS/production/_ext/540595297/udp.o
                0x0001e244                TCPIP_UDP_OpenClientSkt

.text.Console_UART_Read%637
                0x0001e280       0x3c
 .text.Console_UART_Read
                0x0001e280       0x3c build/FreeRTOS/production/_ext/548640822/sys_console_uart.o
                0x0001e280                Console_UART_Read

.text.Console_UART_Write%638
                0x0001e2bc       0x3c
 .text.Console_UART_Write
                0x0001e2bc       0x3c build/FreeRTOS/production/_ext/548640822/sys_console_uart.o
                0x0001e2bc                Console_UART_Write

.text.SYS_TIME_GetTimerObject%639
                0x0001e2f8       0x3c
 .text.SYS_TIME_GetTimerObject
                0x0001e2f8       0x3c build/FreeRTOS/production/_ext/832704728/sys_time.o

.text.SYS_TIME_ResourceUnlock%640
                0x0001e334       0x3c
 .text.SYS_TIME_ResourceUnlock
                0x0001e334       0x3c build/FreeRTOS/production/_ext/832704728/sys_time.o

.text.SYS_TIME_Counter64Get%641
                0x0001e370       0x3c
 .text.SYS_TIME_Counter64Get
                0x0001e370       0x3c build/FreeRTOS/production/_ext/832704728/sys_time.o
                0x0001e370                SYS_TIME_Counter64Get

.text.SYS_TIME_TimerDestroy%642
                0x0001e3ac       0x3c
 .text.SYS_TIME_TimerDestroy
                0x0001e3ac       0x3c build/FreeRTOS/production/_ext/832704728/sys_time.o
                0x0001e3ac                SYS_TIME_TimerDestroy

.text.wc_InitMd5_ex%643
                0x0001e3e8       0x3c
 .text.wc_InitMd5_ex
                0x0001e3e8       0x3c build/FreeRTOS/production/_ext/1664057780/md5.o
                0x0001e3e8                wc_InitMd5_ex

.text.__assert_func%644
                0x0001e424       0x3c
 .text.__assert_func
                0x0001e424       0x3c c:/program files/microchip/xc32/v3.01/bin/bin/../../lib/gcc/pic32c/8.3.1/../../../../pic32c/lib/thumb/v7e-m+fp/hard\libc_nano.a(lib_a-assert.o)
                0x0001e424                __assert_func

.text._fwalk_reent%645
                0x0001e460       0x3c
 .text._fwalk_reent
                0x0001e460       0x3c c:/program files/microchip/xc32/v3.01/bin/bin/../../lib/gcc/pic32c/8.3.1/../../../../pic32c/lib/thumb/v7e-m+fp/hard\libc_nano.a(lib_a-fwalk.o)
                0x0001e460                _fwalk_reent

.text._DRV_ETHPHY_SetupPhaseNegotiate_SubPhase1%646
                0x0001e49c       0x3a
 .text._DRV_ETHPHY_SetupPhaseNegotiate_SubPhase1
                0x0001e49c       0x3a build/FreeRTOS/production/_ext/1231519722/drv_ethphy.o

.text._DRV_ETHPHY_NegRestartPhaseRead%647
                0x0001e4d6       0x3a
 .text._DRV_ETHPHY_NegRestartPhaseRead
                0x0001e4d6       0x3a build/FreeRTOS/production/_ext/1231519722/drv_ethphy.o

.text._DRV_MIIM_ReleaseOpDcpt%648
                0x0001e510       0x3a
 .text._DRV_MIIM_ReleaseOpDcpt
                0x0001e510       0x3a build/FreeRTOS/production/_ext/1149484450/drv_miim.o

.text.DRV_MIIM_Deinitialize%649
                0x0001e54a       0x3a
 .text.DRV_MIIM_Deinitialize
                0x0001e54a       0x3a build/FreeRTOS/production/_ext/1149484450/drv_miim.o
                0x0001e54a                DRV_MIIM_Deinitialize

.text._TCPIP_HEAP_MaxSize%650
                0x0001e584       0x3a
 .text._TCPIP_HEAP_MaxSize
                0x0001e584       0x3a build/FreeRTOS/production/_ext/540595297/tcpip_heap_internal.o

.text._DHCPOptionProcessMsgType%651
                0x0001e5be       0x3a
 .text._DHCPOptionProcessMsgType
                0x0001e5be       0x3a build/FreeRTOS/production/_ext/540595297/dhcp.o

.text.TCPIP_STACK_NetAliasNameGet%652
                0x0001e5f8       0x3a
 .text.TCPIP_STACK_NetAliasNameGet
                0x0001e5f8       0x3a build/FreeRTOS/production/_ext/540595297/tcpip_manager.o
                0x0001e5f8                TCPIP_STACK_NetAliasNameGet

.text.DRV_ETHPHY_HWConfigFlagsGet%653
                0x0001e634       0x38
 .text.DRV_ETHPHY_HWConfigFlagsGet
                0x0001e634       0x38 build/FreeRTOS/production/_ext/1231519722/drv_ethphy.o
                0x0001e634                DRV_ETHPHY_HWConfigFlagsGet

.text._DRV_ETHPHY_SetupPhaseNegotiate_SubPhase6%654
                0x0001e66c       0x38
 .text._DRV_ETHPHY_SetupPhaseNegotiate_SubPhase6
                0x0001e66c       0x38 build/FreeRTOS/production/_ext/1231519722/drv_ethphy.o

.text.DRV_GMAC_Open%655
                0x0001e6a4       0x38
 .text.DRV_GMAC_Open
                0x0001e6a4       0x38 build/FreeRTOS/production/_ext/41526634/drv_gmac.o
                0x0001e6a4                DRV_GMAC_Open

.text.DRV_PIC32CGMAC_LibGetMacAddr%656
                0x0001e6dc       0x38
 .text.DRV_PIC32CGMAC_LibGetMacAddr
                0x0001e6dc       0x38 build/FreeRTOS/production/_ext/41526634/drv_gmac_lib_samE5x.o
                0x0001e6dc                DRV_PIC32CGMAC_LibGetMacAddr

.text._TCP_EphemeralPortAllocate%657
                0x0001e714       0x38
 .text._TCP_EphemeralPortAllocate
                0x0001e714       0x38 build/FreeRTOS/production/_ext/540595297/tcp.o

.text.TCPIP_Commands_Deinitialize%658
                0x0001e74c       0x38
 .text.TCPIP_Commands_Deinitialize
                0x0001e74c       0x38 build/FreeRTOS/production/_ext/540595297/tcpip_commands.o
                0x0001e74c                TCPIP_Commands_Deinitialize

.text.TCPIP_DNS_ClientInfoGet%659
                0x0001e784       0x38
 .text.TCPIP_DNS_ClientInfoGet
                0x0001e784       0x38 build/FreeRTOS/production/_ext/540595297/dns.o
                0x0001e784                TCPIP_DNS_ClientInfoGet

.text.TCPIP_PKT_PacketMACFormat%660
                0x0001e7bc       0x38
 .text.TCPIP_PKT_PacketMACFormat
                0x0001e7bc       0x38 build/FreeRTOS/production/_ext/540595297/tcpip_packet.o
                0x0001e7bc                TCPIP_PKT_PacketMACFormat

.text._UDPAllocateEphemeralPort%661
                0x0001e7f4       0x38
 .text._UDPAllocateEphemeralPort
                0x0001e7f4       0x38 build/FreeRTOS/production/_ext/540595297/udp.o

.text.SYS_CMD_Initialize%662
                0x0001e82c       0x38
 .text.SYS_CMD_Initialize
                0x0001e82c       0x38 build/FreeRTOS/production/_ext/1005353002/sys_command.o
                0x0001e82c                SYS_CMD_Initialize

.text.SYS_TIME_ResourceLock%663
                0x0001e864       0x38
 .text.SYS_TIME_ResourceLock
                0x0001e864       0x38 build/FreeRTOS/production/_ext/832704728/sys_time.o

.rodata.TCPIP_HOSTS_CONFIGURATION%664
                0x0001e89c       0x38
 .rodata.TCPIP_HOSTS_CONFIGURATION
                0x0001e89c       0x38 build/FreeRTOS/production/_ext/161576091/initialization.o
                0x0001e89c                TCPIP_HOSTS_CONFIGURATION

.text.SERCOM0_SPI_Initialize%665
                0x0001e8d4       0x38
 .text.SERCOM0_SPI_Initialize
                0x0001e8d4       0x38 build/FreeRTOS/production/_ext/1428073114/plib_sercom0_spi_master.o
                0x0001e8d4                SERCOM0_SPI_Initialize

.text.__swrite%666
                0x0001e90c       0x38
 .text.__swrite
                0x0001e90c       0x38 c:/program files/microchip/xc32/v3.01/bin/bin/../../lib/gcc/pic32c/8.3.1/../../../../pic32c/lib/thumb/v7e-m+fp/hard\libc_nano.a(lib_a-stdio.o)
                0x0001e90c                __swrite

.text._DRV_ETHPHY_NegCompletePhaseRead1%667
                0x0001e944       0x36
 .text._DRV_ETHPHY_NegCompletePhaseRead1
                0x0001e944       0x36 build/FreeRTOS/production/_ext/1231519722/drv_ethphy.o

.text._TCPSetSourceAddress%668
                0x0001e97a       0x36
 .text._TCPSetSourceAddress
                0x0001e97a       0x36 build/FreeRTOS/production/_ext/540595297/tcp.o

.text._DNS_NetIsValid%669
                0x0001e9b0       0x36
 .text._DNS_NetIsValid
                0x0001e9b0       0x36 build/FreeRTOS/production/_ext/540595297/dns.o

.text._TCPIPStackSetConfigAddress%670
                0x0001e9e6       0x36
 .text._TCPIPStackSetConfigAddress
                0x0001e9e6       0x36 build/FreeRTOS/production/_ext/540595297/tcpip_manager.o
                0x0001e9e6                _TCPIPStackSetConfigAddress

.text._DRV_ETHPHY_SetupPhaseNegotiate_SubPhase2%671
                0x0001ea1c       0x34
 .text._DRV_ETHPHY_SetupPhaseNegotiate_SubPhase2
                0x0001ea1c       0x34 build/FreeRTOS/production/_ext/1231519722/drv_ethphy.o

.text.DRV_PIC32CGMAC_LibClearPriorityQue%672
                0x0001ea50       0x34
 .text.DRV_PIC32CGMAC_LibClearPriorityQue
                0x0001ea50       0x34 build/FreeRTOS/production/_ext/41526634/drv_gmac_lib_samE5x.o
                0x0001ea50                DRV_PIC32CGMAC_LibClearPriorityQue

.text._TCP_SktFlagsGet%673
                0x0001ea84       0x34
 .text._TCP_SktFlagsGet
                0x0001ea84       0x34 build/FreeRTOS/production/_ext/540595297/tcp.o

.text._ARPSetEntry%674
                0x0001eab8       0x34
 .text._ARPSetEntry
                0x0001eab8       0x34 build/FreeRTOS/production/_ext/540595297/arp.o

.text.TCPIP_ARP_HandlerRegister%675
                0x0001eaec       0x34
 .text.TCPIP_ARP_HandlerRegister
                0x0001eaec       0x34 build/FreeRTOS/production/_ext/540595297/arp.o
                0x0001eaec                TCPIP_ARP_HandlerRegister

.rodata%676     0x0001eb20       0x34
 .rodata        0x0001eb20       0x34 build/FreeRTOS/production/_ext/540595297/dhcp.o

.text._DNSGetData%677
                0x0001eb54       0x34
 .text._DNSGetData
                0x0001eb54       0x34 build/FreeRTOS/production/_ext/540595297/dns.o

.text.TCPIP_STACK_NetDown%678
                0x0001eb88       0x34
 .text.TCPIP_STACK_NetDown
                0x0001eb88       0x34 build/FreeRTOS/production/_ext/540595297/tcpip_manager.o
                0x0001eb88                TCPIP_STACK_NetDown

.text.TCPIP_UDP_RxOffsetSet%679
                0x0001ebbc       0x34
 .text.TCPIP_UDP_RxOffsetSet
                0x0001ebbc       0x34 build/FreeRTOS/production/_ext/540595297/udp.o
                0x0001ebbc                TCPIP_UDP_RxOffsetSet

.text.CommandQuit%680
                0x0001ebf0       0x34
 .text.CommandQuit
                0x0001ebf0       0x34 build/FreeRTOS/production/_ext/1005353002/sys_command.o

.text.Console_UART_WriteCountGet%681
                0x0001ec24       0x34
 .text.Console_UART_WriteCountGet
                0x0001ec24       0x34 build/FreeRTOS/production/_ext/548640822/sys_console_uart.o
                0x0001ec24                Console_UART_WriteCountGet

.text.Console_UART_WriteFreeBufferCountGet%682
                0x0001ec58       0x34
 .text.Console_UART_WriteFreeBufferCountGet
                0x0001ec58       0x34 build/FreeRTOS/production/_ext/548640822/sys_console_uart.o
                0x0001ec58                Console_UART_WriteFreeBufferCountGet

.text.Console_UART_ReadFreeBufferCountGet%683
                0x0001ec8c       0x34
 .text.Console_UART_ReadFreeBufferCountGet
                0x0001ec8c       0x34 build/FreeRTOS/production/_ext/548640822/sys_console_uart.o
                0x0001ec8c                Console_UART_ReadFreeBufferCountGet

.text.Console_UART_ReadCountGet%684
                0x0001ecc0       0x34
 .text.Console_UART_ReadCountGet
                0x0001ecc0       0x34 build/FreeRTOS/production/_ext/548640822/sys_console_uart.o
                0x0001ecc0                Console_UART_ReadCountGet

.text.SYS_CONSOLE_Read%685
                0x0001ecf4       0x34
 .text.SYS_CONSOLE_Read
                0x0001ecf4       0x34 build/FreeRTOS/production/_ext/548640822/sys_console.o
                0x0001ecf4                SYS_CONSOLE_Read

.text.SYS_CONSOLE_ReadCountGet%686
                0x0001ed28       0x34
 .text.SYS_CONSOLE_ReadCountGet
                0x0001ed28       0x34 build/FreeRTOS/production/_ext/548640822/sys_console.o
                0x0001ed28                SYS_CONSOLE_ReadCountGet

.text.SYS_CONSOLE_Write%687
                0x0001ed5c       0x34
 .text.SYS_CONSOLE_Write
                0x0001ed5c       0x34 build/FreeRTOS/production/_ext/548640822/sys_console.o
                0x0001ed5c                SYS_CONSOLE_Write

.rodata.tcpipMACPIC32CINTInitData%688
                0x0001ed90       0x34
 .rodata.tcpipMACPIC32CINTInitData
                0x0001ed90       0x34 build/FreeRTOS/production/_ext/161576091/initialization.o
                0x0001ed90                tcpipMACPIC32CINTInitData

.text.vListInsert%689
                0x0001edc4       0x34
 .text.vListInsert
                0x0001edc4       0x34 build/FreeRTOS/production/_ext/404212886/list.o
                0x0001edc4                vListInsert

.text.vTaskDelay%690
                0x0001edf8       0x34
 .text.vTaskDelay
                0x0001edf8       0x34 build/FreeRTOS/production/_ext/404212886/FreeRTOS_tasks.o
                0x0001edf8                vTaskDelay

.text.Hash_DRBG_Uninstantiate%691
                0x0001ee2c       0x34
 .text.Hash_DRBG_Uninstantiate
                0x0001ee2c       0x34 build/FreeRTOS/production/_ext/1664057780/random.o

.text.gfx_mono_generic_draw_filled_rect%692
                0x0001ee60       0x34
 .text.gfx_mono_generic_draw_filled_rect
                0x0001ee60       0x34 build/FreeRTOS/production/_ext/1434865757/gfx_mono_generic.o
                0x0001ee60                gfx_mono_generic_draw_filled_rect

.text.memmove%693
                0x0001ee94       0x34
 .text.memmove  0x0001ee94       0x34 c:/program files/microchip/xc32/v3.01/bin/bin/../../lib/gcc/pic32c/8.3.1/../../../../pic32c/lib/thumb/v7e-m+fp/hard\libc_nano.a(lib_a-memmove.o)
                0x0001ee94                memmove

.text.__mcmp%694
                0x0001eec8       0x34
 .text.__mcmp   0x0001eec8       0x34 c:/program files/microchip/xc32/v3.01/bin/bin/../../lib/gcc/pic32c/8.3.1/../../../../pic32c/lib/thumb/v7e-m+fp/hard\libc_nano.a(lib_a-mprec.o)
                0x0001eec8                __mcmp

.text._DRV_PHY_SMIReadStart%695
                0x0001eefc       0x32
 .text._DRV_PHY_SMIReadStart
                0x0001eefc       0x32 build/FreeRTOS/production/_ext/1231519722/drv_ethphy.o

.text._DRV_PHY_SMIWriteStart%696
                0x0001ef2e       0x32
 .text._DRV_PHY_SMIWriteStart
                0x0001ef2e       0x32 build/FreeRTOS/production/_ext/1231519722/drv_ethphy.o

.text._DRV_ETHPHY_SetupPhaseIdle%697
                0x0001ef60       0x32
 .text._DRV_ETHPHY_SetupPhaseIdle
                0x0001ef60       0x32 build/FreeRTOS/production/_ext/1231519722/drv_ethphy.o

.text.DRV_PIC32CGMAC_LibTxAckPendPacket%698
                0x0001ef92       0x32
 .text.DRV_PIC32CGMAC_LibTxAckPendPacket
                0x0001ef92       0x32 build/FreeRTOS/production/_ext/41526634/drv_gmac_lib_samE5x.o
                0x0001ef92                DRV_PIC32CGMAC_LibTxAckPendPacket

.text.TCPIP_STACK_NetBiosNameSet%699
                0x0001efc4       0x32
 .text.TCPIP_STACK_NetBiosNameSet
                0x0001efc4       0x32 build/FreeRTOS/production/_ext/540595297/tcpip_manager.o
                0x0001efc4                TCPIP_STACK_NetBiosNameSet

.text._DRV_PHY_NegCompleteSetOperResult%700
                0x0001eff6       0x30
 .text._DRV_PHY_NegCompleteSetOperResult
                0x0001eff6       0x30 build/FreeRTOS/production/_ext/1231519722/drv_ethphy.o

.text._DRV_ETHPHY_SetupPhaseNegotiate_SubPhase3%701
                0x0001f028       0x30
 .text._DRV_ETHPHY_SetupPhaseNegotiate_SubPhase3
                0x0001f028       0x30 build/FreeRTOS/production/_ext/1231519722/drv_ethphy.o

.text.DRV_GMAC_Status%702
                0x0001f058       0x30
 .text.DRV_GMAC_Status
                0x0001f058       0x30 build/FreeRTOS/production/_ext/41526634/drv_gmac.o
                0x0001f058                DRV_GMAC_Status

.text.DRV_PIC32CGMAC_LibSetMacAddr%703
                0x0001f088       0x30
 .text.DRV_PIC32CGMAC_LibSetMacAddr
                0x0001f088       0x30 build/FreeRTOS/production/_ext/41526634/drv_gmac_lib_samE5x.o
                0x0001f088                DRV_PIC32CGMAC_LibSetMacAddr

.text.GMAC_InterruptHandler%704
                0x0001f0b8       0x30
 .text.GMAC_InterruptHandler
                0x0001f0b8       0x30 build/FreeRTOS/production/_ext/41526634/drv_gmac_lib_samE5x.o
                0x0001f0b8                GMAC_InterruptHandler

.text.TCPIP_ICMP_Cleanup%705
                0x0001f0e8       0x30
 .text.TCPIP_ICMP_Cleanup
                0x0001f0e8       0x30 build/FreeRTOS/production/_ext/540595297/icmp.o

.text._TCPSocketTxFreeSize%706
                0x0001f118       0x30
 .text._TCPSocketTxFreeSize
                0x0001f118       0x30 build/FreeRTOS/production/_ext/540595297/tcp.o

.text.TCPIP_ARP_HashEntryDelete%707
                0x0001f148       0x30
 .text.TCPIP_ARP_HashEntryDelete
                0x0001f148       0x30 build/FreeRTOS/production/_ext/540595297/arp.o
                0x0001f148                TCPIP_ARP_HashEntryDelete

.rodata.iperfCmdTbl%708
                0x0001f178       0x30
 .rodata.iperfCmdTbl
                0x0001f178       0x30 build/FreeRTOS/production/_ext/540595297/iperf.o

.text.TCPIP_IPV4_CheckPktTx%709
                0x0001f1a8       0x30
 .text.TCPIP_IPV4_CheckPktTx
                0x0001f1a8       0x30 build/FreeRTOS/production/_ext/540595297/ipv4.o

.text.fnv_32_hash%710
                0x0001f1d8       0x30
 .text.fnv_32_hash
                0x0001f1d8       0x30 build/FreeRTOS/production/_ext/540595297/hash_fnv.o
                0x0001f1d8                fnv_32_hash

.text.TCPIP_OAHASH_EntriesRemoveAll%711
                0x0001f208       0x30
 .text.TCPIP_OAHASH_EntriesRemoveAll
                0x0001f208       0x30 build/FreeRTOS/production/_ext/540595297/oahash.o
                0x0001f208                TCPIP_OAHASH_EntriesRemoveAll

.text.TCPIP_Helper_StringToPowerMode%712
                0x0001f238       0x30
 .text.TCPIP_Helper_StringToPowerMode
                0x0001f238       0x30 build/FreeRTOS/production/_ext/540595297/tcpip_helpers.o
                0x0001f238                TCPIP_Helper_StringToPowerMode

.text.TCPIP_Helper_ProtectedSingleListDeinitialize%713
                0x0001f268       0x30
 .text.TCPIP_Helper_ProtectedSingleListDeinitialize
                0x0001f268       0x30 build/FreeRTOS/production/_ext/540595297/tcpip_helpers.o
                0x0001f268                TCPIP_Helper_ProtectedSingleListDeinitialize

.text.TCPIP_Helper_ProtectedSingleListNodeRemove%714
                0x0001f298       0x30
 .text.TCPIP_Helper_ProtectedSingleListNodeRemove
                0x0001f298       0x30 build/FreeRTOS/production/_ext/540595297/tcpip_helpers.o
                0x0001f298                TCPIP_Helper_ProtectedSingleListNodeRemove

.text.TCPIP_STACK_InitializeDataGet%715
                0x0001f2c8       0x30
 .text.TCPIP_STACK_InitializeDataGet
                0x0001f2c8       0x30 build/FreeRTOS/production/_ext/540595297/tcpip_manager.o
                0x0001f2c8                TCPIP_STACK_InitializeDataGet

.text.TCPIP_PKT_Initialize%716
                0x0001f2f8       0x30
 .text.TCPIP_PKT_Initialize
                0x0001f2f8       0x30 build/FreeRTOS/production/_ext/540595297/tcpip_packet.o
                0x0001f2f8                TCPIP_PKT_Initialize

.text.TCPIP_UDP_Close%717
                0x0001f328       0x30
 .text.TCPIP_UDP_Close
                0x0001f328       0x30 build/FreeRTOS/production/_ext/540595297/udp.o
                0x0001f328                TCPIP_UDP_Close

.text.SendCommandCharacter%718
                0x0001f358       0x30
 .text.SendCommandCharacter
                0x0001f358       0x30 build/FreeRTOS/production/_ext/1005353002/sys_command.o

.text._keyEndProcess%719
                0x0001f388       0x30
 .text._keyEndProcess
                0x0001f388       0x30 build/FreeRTOS/production/_ext/1005353002/sys_command.o

.text._keyHomeProcess%720
                0x0001f3b8       0x30
 .text._keyHomeProcess
                0x0001f3b8       0x30 build/FreeRTOS/production/_ext/1005353002/sys_command.o

.text.SYS_CONSOLE_Message%721
                0x0001f3e8       0x30
 .text.SYS_CONSOLE_Message
                0x0001f3e8       0x30 build/FreeRTOS/production/_ext/548640822/sys_console.o
                0x0001f3e8                SYS_CONSOLE_Message

.text.SYS_TIME_UpdateTimerList%722
                0x0001f418       0x30
 .text.SYS_TIME_UpdateTimerList
                0x0001f418       0x30 build/FreeRTOS/production/_ext/832704728/sys_time.o

.text.xQueueGenericCreate%723
                0x0001f448       0x30
 .text.xQueueGenericCreate
                0x0001f448       0x30 build/FreeRTOS/production/_ext/404212886/queue.o
                0x0001f448                xQueueGenericCreate

.text.wc_CryptoCb_FindDevice%724
                0x0001f478       0x30
 .text.wc_CryptoCb_FindDevice
                0x0001f478       0x30 build/FreeRTOS/production/_ext/1664057780/cryptocb.o

.rodata.seedA_data%725
                0x0001f4a8       0x30
 .rodata.seedA_data
                0x0001f4a8       0x30 build/FreeRTOS/production/_ext/1664057780/random.o
                0x0001f4a8                seedA_data

.rodata.seedB_data%726
                0x0001f4d8       0x30
 .rodata.seedB_data
                0x0001f4d8       0x30 build/FreeRTOS/production/_ext/1664057780/random.o
                0x0001f4d8                seedB_data

.text%727       0x0001f508       0x30
 .text          0x0001f508       0x30 c:/program files/microchip/xc32/v3.01/bin/bin/../../lib/gcc/pic32c/8.3.1/thumb/v7e-m+fp/hard\libgcc.a(_aeabi_uldivmod.o)
                0x0001f508                __aeabi_uldivmod

.text._XtlEventsTcp2Eth%728
                0x0001f538       0x2e
 .text._XtlEventsTcp2Eth
                0x0001f538       0x2e build/FreeRTOS/production/_ext/41526634/drv_gmac.o

.text._DRV_MIIM_GetObjectAndLock%729
                0x0001f566       0x2e
 .text._DRV_MIIM_GetObjectAndLock
                0x0001f566       0x2e build/FreeRTOS/production/_ext/1149484450/drv_miim.o

.text.DRV_MIIM_DeregisterCallback%730
                0x0001f594       0x2e
 .text.DRV_MIIM_DeregisterCallback
                0x0001f594       0x2e build/FreeRTOS/production/_ext/1149484450/drv_miim.o
                0x0001f594                DRV_MIIM_DeregisterCallback

.text.TCPIP_TCP_Connect%731
                0x0001f5c2       0x2e
 .text.TCPIP_TCP_Connect
                0x0001f5c2       0x2e build/FreeRTOS/production/_ext/540595297/tcp.o
                0x0001f5c2                TCPIP_TCP_Connect

.text._DHCPOptionProcessLease%732
                0x0001f5f0       0x2e
 .text._DHCPOptionProcessLease
                0x0001f5f0       0x2e build/FreeRTOS/production/_ext/540595297/dhcp.o

.text._DHCPOptionProcessRenewT%733
                0x0001f61e       0x2e
 .text._DHCPOptionProcessRenewT
                0x0001f61e       0x2e build/FreeRTOS/production/_ext/540595297/dhcp.o

.text._DHCPOptionProcessRebindT%734
                0x0001f64c       0x2e
 .text._DHCPOptionProcessRebindT
                0x0001f64c       0x2e build/FreeRTOS/production/_ext/540595297/dhcp.o

.text._DHCPOptionClientId%735
                0x0001f67a       0x2e
 .text._DHCPOptionClientId
                0x0001f67a       0x2e build/FreeRTOS/production/_ext/540595297/dhcp.o

.text._DHCPSetTimeout%736
                0x0001f6a8       0x2e
 .text._DHCPSetTimeout
                0x0001f6a8       0x2e build/FreeRTOS/production/_ext/540595297/dhcp.o

.text._DNS_CleanCacheEntry%737
                0x0001f6d6       0x2e
 .text._DNS_CleanCacheEntry
                0x0001f6d6       0x2e build/FreeRTOS/production/_ext/540595297/dns.o

.text._DNSClientCleanup%738
                0x0001f704       0x2e
 .text._DNSClientCleanup
                0x0001f704       0x2e build/FreeRTOS/production/_ext/540595297/dns.o

.text.TCPIP_STACK_DNSServiceCanStart%739
                0x0001f732       0x2e
 .text.TCPIP_STACK_DNSServiceCanStart
                0x0001f732       0x2e build/FreeRTOS/production/_ext/540595297/tcpip_manager.o
                0x0001f732                TCPIP_STACK_DNSServiceCanStart

.text._TxSktGetLockedV4Pkt%740
                0x0001f760       0x2e
 .text._TxSktGetLockedV4Pkt
                0x0001f760       0x2e build/FreeRTOS/production/_ext/540595297/udp.o

.text.wc_CryptoCb_RegisterDevice%741
                0x0001f78e       0x2e
 .text.wc_CryptoCb_RegisterDevice
                0x0001f78e       0x2e build/FreeRTOS/production/_ext/1664057780/cryptocb.o
                0x0001f78e                wc_CryptoCb_RegisterDevice

.text.__sfputc_r%742
                0x0001f7bc       0x2e
 .text.__sfputc_r
                0x0001f7bc       0x2e c:/program files/microchip/xc32/v3.01/bin/bin/../../lib/gcc/pic32c/8.3.1/../../../../pic32c/lib/thumb/v7e-m+fp/hard\libc_nano.a(lib_a-__ssfputs.o)

.text._Bfree%743
                0x0001f7ea       0x2e
 .text._Bfree   0x0001f7ea       0x2e c:/program files/microchip/xc32/v3.01/bin/bin/../../lib/gcc/pic32c/8.3.1/../../../../pic32c/lib/thumb/v7e-m+fp/hard\libc_nano.a(lib_a-mprec.o)
                0x0001f7ea                _Bfree

.text.DRV_ETHPHY_Close%744
                0x0001f818       0x2c
 .text.DRV_ETHPHY_Close
                0x0001f818       0x2c build/FreeRTOS/production/_ext/1231519722/drv_ethphy.o
                0x0001f818                DRV_ETHPHY_Close

.text.DRV_ETHPHY_VendorDataGet%745
                0x0001f844       0x2c
 .text.DRV_ETHPHY_VendorDataGet
                0x0001f844       0x2c build/FreeRTOS/production/_ext/1231519722/drv_ethphy.o
                0x0001f844                DRV_ETHPHY_VendorDataGet

.text.DRV_ETHPHY_Reinitialize%746
                0x0001f870       0x2c
 .text.DRV_ETHPHY_Reinitialize
                0x0001f870       0x2c build/FreeRTOS/production/_ext/1231519722/drv_ethphy.o
                0x0001f870                DRV_ETHPHY_Reinitialize

.text._DRV_ETHPHY_LinkStatPhaseRefresh%747
                0x0001f89c       0x2c
 .text._DRV_ETHPHY_LinkStatPhaseRefresh
                0x0001f89c       0x2c build/FreeRTOS/production/_ext/1231519722/drv_ethphy.o

.text._ARPRemoveEntry%748
                0x0001f8c8       0x2c
 .text._ARPRemoveEntry
                0x0001f8c8       0x2c build/FreeRTOS/production/_ext/540595297/arp.o

.text.TCPIP_Helper_ProtectedSingleListHeadRemove%749
                0x0001f8f4       0x2c
 .text.TCPIP_Helper_ProtectedSingleListHeadRemove
                0x0001f8f4       0x2c build/FreeRTOS/production/_ext/540595297/tcpip_helpers.o
                0x0001f8f4                TCPIP_Helper_ProtectedSingleListHeadRemove

.text.TCPIP_STACK_IsBcastAddress%750
                0x0001f920       0x2c
 .text.TCPIP_STACK_IsBcastAddress
                0x0001f920       0x2c build/FreeRTOS/production/_ext/540595297/tcpip_manager.o
                0x0001f920                TCPIP_STACK_IsBcastAddress

.text._TCPIPStackModuleRxExtract%751
                0x0001f94c       0x2c
 .text._TCPIPStackModuleRxExtract
                0x0001f94c       0x2c build/FreeRTOS/production/_ext/540595297/tcpip_manager.o
                0x0001f94c                _TCPIPStackModuleRxExtract

.text._TCPIP_PKT_SocketAlloc%752
                0x0001f978       0x2c
 .text._TCPIP_PKT_SocketAlloc
                0x0001f978       0x2c build/FreeRTOS/production/_ext/540595297/tcpip_packet.o
                0x0001f978                _TCPIP_PKT_SocketAlloc

.text._UDPFreeTxResources%753
                0x0001f9a4       0x2c
 .text._UDPFreeTxResources
                0x0001f9a4       0x2c build/FreeRTOS/production/_ext/540595297/udp.o

.text.TC0_TimerInterruptHandler%754
                0x0001f9d0       0x2c
 .text.TC0_TimerInterruptHandler
                0x0001f9d0       0x2c build/FreeRTOS/production/_ext/579449528/plib_tc0.o
                0x0001f9d0                TC0_TimerInterruptHandler

.rodata.sysConsoleUARTDevDesc%755
                0x0001f9fc       0x2c
 .rodata.sysConsoleUARTDevDesc
                0x0001f9fc       0x2c build/FreeRTOS/production/_ext/548640822/sys_console_uart.o
                0x0001f9fc                sysConsoleUARTDevDesc

.text.TCPIP_STACK_Init%756
                0x0001fa28       0x2c
 .text.TCPIP_STACK_Init
                0x0001fa28       0x2c build/FreeRTOS/production/_ext/161576091/initialization.o
                0x0001fa28                TCPIP_STACK_Init

.text.pxPortInitialiseStack%757
                0x0001fa54       0x2c
 .text.pxPortInitialiseStack
                0x0001fa54       0x2c build/FreeRTOS/production/_ext/246609638/port.o
                0x0001fa54                pxPortInitialiseStack

.text.xPortSysTickHandler%758
                0x0001fa80       0x2c
 .text.xPortSysTickHandler
                0x0001fa80       0x2c build/FreeRTOS/production/_ext/246609638/port.o
                0x0001fa80                xPortSysTickHandler

.text.prvResetNextTaskUnblockTime%759
                0x0001faac       0x2c
 .text.prvResetNextTaskUnblockTime
                0x0001faac       0x2c build/FreeRTOS/production/_ext/404212886/FreeRTOS_tasks.o

.text.wc_RNG_HealthTest%760
                0x0001fad8       0x2c
 .text.wc_RNG_HealthTest
                0x0001fad8       0x2c build/FreeRTOS/production/_ext/1664057780/random.o
                0x0001fad8                wc_RNG_HealthTest

.text.SERCOM0_SPI_IsBusy%761
                0x0001fb04       0x2c
 .text.SERCOM0_SPI_IsBusy
                0x0001fb04       0x2c build/FreeRTOS/production/_ext/1428073114/plib_sercom0_spi_master.o
                0x0001fb04                SERCOM0_SPI_IsBusy

.text.__sfmoreglue%762
                0x0001fb30       0x2c
 .text.__sfmoreglue
                0x0001fb30       0x2c c:/program files/microchip/xc32/v3.01/bin/bin/../../lib/gcc/pic32c/8.3.1/../../../../pic32c/lib/thumb/v7e-m+fp/hard\libc_nano.a(lib_a-findfp.o)
                0x0001fb30                __sfmoreglue

.text._wcrtomb_r%763
                0x0001fb5c       0x2c
 .text._wcrtomb_r
                0x0001fb5c       0x2c c:/program files/microchip/xc32/v3.01/bin/bin/../../lib/gcc/pic32c/8.3.1/../../../../pic32c/lib/thumb/v7e-m+fp/hard\libc_nano.a(lib_a-wcrtomb.o)
                0x0001fb5c                _wcrtomb_r

.text._sbrk%764
                0x0001fb88       0x2c
 .text._sbrk    0x0001fb88       0x2c c:/program files/microchip/xc32/v3.01/bin/bin/../../lib/gcc/pic32c/8.3.1/../../../../pic32c/lib/thumb/v7e-m+fp/hard\libpic32c.a(sbrk.o)
                0x0001fb88                _sbrk

.text%765       0x0001fbb4       0x2c
 .text          0x0001fbb4       0x2c c:/program files/microchip/xc32/v3.01/bin/bin/../../lib/gcc/pic32c/8.3.1/thumb/v7e-m+fp/hard\libgcc.a(_arm_unorddf2.o)
                0x0001fbb4                __unorddf2
                0x0001fbb4                __aeabi_dcmpun

.text._DRV_GMAC_LinkStateStartLink%766
                0x0001fbe0       0x2a
 .text._DRV_GMAC_LinkStateStartLink
                0x0001fbe0       0x2a build/FreeRTOS/production/_ext/41526634/drv_gmac.o

.text.TCPIP_TCP_WasReset%767
                0x0001fc0a       0x2a
 .text.TCPIP_TCP_WasReset
                0x0001fc0a       0x2a build/FreeRTOS/production/_ext/540595297/tcp.o
                0x0001fc0a                TCPIP_TCP_WasReset

.text.TCPIP_DNS_OAHASH_KeyCopy%768
                0x0001fc34       0x2a
 .text.TCPIP_DNS_OAHASH_KeyCopy
                0x0001fc34       0x2a build/FreeRTOS/production/_ext/540595297/dns.o

.text.TCPIP_Helper_ProtectedSingleListTailAdd%769
                0x0001fc5e       0x2a
 .text.TCPIP_Helper_ProtectedSingleListTailAdd
                0x0001fc5e       0x2a build/FreeRTOS/production/_ext/540595297/tcpip_helpers.o
                0x0001fc5e                TCPIP_Helper_ProtectedSingleListTailAdd

.text.TCPIP_Helper_ProtectedSingleListRemoveAll%770
                0x0001fc88       0x2a
 .text.TCPIP_Helper_ProtectedSingleListRemoveAll
                0x0001fc88       0x2a build/FreeRTOS/production/_ext/540595297/tcpip_helpers.o
                0x0001fc88                TCPIP_Helper_ProtectedSingleListRemoveAll

.text.TCPIP_Notification_Add%771
                0x0001fcb2       0x2a
 .text.TCPIP_Notification_Add
                0x0001fcb2       0x2a build/FreeRTOS/production/_ext/540595297/tcpip_notify.o
                0x0001fcb2                TCPIP_Notification_Add

.text.DRV_ETHPHY_Tasks%772
                0x0001fcdc       0x28
 .text.DRV_ETHPHY_Tasks
                0x0001fcdc       0x28 build/FreeRTOS/production/_ext/1231519722/drv_ethphy.o
                0x0001fcdc                DRV_ETHPHY_Tasks

.text.DRV_ETHPHY_PhyAddressGet%773
                0x0001fd04       0x28
 .text.DRV_ETHPHY_PhyAddressGet
                0x0001fd04       0x28 build/FreeRTOS/production/_ext/1231519722/drv_ethphy.o
                0x0001fd04                DRV_ETHPHY_PhyAddressGet

.text._DRV_PHY_SetOperDoneResult%774
                0x0001fd2c       0x28
 .text._DRV_PHY_SetOperDoneResult
                0x0001fd2c       0x28 build/FreeRTOS/production/_ext/1231519722/drv_ethphy.o

.text.DRV_ETHPHY_ClientOperationAbort%775
                0x0001fd54       0x28
 .text.DRV_ETHPHY_ClientOperationAbort
                0x0001fd54       0x28 build/FreeRTOS/production/_ext/1231519722/drv_ethphy.o
                0x0001fd54                DRV_ETHPHY_ClientOperationAbort

.text.DRV_PIC32CGMAC_LibSysIntStatus_Clear%776
                0x0001fd7c       0x28
 .text.DRV_PIC32CGMAC_LibSysIntStatus_Clear
                0x0001fd7c       0x28 build/FreeRTOS/production/_ext/41526634/drv_gmac_lib_samE5x.o
                0x0001fd7c                DRV_PIC32CGMAC_LibSysIntStatus_Clear

.text.DRV_PIC32CGMAC_LibSysInt_Enable%777
                0x0001fda4       0x28
 .text.DRV_PIC32CGMAC_LibSysInt_Enable
                0x0001fda4       0x28 build/FreeRTOS/production/_ext/41526634/drv_gmac_lib_samE5x.o
                0x0001fda4                DRV_PIC32CGMAC_LibSysInt_Enable

.text.DRV_MIIM_Status%778
                0x0001fdcc       0x28
 .text.DRV_MIIM_Status
                0x0001fdcc       0x28 build/FreeRTOS/production/_ext/1149484450/drv_miim.o
                0x0001fdcc                DRV_MIIM_Status

.text.TCPIP_ICMP_Deinitialize%779
                0x0001fdf4       0x28
 .text.TCPIP_ICMP_Deinitialize
                0x0001fdf4       0x28 build/FreeRTOS/production/_ext/540595297/icmp.o
                0x0001fdf4                TCPIP_ICMP_Deinitialize

.text._TcpSocketChk%780
                0x0001fe1c       0x28
 .text._TcpSocketChk
                0x0001fe1c       0x28 build/FreeRTOS/production/_ext/540595297/tcp.o

.text._TcpFlush%781
                0x0001fe44       0x28
 .text._TcpFlush
                0x0001fe44       0x28 build/FreeRTOS/production/_ext/540595297/tcp.o

.text._ARPRemoveCacheEntries%782
                0x0001fe6c       0x28
 .text._ARPRemoveCacheEntries
                0x0001fe6c       0x28 build/FreeRTOS/production/_ext/540595297/arp.o

.text.Ipv4DeRegisterFilter%783
                0x0001fe94       0x28
 .text.Ipv4DeRegisterFilter
                0x0001fe94       0x28 build/FreeRTOS/production/_ext/540595297/ipv4.o
                0x0001fe94                Ipv4DeRegisterFilter

.text._DHCPOptionWriteParamRequest%784
                0x0001febc       0x28
 .text._DHCPOptionWriteParamRequest
                0x0001febc       0x28 build/FreeRTOS/production/_ext/540595297/dhcp.o

.text.TCPIP_DHCP_IsActive%785
                0x0001fee4       0x28
 .text.TCPIP_DHCP_IsActive
                0x0001fee4       0x28 build/FreeRTOS/production/_ext/540595297/dhcp.o
                0x0001fee4                TCPIP_DHCP_IsActive

.text._TCPIP_STACK_TickHandler%786
                0x0001ff0c       0x28
 .text._TCPIP_STACK_TickHandler
                0x0001ff0c       0x28 build/FreeRTOS/production/_ext/540595297/tcpip_manager.o

.text._TCPIPSignalEntrySetNotify%787
                0x0001ff34       0x28
 .text._TCPIPSignalEntrySetNotify
                0x0001ff34       0x28 build/FreeRTOS/production/_ext/540595297/tcpip_manager.o

.text.TCPIP_STACK_IndexToNet%788
                0x0001ff5c       0x28
 .text.TCPIP_STACK_IndexToNet
                0x0001ff5c       0x28 build/FreeRTOS/production/_ext/540595297/tcpip_manager.o
                0x0001ff5c                TCPIP_STACK_IndexToNet

.text.TCPIP_STACK_NetMACStatisticsGet%789
                0x0001ff84       0x28
 .text.TCPIP_STACK_NetMACStatisticsGet
                0x0001ff84       0x28 build/FreeRTOS/production/_ext/540595297/tcpip_manager.o
                0x0001ff84                TCPIP_STACK_NetMACStatisticsGet

.text.TCPIP_STACK_NetMACRegisterStatisticsGet%790
                0x0001ffac       0x28
 .text.TCPIP_STACK_NetMACRegisterStatisticsGet
                0x0001ffac       0x28 build/FreeRTOS/production/_ext/540595297/tcpip_manager.o
                0x0001ffac                TCPIP_STACK_NetMACRegisterStatisticsGet

.text.TCPIP_STACK_NetIsBcastAddress%791
                0x0001ffd4       0x28
 .text.TCPIP_STACK_NetIsBcastAddress
                0x0001ffd4       0x28 build/FreeRTOS/production/_ext/540595297/tcpip_manager.o
                0x0001ffd4                TCPIP_STACK_NetIsBcastAddress

.text._TCPIPStackSignalHandlerSetParams%792
                0x0001fffc       0x28
 .text._TCPIPStackSignalHandlerSetParams
                0x0001fffc       0x28 build/FreeRTOS/production/_ext/540595297/tcpip_manager.o
                0x0001fffc                _TCPIPStackSignalHandlerSetParams

.text._UDPSocketDcpt%793
                0x00020024       0x28
 .text._UDPSocketDcpt
                0x00020024       0x28 build/FreeRTOS/production/_ext/540595297/udp.o

.text._UDPUpdatePacketLock%794
                0x0002004c       0x28
 .text._UDPUpdatePacketLock
                0x0002004c       0x28 build/FreeRTOS/production/_ext/540595297/udp.o

.text.TCPIP_UDP_GetIsReady%795
                0x00020074       0x28
 .text.TCPIP_UDP_GetIsReady
                0x00020074       0x28 build/FreeRTOS/production/_ext/540595297/udp.o
                0x00020074                TCPIP_UDP_GetIsReady

.text.TC0_Timer16bitCounterGet%796
                0x0002009c       0x28
 .text.TC0_Timer16bitCounterGet
                0x0002009c       0x28 build/FreeRTOS/production/_ext/579449528/plib_tc0.o
                0x0002009c                TC0_Timer16bitCounterGet

.text.Console_UART_Initialize%797
                0x000200c4       0x28
 .text.Console_UART_Initialize
                0x000200c4       0x28 build/FreeRTOS/production/_ext/548640822/sys_console_uart.o
                0x000200c4                Console_UART_Initialize

.text.SYS_TMR_TickCountGet%798
                0x000200ec       0x28
 .text.SYS_TMR_TickCountGet
                0x000200ec       0x28 build/FreeRTOS/production/_ext/2072568807/sys_time_h2_adapter.o
                0x000200ec                SYS_TMR_TickCountGet

.text.SYS_TMR_TickCountGetLong%799
                0x00020114       0x28
 .text.SYS_TMR_TickCountGetLong
                0x00020114       0x28 build/FreeRTOS/production/_ext/2072568807/sys_time_h2_adapter.o
                0x00020114                SYS_TMR_TickCountGetLong

.text.SYS_TMR_TickCounterFrequencyGet%800
                0x0002013c       0x28
 .text.SYS_TMR_TickCounterFrequencyGet
                0x0002013c       0x28 build/FreeRTOS/production/_ext/2072568807/sys_time_h2_adapter.o
                0x0002013c                SYS_TMR_TickCounterFrequencyGet

.rodata.tcpipARPInitData%801
                0x00020164       0x28
 .rodata.tcpipARPInitData
                0x00020164       0x28 build/FreeRTOS/production/_ext/161576091/initialization.o
                0x00020164                tcpipARPInitData

.text.prvPortStartFirstTask%802
                0x0002018c       0x28
 .text.prvPortStartFirstTask
                0x0002018c       0x28 build/FreeRTOS/production/_ext/246609638/port.o

.text.vPortSetupTimerInterrupt%803
                0x000201b4       0x28
 .text.vPortSetupTimerInterrupt
                0x000201b4       0x28 build/FreeRTOS/production/_ext/246609638/port.o
                0x000201b4                vPortSetupTimerInterrupt

.rodata.__mprec_bigtens%804
                0x000201e0       0x28
 .rodata.__mprec_bigtens
                0x000201e0       0x28 c:/program files/microchip/xc32/v3.01/bin/bin/../../lib/gcc/pic32c/8.3.1/../../../../pic32c/lib/thumb/v7e-m+fp/hard\libc_nano.a(lib_a-mprec.o)
                0x000201e0                __mprec_bigtens

.text.read%805  0x00020208       0x28
 .text.read     0x00020208       0x28 c:/program files/microchip/xc32/v3.01/bin/bin/../../lib/gcc/pic32c/8.3.1/../../../../pic32c/lib/thumb/v7e-m+fp/hard\libpic32c.a(read.o)
                0x00020208                read

.text._DRV_ETHPHY_NegResultPhase_ANEXP%806
                0x00020230       0x26
 .text._DRV_ETHPHY_NegResultPhase_ANEXP
                0x00020230       0x26 build/FreeRTOS/production/_ext/1231519722/drv_ethphy.o

.text._DRV_ETHPHY_NegResultPhase_ANLPAD%807
                0x00020256       0x26
 .text._DRV_ETHPHY_NegResultPhase_ANLPAD
                0x00020256       0x26 build/FreeRTOS/production/_ext/1231519722/drv_ethphy.o

.text.TCPIP_TCP_IsConnected%808
                0x0002027c       0x26
 .text.TCPIP_TCP_IsConnected
                0x0002027c       0x26 build/FreeRTOS/production/_ext/540595297/tcp.o
                0x0002027c                TCPIP_TCP_IsConnected

.text.TCPIP_TCP_Flush%809
                0x000202a2       0x26
 .text.TCPIP_TCP_Flush
                0x000202a2       0x26 build/FreeRTOS/production/_ext/540595297/tcp.o
                0x000202a2                TCPIP_TCP_Flush

.text.TCPIP_TCP_Discard%810
                0x000202c8       0x26
 .text.TCPIP_TCP_Discard
                0x000202c8       0x26 build/FreeRTOS/production/_ext/540595297/tcp.o
                0x000202c8                TCPIP_TCP_Discard

.text.TCPIP_OAHASH_Initialize%811
                0x000202ee       0x26
 .text.TCPIP_OAHASH_Initialize
                0x000202ee       0x26 build/FreeRTOS/production/_ext/540595297/oahash.o
                0x000202ee                TCPIP_OAHASH_Initialize

.text.TCPIP_STACK_DNSServiceSelect%812
                0x00020314       0x26
 .text.TCPIP_STACK_DNSServiceSelect
                0x00020314       0x26 build/FreeRTOS/production/_ext/540595297/tcpip_manager.o
                0x00020314                TCPIP_STACK_DNSServiceSelect

.text.TCPIP_STACK_AddressServiceSelect%813
                0x0002033a       0x26
 .text.TCPIP_STACK_AddressServiceSelect
                0x0002033a       0x26 build/FreeRTOS/production/_ext/540595297/tcpip_manager.o
                0x0002033a                TCPIP_STACK_AddressServiceSelect

.text.SYS_RANDOM_CryptoBlockGet%814
                0x00020360       0x26
 .text.SYS_RANDOM_CryptoBlockGet
                0x00020360       0x26 build/FreeRTOS/production/_ext/2072568807/sys_random_h2_adapter.o
                0x00020360                SYS_RANDOM_CryptoBlockGet

.text.strncpy%815
                0x00020386       0x26
 .text.strncpy  0x00020386       0x26 c:/program files/microchip/xc32/v3.01/bin/bin/../../lib/gcc/pic32c/8.3.1/../../../../pic32c/lib/thumb/v7e-m+fp/hard\libc_nano.a(lib_a-strncpy.o)
                0x00020386                strncpy

.text.DRV_ETHPHY_VendorDataSet%816
                0x000203ac       0x24
 .text.DRV_ETHPHY_VendorDataSet
                0x000203ac       0x24 build/FreeRTOS/production/_ext/1231519722/drv_ethphy.o
                0x000203ac                DRV_ETHPHY_VendorDataSet

.rodata%817     0x000203d0       0x24
 .rodata        0x000203d0       0x24 build/FreeRTOS/production/_ext/41526634/drv_gmac.o

.text.DRV_PIC32CGMAC_LibSysInt_Disable%818
                0x000203f4       0x24
 .text.DRV_PIC32CGMAC_LibSysInt_Disable
                0x000203f4       0x24 build/FreeRTOS/production/_ext/41526634/drv_gmac_lib_samE5x.o
                0x000203f4                DRV_PIC32CGMAC_LibSysInt_Disable

.text._ICMPAllocateTxPacketStruct%819
                0x00020418       0x24
 .text._ICMPAllocateTxPacketStruct
                0x00020418       0x24 build/FreeRTOS/production/_ext/540595297/icmp.o

.text.TCPIP_ICMP_EchoRequestCancel%820
                0x0002043c       0x24
 .text.TCPIP_ICMP_EchoRequestCancel
                0x0002043c       0x24 build/FreeRTOS/production/_ext/540595297/icmp.o
                0x0002043c                TCPIP_ICMP_EchoRequestCancel

.text._ARPAllocateTxPacket%821
                0x00020460       0x24
 .text._ARPAllocateTxPacket
                0x00020460       0x24 build/FreeRTOS/production/_ext/540595297/arp.o

.text.TCPIP_ARP_HandlerDeRegister%822
                0x00020484       0x24
 .text.TCPIP_ARP_HandlerDeRegister
                0x00020484       0x24 build/FreeRTOS/production/_ext/540595297/arp.o
                0x00020484                TCPIP_ARP_HandlerDeRegister

.rodata._tcpip_heap_object%823
                0x000204a8       0x24
 .rodata._tcpip_heap_object
                0x000204a8       0x24 build/FreeRTOS/production/_ext/540595297/tcpip_heap_internal.o

.text._DHCPOptionProcessSrvIdent%824
                0x000204cc       0x24
 .text._DHCPOptionProcessSrvIdent
                0x000204cc       0x24 build/FreeRTOS/production/_ext/540595297/dhcp.o

.text._DHCPOptionWriteMsgType%825
                0x000204f0       0x24
 .text._DHCPOptionWriteMsgType
                0x000204f0       0x24 build/FreeRTOS/production/_ext/540595297/dhcp.o

.text.TCPIP_STACK_IPAddToNet%826
                0x00020514       0x24
 .text.TCPIP_STACK_IPAddToNet
                0x00020514       0x24 build/FreeRTOS/production/_ext/540595297/tcpip_manager.o
                0x00020514                TCPIP_STACK_IPAddToNet

.text._UDPFreeRxQueue%827
                0x00020538       0x24
 .text._UDPFreeRxQueue
                0x00020538       0x24 build/FreeRTOS/production/_ext/540595297/udp.o

.rodata._builtinCmdTbl%828
                0x0002055c       0x24
 .rodata._builtinCmdTbl
                0x0002055c       0x24 build/FreeRTOS/production/_ext/1005353002/sys_command.o

.text.SYS_RESET_SoftwareReset%829
                0x00020580       0x24
 .text.SYS_RESET_SoftwareReset
                0x00020580       0x24 build/FreeRTOS/production/_ext/1093154855/sys_reset.o
                0x00020580                SYS_RESET_SoftwareReset

.text.SYS_RANDOM_CryptoGet%830
                0x000205a4       0x24
 .text.SYS_RANDOM_CryptoGet
                0x000205a4       0x24 build/FreeRTOS/production/_ext/2072568807/sys_random_h2_adapter.o
                0x000205a4                SYS_RANDOM_CryptoGet

.text.vPortSVCHandler%831
                0x000205d0       0x24
 .text.vPortSVCHandler
                0x000205d0       0x24 build/FreeRTOS/production/_ext/246609638/port.o
                0x000205d0                vPortSVCHandler

.text.uxListRemove%832
                0x000205f4       0x24
 .text.uxListRemove
                0x000205f4       0x24 build/FreeRTOS/production/_ext/404212886/list.o
                0x000205f4                uxListRemove

.text.xQueueCreateMutex%833
                0x00020618       0x24
 .text.xQueueCreateMutex
                0x00020618       0x24 build/FreeRTOS/production/_ext/404212886/queue.o
                0x00020618                xQueueCreateMutex

.text.gfx_mono_framebuffer_put_byte%834
                0x0002063c       0x24
 .text.gfx_mono_framebuffer_put_byte
                0x0002063c       0x24 build/FreeRTOS/production/_ext/1434865757/gfx_mono_framebuffer.o
                0x0002063c                gfx_mono_framebuffer_put_byte

.text.fprintf%835
                0x00020660       0x24
 .text.fprintf  0x00020660       0x24 c:/program files/microchip/xc32/v3.01/bin/bin/../../lib/gcc/pic32c/8.3.1/../../../../pic32c/lib/thumb/v7e-m+fp/hard\libc_nano.a(lib_a-fprintf.o)
                0x00020660                fiprintf
                0x00020660                fprintf

.text.strncmp%836
                0x00020684       0x24
 .text.strncmp  0x00020684       0x24 c:/program files/microchip/xc32/v3.01/bin/bin/../../lib/gcc/pic32c/8.3.1/../../../../pic32c/lib/thumb/v7e-m+fp/hard\libc_nano.a(lib_a-strncmp.o)
                0x00020684                strncmp

.text.__ascii_mbtowc%837
                0x000206a8       0x24
 .text.__ascii_mbtowc
                0x000206a8       0x24 c:/program files/microchip/xc32/v3.01/bin/bin/../../lib/gcc/pic32c/8.3.1/../../../../pic32c/lib/thumb/v7e-m+fp/hard\libc_nano.a(lib_a-mbtowc_r.o)
                0x000206a8                __ascii_mbtowc

.text._kill_r%838
                0x000206cc       0x24
 .text._kill_r  0x000206cc       0x24 c:/program files/microchip/xc32/v3.01/bin/bin/../../lib/gcc/pic32c/8.3.1/../../../../pic32c/lib/thumb/v7e-m+fp/hard\libc_nano.a(lib_a-signalr.o)
                0x000206cc                _kill_r

.text.__sseek%839
                0x000206f0       0x24
 .text.__sseek  0x000206f0       0x24 c:/program files/microchip/xc32/v3.01/bin/bin/../../lib/gcc/pic32c/8.3.1/../../../../pic32c/lib/thumb/v7e-m+fp/hard\libc_nano.a(lib_a-stdio.o)
                0x000206f0                __sseek

.text._write_r%840
                0x00020714       0x24
 .text._write_r
                0x00020714       0x24 c:/program files/microchip/xc32/v3.01/bin/bin/../../lib/gcc/pic32c/8.3.1/../../../../pic32c/lib/thumb/v7e-m+fp/hard\libc_nano.a(lib_a-writer.o)
                0x00020714                _write_r

.text._fstat_r%841
                0x00020738       0x24
 .text._fstat_r
                0x00020738       0x24 c:/program files/microchip/xc32/v3.01/bin/bin/../../lib/gcc/pic32c/8.3.1/../../../../pic32c/lib/thumb/v7e-m+fp/hard\libc_nano.a(lib_a-fstatr.o)
                0x00020738                _fstat_r

.text._lseek_r%842
                0x0002075c       0x24
 .text._lseek_r
                0x0002075c       0x24 c:/program files/microchip/xc32/v3.01/bin/bin/../../lib/gcc/pic32c/8.3.1/../../../../pic32c/lib/thumb/v7e-m+fp/hard\libc_nano.a(lib_a-lseekr.o)
                0x0002075c                _lseek_r

.text._read_r%843
                0x00020780       0x24
 .text._read_r  0x00020780       0x24 c:/program files/microchip/xc32/v3.01/bin/bin/../../lib/gcc/pic32c/8.3.1/../../../../pic32c/lib/thumb/v7e-m+fp/hard\libc_nano.a(lib_a-readr.o)
                0x00020780                _read_r

.text._DRV_PHY_SMITransfer_Wait%844
                0x000207a4       0x22
 .text._DRV_PHY_SMITransfer_Wait
                0x000207a4       0x22 build/FreeRTOS/production/_ext/1231519722/drv_ethphy.o

.text.TCPIP_Helper_ProtectedSingleListInitialize%845
                0x000207c6       0x22
 .text.TCPIP_Helper_ProtectedSingleListInitialize
                0x000207c6       0x22 build/FreeRTOS/production/_ext/540595297/tcpip_helpers.o
                0x000207c6                TCPIP_Helper_ProtectedSingleListInitialize

.text.TCPIP_STACK_NetAddressMacSet%846
                0x000207e8       0x22
 .text.TCPIP_STACK_NetAddressMacSet
                0x000207e8       0x22 build/FreeRTOS/production/_ext/540595297/tcpip_manager.o
                0x000207e8                TCPIP_STACK_NetAddressMacSet

.text.TCPIP_UDP_Discard%847
                0x0002080a       0x22
 .text.TCPIP_UDP_Discard
                0x0002080a       0x22 build/FreeRTOS/production/_ext/540595297/udp.o
                0x0002080a                TCPIP_UDP_Discard

.rodata%848     0x0002082c       0x22
 .rodata        0x0002082c       0x22 c:/program files/microchip/xc32/v3.01/bin/bin/../../lib/gcc/pic32c/8.3.1/../../../../pic32c/lib/thumb/v7e-m+fp/hard\libc_nano.a(lib_a-nano-vfprintf_i.o)

.text.__sread%849
                0x0002084e       0x22
 .text.__sread  0x0002084e       0x22 c:/program files/microchip/xc32/v3.01/bin/bin/../../lib/gcc/pic32c/8.3.1/../../../../pic32c/lib/thumb/v7e-m+fp/hard\libc_nano.a(lib_a-stdio.o)
                0x0002084e                __sread

.text.DRV_ETHPHY_Status%850
                0x00020870       0x20
 .text.DRV_ETHPHY_Status
                0x00020870       0x20 build/FreeRTOS/production/_ext/1231519722/drv_ethphy.o
                0x00020870                DRV_ETHPHY_Status

.text.DRV_ETHPHY_ClientStatus%851
                0x00020890       0x20
 .text.DRV_ETHPHY_ClientStatus
                0x00020890       0x20 build/FreeRTOS/production/_ext/1231519722/drv_ethphy.o
                0x00020890                DRV_ETHPHY_ClientStatus

.text.DRV_ETHPHY_ClientOperationResult%852
                0x000208b0       0x20
 .text.DRV_ETHPHY_ClientOperationResult
                0x000208b0       0x20 build/FreeRTOS/production/_ext/1231519722/drv_ethphy.o
                0x000208b0                DRV_ETHPHY_ClientOperationResult

.text._DRV_ETHPHY_ClientOpReset%853
                0x000208d0       0x20
 .text._DRV_ETHPHY_ClientOpReset
                0x000208d0       0x20 build/FreeRTOS/production/_ext/1231519722/drv_ethphy.o

.text._DRV_ETHPHY_ClientOpNegRestart%854
                0x000208f0       0x20
 .text._DRV_ETHPHY_ClientOpNegRestart
                0x000208f0       0x20 build/FreeRTOS/production/_ext/1231519722/drv_ethphy.o

.text._DRV_ETHPHY_ClientOpNegResult%855
                0x00020910       0x20
 .text._DRV_ETHPHY_ClientOpNegResult
                0x00020910       0x20 build/FreeRTOS/production/_ext/1231519722/drv_ethphy.o

.text._DRV_ETHPHY_ClientOpNegComplete%856
                0x00020930       0x20
 .text._DRV_ETHPHY_ClientOpNegComplete
                0x00020930       0x20 build/FreeRTOS/production/_ext/1231519722/drv_ethphy.o

.text._DRV_ETHPHY_ClientOpLinkStat%857
                0x00020950       0x20
 .text._DRV_ETHPHY_ClientOpLinkStat
                0x00020950       0x20 build/FreeRTOS/production/_ext/1231519722/drv_ethphy.o

.text._DRV_ETHPHY_ClientOpSetup%858
                0x00020970       0x20
 .text._DRV_ETHPHY_ClientOpSetup
                0x00020970       0x20 build/FreeRTOS/production/_ext/1231519722/drv_ethphy.o

.text._DRV_ETHPHY_SetupPhaseNegotiate%859
                0x00020990       0x20
 .text._DRV_ETHPHY_SetupPhaseNegotiate
                0x00020990       0x20 build/FreeRTOS/production/_ext/1231519722/drv_ethphy.o

.rodata%860     0x000209b0       0x20
 .rodata        0x000209b0       0x20 build/FreeRTOS/production/_ext/1231519722/drv_ethphy.o

.rodata._DRV_PHY_SetupPhaseNegotiateSubPhaseTbl%861
                0x000209d0       0x20
 .rodata._DRV_PHY_SetupPhaseNegotiateSubPhaseTbl
                0x000209d0       0x20 build/FreeRTOS/production/_ext/1231519722/drv_ethphy.o

.text.DRV_GMAC_Close%862
                0x000209f0       0x20
 .text.DRV_GMAC_Close
                0x000209f0       0x20 build/FreeRTOS/production/_ext/41526634/drv_gmac.o
                0x000209f0                DRV_GMAC_Close

.text.DRV_GMAC_Deinitialize%863
                0x00020a10       0x20
 .text.DRV_GMAC_Deinitialize
                0x00020a10       0x20 build/FreeRTOS/production/_ext/41526634/drv_gmac.o
                0x00020a10                DRV_GMAC_Deinitialize

.text.DRV_PIC32CGMAC_LibTransferEnable%864
                0x00020a30       0x20
 .text.DRV_PIC32CGMAC_LibTransferEnable
                0x00020a30       0x20 build/FreeRTOS/production/_ext/41526634/drv_gmac_lib_samE5x.o
                0x00020a30                DRV_PIC32CGMAC_LibTransferEnable

.text.DRV_GMAC_LibDescriptorsPoolAdd%865
                0x00020a50       0x20
 .text.DRV_GMAC_LibDescriptorsPoolAdd
                0x00020a50       0x20 build/FreeRTOS/production/_ext/41526634/drv_gmac_lib_samE5x.o
                0x00020a50                DRV_GMAC_LibDescriptorsPoolAdd

.text._SwapARPPacket%866
                0x00020a70       0x20
 .text._SwapARPPacket
                0x00020a70       0x20 build/FreeRTOS/production/_ext/540595297/arp.o

.text.TCPIP_DNS_OAHASH_KeyHash%867
                0x00020a90       0x20
 .text.TCPIP_DNS_OAHASH_KeyHash
                0x00020a90       0x20 build/FreeRTOS/production/_ext/540595297/dns.o

.text.TCPIP_Helper_ProtectedSingleListLock%868
                0x00020ab0       0x20
 .text.TCPIP_Helper_ProtectedSingleListLock
                0x00020ab0       0x20 build/FreeRTOS/production/_ext/540595297/tcpip_helpers.o
                0x00020ab0                TCPIP_Helper_ProtectedSingleListLock

.rodata.TCPIP_MAC_POWER_TBL%869
                0x00020ad0       0x20
 .rodata.TCPIP_MAC_POWER_TBL
                0x00020ad0       0x20 build/FreeRTOS/production/_ext/540595297/tcpip_helpers.o

.text.TCPIP_STACK_NetDefaultSet%870
                0x00020af0       0x20
 .text.TCPIP_STACK_NetDefaultSet
                0x00020af0       0x20 build/FreeRTOS/production/_ext/540595297/tcpip_manager.o
                0x00020af0                TCPIP_STACK_NetDefaultSet

.text._TCPIPStackHandleToNetLinked%871
                0x00020b10       0x20
 .text._TCPIPStackHandleToNetLinked
                0x00020b10       0x20 build/FreeRTOS/production/_ext/540595297/tcpip_manager.o
                0x00020b10                _TCPIPStackHandleToNetLinked

.text.TCPIP_Notification_Remove%872
                0x00020b30       0x20
 .text.TCPIP_Notification_Remove
                0x00020b30       0x20 build/FreeRTOS/production/_ext/540595297/tcpip_notify.o
                0x00020b30                TCPIP_Notification_Remove

.rodata%873     0x00020b50       0x20
 .rodata        0x00020b50       0x20 build/FreeRTOS/production/_ext/540595297/tcpip_packet.o

.text.TCPIP_UDP_DestinationPortSet%874
                0x00020b70       0x20
 .text.TCPIP_UDP_DestinationPortSet
                0x00020b70       0x20 build/FreeRTOS/production/_ext/540595297/udp.o
                0x00020b70                TCPIP_UDP_DestinationPortSet

.text._keyRightProcess%875
                0x00020b90       0x20
 .text._keyRightProcess
                0x00020b90       0x20 build/FreeRTOS/production/_ext/1005353002/sys_command.o

.text.GetCommandCharacter%876
                0x00020bb0       0x20
 .text.GetCommandCharacter
                0x00020bb0       0x20 build/FreeRTOS/production/_ext/1005353002/sys_command.o

.text.SYS_INT_SourceRestore%877
                0x00020bd0       0x20
 .text.SYS_INT_SourceRestore
                0x00020bd0       0x20 build/FreeRTOS/production/_ext/1690414130/sys_int.o
                0x00020bd0                SYS_INT_SourceRestore

.text.SYS_RANDOM_CryptoInitialize%878
                0x00020bf0       0x20
 .text.SYS_RANDOM_CryptoInitialize
                0x00020bf0       0x20 build/FreeRTOS/production/_ext/2072568807/sys_random_h2_adapter.o
                0x00020bf0                SYS_RANDOM_CryptoInitialize

.rodata.tcpipPhyInitData_LAN867x%879
                0x00020c10       0x20
 .rodata.tcpipPhyInitData_LAN867x
                0x00020c10       0x20 build/FreeRTOS/production/_ext/161576091/initialization.o
                0x00020c10                tcpipPhyInitData_LAN867x

.text.prvTaskExitError%880
                0x00020c30       0x20
 .text.prvTaskExitError
                0x00020c30       0x20 build/FreeRTOS/production/_ext/246609638/port.o

.text.vPortEnterCritical%881
                0x00020c50       0x20
 .text.vPortEnterCritical
                0x00020c50       0x20 build/FreeRTOS/production/_ext/246609638/port.o
                0x00020c50                vPortEnterCritical

.rodata.reseedSeedA_data%882
                0x00020c70       0x20
 .rodata.reseedSeedA_data
                0x00020c70       0x20 build/FreeRTOS/production/_ext/1664057780/random.o
                0x00020c70                reseedSeedA_data

.text._sbrk_r%883
                0x00020c90       0x20
 .text._sbrk_r  0x00020c90       0x20 c:/program files/microchip/xc32/v3.01/bin/bin/../../lib/gcc/pic32c/8.3.1/../../../../pic32c/lib/thumb/v7e-m+fp/hard\libc_nano.a(lib_a-sbrkr.o)
                0x00020c90                _sbrk_r

.text._close_r%884
                0x00020cb0       0x20
 .text._close_r
                0x00020cb0       0x20 c:/program files/microchip/xc32/v3.01/bin/bin/../../lib/gcc/pic32c/8.3.1/../../../../pic32c/lib/thumb/v7e-m+fp/hard\libc_nano.a(lib_a-closer.o)
                0x00020cb0                _close_r

.text._isatty_r%885
                0x00020cd0       0x20
 .text._isatty_r
                0x00020cd0       0x20 c:/program files/microchip/xc32/v3.01/bin/bin/../../lib/gcc/pic32c/8.3.1/../../../../pic32c/lib/thumb/v7e-m+fp/hard\libc_nano.a(lib_a-isattyr.o)
                0x00020cd0                _isatty_r

.text._DRV_GMAC_LinkStateDown%886
                0x00020cf0       0x1e
 .text._DRV_GMAC_LinkStateDown
                0x00020cf0       0x1e build/FreeRTOS/production/_ext/41526634/drv_gmac.o

.text._TCPIsGetReady%887
                0x00020d0e       0x1e
 .text._TCPIsGetReady
                0x00020d0e       0x1e build/FreeRTOS/production/_ext/540595297/tcp.o

.text.TCPIP_STACK_NetAddressBcast%888
                0x00020d2c       0x1e
 .text.TCPIP_STACK_NetAddressBcast
                0x00020d2c       0x1e build/FreeRTOS/production/_ext/540595297/tcpip_manager.o
                0x00020d2c                TCPIP_STACK_NetAddressBcast

.text.TCPIP_STACK_NetAddress%889
                0x00020d4a       0x1e
 .text.TCPIP_STACK_NetAddress
                0x00020d4a       0x1e build/FreeRTOS/production/_ext/540595297/tcpip_manager.o
                0x00020d4a                TCPIP_STACK_NetAddress

.text.TCPIP_STACK_NetworkIsLinked%890
                0x00020d68       0x1e
 .text.TCPIP_STACK_NetworkIsLinked
                0x00020d68       0x1e build/FreeRTOS/production/_ext/540595297/tcpip_manager.o
                0x00020d68                TCPIP_STACK_NetworkIsLinked

.text.TCPIP_PKT_PayloadLen%891
                0x00020d86       0x1e
 .text.TCPIP_PKT_PayloadLen
                0x00020d86       0x1e build/FreeRTOS/production/_ext/540595297/tcpip_packet.o
                0x00020d86                TCPIP_PKT_PayloadLen

.text.OSAL_SEM_Pend%892
                0x00020da4       0x1e
 .text.OSAL_SEM_Pend
                0x00020da4       0x1e build/FreeRTOS/production/_ext/891571577/osal_freertos.o
                0x00020da4                OSAL_SEM_Pend

.text.OSAL_MUTEX_Lock%893
                0x00020dc2       0x1e
 .text.OSAL_MUTEX_Lock
                0x00020dc2       0x1e build/FreeRTOS/production/_ext/891571577/osal_freertos.o
                0x00020dc2                OSAL_MUTEX_Lock

.text._keyUpProcess%894
                0x00020de0       0x1e
 .text._keyUpProcess
                0x00020de0       0x1e build/FreeRTOS/production/_ext/1005353002/sys_command.o

.text._DRV_ETHPHY_ResetPhaseIdle%895
                0x00020dfe       0x1c
 .text._DRV_ETHPHY_ResetPhaseIdle
                0x00020dfe       0x1c build/FreeRTOS/production/_ext/1231519722/drv_ethphy.o

.rodata._DRV_PHY_ClientOpTbl%896
                0x00020e1c       0x1c
 .rodata._DRV_PHY_ClientOpTbl
                0x00020e1c       0x1c build/FreeRTOS/production/_ext/1231519722/drv_ethphy.o

.text.DRV_GMAC_EventPendingGet%897
                0x00020e38       0x1c
 .text.DRV_GMAC_EventPendingGet
                0x00020e38       0x1c build/FreeRTOS/production/_ext/41526634/drv_gmac.o
                0x00020e38                DRV_GMAC_EventPendingGet

.text.DRV_PIC32CGMAC_LibClose%898
                0x00020e54       0x1c
 .text.DRV_PIC32CGMAC_LibClose
                0x00020e54       0x1c build/FreeRTOS/production/_ext/41526634/drv_gmac_lib_samE5x.o
                0x00020e54                DRV_PIC32CGMAC_LibClose

.text.DRV_PIC32CGMAC_SingleListHeadRemove%899
                0x00020e70       0x1c
 .text.DRV_PIC32CGMAC_SingleListHeadRemove
                0x00020e70       0x1c build/FreeRTOS/production/_ext/41526634/drv_gmac_lib_samE5x.o
                0x00020e70                DRV_PIC32CGMAC_SingleListHeadRemove

.text.Helper_SingleListHeadRemove%900
                0x00020e8c       0x1c
 .text.Helper_SingleListHeadRemove
                0x00020e8c       0x1c build/FreeRTOS/production/_ext/1149484450/drv_miim.o
                0x00020e8c                Helper_SingleListHeadRemove

.text._ARPTxAckFnc%901
                0x00020ea8       0x1c
 .text._ARPTxAckFnc
                0x00020ea8       0x1c build/FreeRTOS/production/_ext/540595297/arp.o

.text.TCPIP_IPV4_MaxDatagramDataSizeGet%902
                0x00020ec4       0x1c
 .text.TCPIP_IPV4_MaxDatagramDataSizeGet
                0x00020ec4       0x1c build/FreeRTOS/production/_ext/540595297/ipv4.o
                0x00020ec4                TCPIP_IPV4_MaxDatagramDataSizeGet

.text._TCPIP_HEAP_Calloc%903
                0x00020ee0       0x1c
 .text._TCPIP_HEAP_Calloc
                0x00020ee0       0x1c build/FreeRTOS/production/_ext/540595297/tcpip_heap_internal.o

.rodata._DHCPOptWriteTbl%904
                0x00020efc       0x1c
 .rodata._DHCPOptWriteTbl
                0x00020efc       0x1c build/FreeRTOS/production/_ext/540595297/dhcp.o

.text.TCPIP_Helper_SingleListHeadRemove%905
                0x00020f18       0x1c
 .text.TCPIP_Helper_SingleListHeadRemove
                0x00020f18       0x1c build/FreeRTOS/production/_ext/540595297/tcpip_helpers.o
                0x00020f18                TCPIP_Helper_SingleListHeadRemove

.text.TCPIP_Helper_ProtectedSingleListUnlock%906
                0x00020f34       0x1c
 .text.TCPIP_Helper_ProtectedSingleListUnlock
                0x00020f34       0x1c build/FreeRTOS/production/_ext/540595297/tcpip_helpers.o
                0x00020f34                TCPIP_Helper_ProtectedSingleListUnlock

.text._TCPIPSignalEntryNotify%907
                0x00020f50       0x1c
 .text._TCPIPSignalEntryNotify
                0x00020f50       0x1c build/FreeRTOS/production/_ext/540595297/tcpip_manager.o

.text.TCPIP_STACK_Status%908
                0x00020f6c       0x1c
 .text.TCPIP_STACK_Status
                0x00020f6c       0x1c build/FreeRTOS/production/_ext/540595297/tcpip_manager.o
                0x00020f6c                TCPIP_STACK_Status

.text.TCPIP_STACK_NetAddressGatewaySet%909
                0x00020f88       0x1c
 .text.TCPIP_STACK_NetAddressGatewaySet
                0x00020f88       0x1c build/FreeRTOS/production/_ext/540595297/tcpip_manager.o
                0x00020f88                TCPIP_STACK_NetAddressGatewaySet

.text.TCPIP_STACK_NetAddressDnsPrimarySet%910
                0x00020fa4       0x1c
 .text.TCPIP_STACK_NetAddressDnsPrimarySet
                0x00020fa4       0x1c build/FreeRTOS/production/_ext/540595297/tcpip_manager.o
                0x00020fa4                TCPIP_STACK_NetAddressDnsPrimarySet

.text.TCPIP_STACK_NetAddressDnsSecondSet%911
                0x00020fc0       0x1c
 .text.TCPIP_STACK_NetAddressDnsSecondSet
                0x00020fc0       0x1c build/FreeRTOS/production/_ext/540595297/tcpip_manager.o
                0x00020fc0                TCPIP_STACK_NetAddressDnsSecondSet

.text.TCPIP_STACK_NetIsUp%912
                0x00020fdc       0x1c
 .text.TCPIP_STACK_NetIsUp
                0x00020fdc       0x1c build/FreeRTOS/production/_ext/540595297/tcpip_manager.o
                0x00020fdc                TCPIP_STACK_NetIsUp

.text.TCPIP_STACK_NetMask%913
                0x00020ff8       0x1c
 .text.TCPIP_STACK_NetMask
                0x00020ff8       0x1c build/FreeRTOS/production/_ext/540595297/tcpip_manager.o
                0x00020ff8                TCPIP_STACK_NetMask

.text.TCPIP_STACK_NetIsLinked%914
                0x00021014       0x1c
 .text.TCPIP_STACK_NetIsLinked
                0x00021014       0x1c build/FreeRTOS/production/_ext/540595297/tcpip_manager.o
                0x00021014                TCPIP_STACK_NetIsLinked

.text.TCPIP_STACK_Deinitialize%915
                0x00021030       0x1c
 .text.TCPIP_STACK_Deinitialize
                0x00021030       0x1c build/FreeRTOS/production/_ext/540595297/tcpip_manager.o
                0x00021030                TCPIP_STACK_Deinitialize

.text._keyLeftProcess%916
                0x0002104c       0x1c
 .text._keyLeftProcess
                0x0002104c       0x1c build/FreeRTOS/production/_ext/1005353002/sys_command.o

.text.SendCommandMessage%917
                0x00021068       0x1c
 .text.SendCommandMessage
                0x00021068       0x1c build/FreeRTOS/production/_ext/1005353002/sys_command.o

.text.SYS_DEBUG_Initialize%918
                0x00021084       0x1c
 .text.SYS_DEBUG_Initialize
                0x00021084       0x1c build/FreeRTOS/production/_ext/147610190/sys_debug.o
                0x00021084                SYS_DEBUG_Initialize

.text.SYS_TIME_Counter64Update%919
                0x000210a0       0x1c
 .text.SYS_TIME_Counter64Update
                0x000210a0       0x1c build/FreeRTOS/production/_ext/832704728/sys_time.o

.text.SYS_TIME_GetElapsedCount%920
                0x000210bc       0x1c
 .text.SYS_TIME_GetElapsedCount
                0x000210bc       0x1c build/FreeRTOS/production/_ext/832704728/sys_time.o

.text.SYS_TIME_MSToCount%921
                0x000210d8       0x1c
 .text.SYS_TIME_MSToCount
                0x000210d8       0x1c build/FreeRTOS/production/_ext/832704728/sys_time.o
                0x000210d8                SYS_TIME_MSToCount

.text.SYS_TMR_CallbackPeriodic%922
                0x000210f4       0x1c
 .text.SYS_TMR_CallbackPeriodic
                0x000210f4       0x1c build/FreeRTOS/production/_ext/2072568807/sys_time_h2_adapter.o
                0x000210f4                SYS_TMR_CallbackPeriodic

.rodata.sysTimePlibAPI%923
                0x00021110       0x1c
 .rodata.sysTimePlibAPI
                0x00021110       0x1c build/FreeRTOS/production/_ext/161576091/initialization.o
                0x00021110                sysTimePlibAPI

.text.vTaskPlaceOnEventList%924
                0x0002112c       0x1c
 .text.vTaskPlaceOnEventList
                0x0002112c       0x1c build/FreeRTOS/production/_ext/404212886/FreeRTOS_tasks.o
                0x0002112c                vTaskPlaceOnEventList

.text.pvTaskIncrementMutexHeldCount%925
                0x00021148       0x1c
 .text.pvTaskIncrementMutexHeldCount
                0x00021148       0x1c build/FreeRTOS/production/_ext/404212886/FreeRTOS_tasks.o
                0x00021148                pvTaskIncrementMutexHeldCount

.text.memcmp%926
                0x00021164       0x1c
 .text.memcmp   0x00021164       0x1c c:/program files/microchip/xc32/v3.01/bin/bin/../../lib/gcc/pic32c/8.3.1/../../../../pic32c/lib/thumb/v7e-m+fp/hard\libc_nano.a(lib_a-memcmp.o)
                0x00021164                memcmp

.text.memcpy%927
                0x00021180       0x1c
 .text.memcpy   0x00021180       0x1c c:/program files/microchip/xc32/v3.01/bin/bin/../../lib/gcc/pic32c/8.3.1/../../../../pic32c/lib/thumb/v7e-m+fp/hard\libc_nano.a(lib_a-memcpy-stub.o)
                0x00021180                memcpy

.text._calloc_r%928
                0x0002119c       0x1c
 .text._calloc_r
                0x0002119c       0x1c c:/program files/microchip/xc32/v3.01/bin/bin/../../lib/gcc/pic32c/8.3.1/../../../../pic32c/lib/thumb/v7e-m+fp/hard\libc_nano.a(lib_a-nano-callocr.o)
                0x0002119c                _calloc_r

.text.vsnprintf%929
                0x000211b8       0x1c
 .text.vsnprintf
                0x000211b8       0x1c c:/program files/microchip/xc32/v3.01/bin/bin/../../lib/gcc/pic32c/8.3.1/../../../../pic32c/lib/thumb/v7e-m+fp/hard\libc_nano.a(lib_a-vsnprintf.o)
                0x000211b8                vsniprintf
                0x000211b8                vsnprintf

.text._fputwc_r%930
                0x000211d4       0x1c
 .text._fputwc_r
                0x000211d4       0x1c c:/program files/microchip/xc32/v3.01/bin/bin/../../lib/gcc/pic32c/8.3.1/../../../../pic32c/lib/thumb/v7e-m+fp/hard\libc_nano.a(lib_a-fputwc.o)
                0x000211d4                _fputwc_r

.text.DRV_PIC32CGMAC_SingleListTailAdd%931
                0x000211f0       0x1a
 .text.DRV_PIC32CGMAC_SingleListTailAdd
                0x000211f0       0x1a build/FreeRTOS/production/_ext/41526634/drv_gmac_lib_samE5x.o
                0x000211f0                DRV_PIC32CGMAC_SingleListTailAdd

.text.Helper_SingleListTailAdd%932
                0x0002120a       0x1a
 .text.Helper_SingleListTailAdd
                0x0002120a       0x1a build/FreeRTOS/production/_ext/1149484450/drv_miim.o
                0x0002120a                Helper_SingleListTailAdd

.text.DRV_MIIM_Read%933
                0x00021224       0x1a
 .text.DRV_MIIM_Read
                0x00021224       0x1a build/FreeRTOS/production/_ext/1149484450/drv_miim.o
                0x00021224                DRV_MIIM_Read

.text.DRV_MIIM_Write%934
                0x0002123e       0x1a
 .text.DRV_MIIM_Write
                0x0002123e       0x1a build/FreeRTOS/production/_ext/1149484450/drv_miim.o
                0x0002123e                DRV_MIIM_Write

.text.DRV_MIIM_Scan%935
                0x00021258       0x1a
 .text.DRV_MIIM_Scan
                0x00021258       0x1a build/FreeRTOS/production/_ext/1149484450/drv_miim.o
                0x00021258                DRV_MIIM_Scan

.text.TCPIP_TCP_ClientOpen%936
                0x00021272       0x1a
 .text.TCPIP_TCP_ClientOpen
                0x00021272       0x1a build/FreeRTOS/production/_ext/540595297/tcp.o
                0x00021272                TCPIP_TCP_ClientOpen

.text.TCPIP_TCP_PutIsReady%937
                0x0002128c       0x1a
 .text.TCPIP_TCP_PutIsReady
                0x0002128c       0x1a build/FreeRTOS/production/_ext/540595297/tcp.o
                0x0002128c                TCPIP_TCP_PutIsReady

.text.TCPIP_DNS_IsResolved%938
                0x000212a6       0x1a
 .text.TCPIP_DNS_IsResolved
                0x000212a6       0x1a build/FreeRTOS/production/_ext/540595297/dns.o
                0x000212a6                TCPIP_DNS_IsResolved

.text.TCPIP_Helper_SingleListTailAdd%939
                0x000212c0       0x1a
 .text.TCPIP_Helper_SingleListTailAdd
                0x000212c0       0x1a build/FreeRTOS/production/_ext/540595297/tcpip_helpers.o
                0x000212c0                TCPIP_Helper_SingleListTailAdd

.text.TCPIP_Helper_SingleListAppend%940
                0x000212da       0x1a
 .text.TCPIP_Helper_SingleListAppend
                0x000212da       0x1a build/FreeRTOS/production/_ext/540595297/tcpip_helpers.o
                0x000212da                TCPIP_Helper_SingleListAppend

.text.TCPIP_STACK_NetIsReady%941
                0x000212f4       0x1a
 .text.TCPIP_STACK_NetIsReady
                0x000212f4       0x1a build/FreeRTOS/production/_ext/540595297/tcpip_manager.o
                0x000212f4                TCPIP_STACK_NetIsReady

.text.TCPIP_Notification_RemoveAll%942
                0x0002130e       0x1a
 .text.TCPIP_Notification_RemoveAll
                0x0002130e       0x1a build/FreeRTOS/production/_ext/540595297/tcpip_notify.o
                0x0002130e                TCPIP_Notification_RemoveAll

.text._UDPTxPktValid%943
                0x00021328       0x1a
 .text._UDPTxPktValid
                0x00021328       0x1a build/FreeRTOS/production/_ext/540595297/udp.o

.text.TCPIP_UDP_TxPointerGet%944
                0x00021342       0x1a
 .text.TCPIP_UDP_TxPointerGet
                0x00021342       0x1a build/FreeRTOS/production/_ext/540595297/udp.o
                0x00021342                TCPIP_UDP_TxPointerGet

.text.wc_InitRng%945
                0x0002135c       0x1a
 .text.wc_InitRng
                0x0002135c       0x1a build/FreeRTOS/production/_ext/1664057780/random.o
                0x0002135c                wc_InitRng

.text.strchr%946
                0x00021376       0x1a
 .text.strchr   0x00021376       0x1a c:/program files/microchip/xc32/v3.01/bin/bin/../../lib/gcc/pic32c/8.3.1/../../../../pic32c/lib/thumb/v7e-m+fp/hard\libc_nano.a(lib_a-strchr.o)
                0x00021376                strchr

.text.__ascii_wctomb%947
                0x00021390       0x1a
 .text.__ascii_wctomb
                0x00021390       0x1a c:/program files/microchip/xc32/v3.01/bin/bin/../../lib/gcc/pic32c/8.3.1/../../../../pic32c/lib/thumb/v7e-m+fp/hard\libc_nano.a(lib_a-wctomb_r.o)
                0x00021390                __ascii_wctomb

.text.CRYPT_MD5_DataAdd%948
                0x000213aa       0x18
 .text.CRYPT_MD5_DataAdd
                0x000213aa       0x18 build/FreeRTOS/production/_ext/1609394304/crypto.o
                0x000213aa                CRYPT_MD5_DataAdd

.text.CRYPT_MD5_Finalize%949
                0x000213c2       0x18
 .text.CRYPT_MD5_Finalize
                0x000213c2       0x18 build/FreeRTOS/production/_ext/1609394304/crypto.o
                0x000213c2                CRYPT_MD5_Finalize

.text.CRYPT_RNG_BlockGenerate%950
                0x000213da       0x18
 .text.CRYPT_RNG_BlockGenerate
                0x000213da       0x18 build/FreeRTOS/production/_ext/1609394304/crypto.o
                0x000213da                CRYPT_RNG_BlockGenerate

.text.DRV_ETHPHY_Deinitialize%951
                0x000213f4       0x18
 .text.DRV_ETHPHY_Deinitialize
                0x000213f4       0x18 build/FreeRTOS/production/_ext/1231519722/drv_ethphy.o
                0x000213f4                DRV_ETHPHY_Deinitialize

.text._DRV_ETHPHY_NegCompletePhaseResultNoWait%952
                0x0002140c       0x18
 .text._DRV_ETHPHY_NegCompletePhaseResultNoWait
                0x0002140c       0x18 build/FreeRTOS/production/_ext/1231519722/drv_ethphy.o

.text._DRV_ETHPHY_SetupPhaseNegotiate_SubPhase5%953
                0x00021424       0x18
 .text._DRV_ETHPHY_SetupPhaseNegotiate_SubPhase5
                0x00021424       0x18 build/FreeRTOS/production/_ext/1231519722/drv_ethphy.o

.text._DRV_ETHPHY_LinkStatPhaseIdle%954
                0x0002143c       0x18
 .text._DRV_ETHPHY_LinkStatPhaseIdle
                0x0002143c       0x18 build/FreeRTOS/production/_ext/1231519722/drv_ethphy.o

.text._DRV_ETHPHY_NegCompletePhaseIdle%955
                0x00021454       0x18
 .text._DRV_ETHPHY_NegCompletePhaseIdle
                0x00021454       0x18 build/FreeRTOS/production/_ext/1231519722/drv_ethphy.o

.text._DRV_ETHPHY_NegResultPhaseIdle%956
                0x0002146c       0x18
 .text._DRV_ETHPHY_NegResultPhaseIdle
                0x0002146c       0x18 build/FreeRTOS/production/_ext/1231519722/drv_ethphy.o

.text._DRV_ETHPHY_NegRestartPhaseIdle%957
                0x00021484       0x18
 .text._DRV_ETHPHY_NegRestartPhaseIdle
                0x00021484       0x18 build/FreeRTOS/production/_ext/1231519722/drv_ethphy.o

.rodata._DRV_PHY_NegCompletePhasesTbl%958
                0x0002149c       0x18
 .rodata._DRV_PHY_NegCompletePhasesTbl
                0x0002149c       0x18 build/FreeRTOS/production/_ext/1231519722/drv_ethphy.o

.text.DRV_PIC32CGMAC_SingleListHeadAdd%959
                0x000214b4       0x18
 .text.DRV_PIC32CGMAC_SingleListHeadAdd
                0x000214b4       0x18 build/FreeRTOS/production/_ext/41526634/drv_gmac_lib_samE5x.o
                0x000214b4                DRV_PIC32CGMAC_SingleListHeadAdd

.text.DRV_PIC32CGMAC_LibSysInt_Restore%960
                0x000214cc       0x18
 .text.DRV_PIC32CGMAC_LibSysInt_Restore
                0x000214cc       0x18 build/FreeRTOS/production/_ext/41526634/drv_gmac_lib_samE5x.o
                0x000214cc                DRV_PIC32CGMAC_LibSysInt_Restore

.text.DRV_MIIM_Close%961
                0x000214e4       0x18
 .text.DRV_MIIM_Close
                0x000214e4       0x18 build/FreeRTOS/production/_ext/1149484450/drv_miim.o
                0x000214e4                DRV_MIIM_Close

.text.TCPIP_ARP_HashKeyHash%962
                0x000214fc       0x18
 .text.TCPIP_ARP_HashKeyHash
                0x000214fc       0x18 build/FreeRTOS/production/_ext/540595297/arp.o
                0x000214fc                TCPIP_ARP_HashKeyHash

.text.TCPIP_OAHASH_EntryRemove%963
                0x00021514       0x18
 .text.TCPIP_OAHASH_EntryRemove
                0x00021514       0x18 build/FreeRTOS/production/_ext/540595297/oahash.o
                0x00021514                TCPIP_OAHASH_EntryRemove

.text.TCPIP_STACK_NetAddressGateway%964
                0x0002152c       0x18
 .text.TCPIP_STACK_NetAddressGateway
                0x0002152c       0x18 build/FreeRTOS/production/_ext/540595297/tcpip_manager.o
                0x0002152c                TCPIP_STACK_NetAddressGateway

.text.TCPIP_STACK_NetAddressDnsPrimary%965
                0x00021544       0x18
 .text.TCPIP_STACK_NetAddressDnsPrimary
                0x00021544       0x18 build/FreeRTOS/production/_ext/540595297/tcpip_manager.o
                0x00021544                TCPIP_STACK_NetAddressDnsPrimary

.text.TCPIP_STACK_NetAddressDnsSecond%966
                0x0002155c       0x18
 .text.TCPIP_STACK_NetAddressDnsSecond
                0x0002155c       0x18 build/FreeRTOS/production/_ext/540595297/tcpip_manager.o
                0x0002155c                TCPIP_STACK_NetAddressDnsSecond

.text.TCPIP_STACK_NetAddressGet%967
                0x00021574       0x18
 .text.TCPIP_STACK_NetAddressGet
                0x00021574       0x18 build/FreeRTOS/production/_ext/540595297/tcpip_manager.o
                0x00021574                TCPIP_STACK_NetAddressGet

.text.TCPIP_STACK_NetMaskGet%968
                0x0002158c       0x18
 .text.TCPIP_STACK_NetMaskGet
                0x0002158c       0x18 build/FreeRTOS/production/_ext/540595297/tcpip_manager.o
                0x0002158c                TCPIP_STACK_NetMaskGet

.rodata.TCPIP_FRAME_PROCESS_TBL%969
                0x000215a4       0x18
 .rodata.TCPIP_FRAME_PROCESS_TBL
                0x000215a4       0x18 build/FreeRTOS/production/_ext/540595297/tcpip_manager.o

.text.OSAL_CRIT_Enter%970
                0x000215bc       0x18
 .text.OSAL_CRIT_Enter
                0x000215bc       0x18 build/FreeRTOS/production/_ext/891571577/osal_freertos.o
                0x000215bc                OSAL_CRIT_Enter

.text.OSAL_SEM_Post%971
                0x000215d4       0x18
 .text.OSAL_SEM_Post
                0x000215d4       0x18 build/FreeRTOS/production/_ext/891571577/osal_freertos.o
                0x000215d4                OSAL_SEM_Post

.text.OSAL_MUTEX_Create%972
                0x000215ec       0x18
 .text.OSAL_MUTEX_Create
                0x000215ec       0x18 build/FreeRTOS/production/_ext/891571577/osal_freertos.o
                0x000215ec                OSAL_MUTEX_Create

.text.OSAL_MUTEX_Unlock%973
                0x00021604       0x18
 .text.OSAL_MUTEX_Unlock
                0x00021604       0x18 build/FreeRTOS/production/_ext/891571577/osal_freertos.o
                0x00021604                OSAL_MUTEX_Unlock

.text.SERCOM1_USART_WritePendingBytesGet%974
                0x0002161c       0x18
 .text.SERCOM1_USART_WritePendingBytesGet
                0x0002161c       0x18 build/FreeRTOS/production/_ext/2092608928/plib_sercom1_usart.o

.text.SERCOM1_USART_ReadCountGet%975
                0x00021634       0x18
 .text.SERCOM1_USART_ReadCountGet
                0x00021634       0x18 build/FreeRTOS/production/_ext/2092608928/plib_sercom1_usart.o
                0x00021634                SERCOM1_USART_ReadCountGet

.text.TC0_TimerStart%976
                0x0002164c       0x18
 .text.TC0_TimerStart
                0x0002164c       0x18 build/FreeRTOS/production/_ext/579449528/plib_tc0.o
                0x0002164c                TC0_TimerStart

.text.TC0_TimerStop%977
                0x00021664       0x18
 .text.TC0_TimerStop
                0x00021664       0x18 build/FreeRTOS/production/_ext/579449528/plib_tc0.o
                0x00021664                TC0_TimerStop

.text._keyDownProcess%978
                0x0002167c       0x18
 .text._keyDownProcess
                0x0002167c       0x18 build/FreeRTOS/production/_ext/1005353002/sys_command.o

.text.CommandReset%979
                0x00021694       0x18
 .text.CommandReset
                0x00021694       0x18 build/FreeRTOS/production/_ext/1005353002/sys_command.o

.text._SYS_RANDOM_CryptoContext%980
                0x000216ac       0x18
 .text._SYS_RANDOM_CryptoContext
                0x000216ac       0x18 build/FreeRTOS/production/_ext/2072568807/sys_random_h2_adapter.o

.text._TCPIP_STACK_Task%981
                0x000216c4       0x18
 .text._TCPIP_STACK_Task
                0x000216c4       0x18 build/FreeRTOS/production/_ext/161576091/tasks.o
                0x000216c4                _TCPIP_STACK_Task

.text._DRV_MIIM_Task%982
                0x000216dc       0x18
 .text._DRV_MIIM_Task
                0x000216dc       0x18 build/FreeRTOS/production/_ext/161576091/tasks.o
                0x000216dc                _DRV_MIIM_Task

.rodata.sysConsole0UARTPlibAPI%983
                0x000216f4       0x18
 .rodata.sysConsole0UARTPlibAPI
                0x000216f4       0x18 build/FreeRTOS/production/_ext/161576091/initialization.o
                0x000216f4                sysConsole0UARTPlibAPI

.rodata.tcpipDNSClientInitData%984
                0x0002170c       0x18
 .rodata.tcpipDNSClientInitData
                0x0002170c       0x18 build/FreeRTOS/production/_ext/161576091/initialization.o
                0x0002170c                tcpipDNSClientInitData

.text.vTaskInternalSetTimeOutState%985
                0x00021724       0x18
 .text.vTaskInternalSetTimeOutState
                0x00021724       0x18 build/FreeRTOS/production/_ext/404212886/FreeRTOS_tasks.o
                0x00021724                vTaskInternalSetTimeOutState

.rodata.__func__.8948%986
                0x0002173c       0x18
 .rodata.__func__.8948
                0x0002173c       0x18 build/FreeRTOS/production/_ext/1434865757/gfx_mono_text.o

.text.DRV_MIIM_ClientStatus%987
                0x00021754       0x16
 .text.DRV_MIIM_ClientStatus
                0x00021754       0x16 build/FreeRTOS/production/_ext/1149484450/drv_miim.o
                0x00021754                DRV_MIIM_ClientStatus

.text.TCPIP_TCP_WasDisconnected%988
                0x0002176a       0x16
 .text.TCPIP_TCP_WasDisconnected
                0x0002176a       0x16 build/FreeRTOS/production/_ext/540595297/tcp.o
                0x0002176a                TCPIP_TCP_WasDisconnected

.text._IperfUDPRxSignalHandler%989
                0x00021780       0x16
 .text._IperfUDPRxSignalHandler
                0x00021780       0x16 build/FreeRTOS/production/_ext/540595297/iperf.o

.text._IperfTCPRxSignalHandler%990
                0x00021796       0x16
 .text._IperfTCPRxSignalHandler
                0x00021796       0x16 build/FreeRTOS/production/_ext/540595297/iperf.o

.text._TCPIP_HEAP_LastError%991
                0x000217ac       0x16
 .text._TCPIP_HEAP_LastError
                0x000217ac       0x16 build/FreeRTOS/production/_ext/540595297/tcpip_heap_internal.o

.text._DHCPSocketRxSignalHandler%992
                0x000217c2       0x16
 .text._DHCPSocketRxSignalHandler
                0x000217c2       0x16 build/FreeRTOS/production/_ext/540595297/dhcp.o

.text._DNSSocketRxSignalHandler%993
                0x000217d8       0x16
 .text._DNSSocketRxSignalHandler
                0x000217d8       0x16 build/FreeRTOS/production/_ext/540595297/dns.o

.text.TCPIP_STACK_AddressServiceCanStart%994
                0x000217ee       0x16
 .text.TCPIP_STACK_AddressServiceCanStart
                0x000217ee       0x16 build/FreeRTOS/production/_ext/540595297/tcpip_manager.o
                0x000217ee                TCPIP_STACK_AddressServiceCanStart

.text._TCPIPStackPacketTx%995
                0x00021804       0x16
 .text._TCPIPStackPacketTx
                0x00021804       0x16 build/FreeRTOS/production/_ext/540595297/tcpip_manager.o
                0x00021804                _TCPIPStackPacketTx

.text.OSAL_CRIT_Leave%996
                0x0002181a       0x16
 .text.OSAL_CRIT_Leave
                0x0002181a       0x16 build/FreeRTOS/production/_ext/891571577/osal_freertos.o
                0x0002181a                OSAL_CRIT_Leave

.text.vListInitialise%997
                0x00021830       0x16
 .text.vListInitialise
                0x00021830       0x16 build/FreeRTOS/production/_ext/404212886/list.o
                0x00021830                vListInitialise

.text.vListInsertEnd%998
                0x00021846       0x16
 .text.vListInsertEnd
                0x00021846       0x16 build/FreeRTOS/production/_ext/404212886/list.o
                0x00021846                vListInsertEnd

.text.prvIsQueueEmpty%999
                0x0002185c       0x16
 .text.prvIsQueueEmpty
                0x0002185c       0x16 build/FreeRTOS/production/_ext/404212886/queue.o

.text.xQueueCreateCountingSemaphore%1000
                0x00021872       0x16
 .text.xQueueCreateCountingSemaphore
                0x00021872       0x16 build/FreeRTOS/production/_ext/404212886/queue.o
                0x00021872                xQueueCreateCountingSemaphore

.text.wc_InitMd5%1001
                0x00021888       0x16
 .text.wc_InitMd5
                0x00021888       0x16 build/FreeRTOS/production/_ext/1664057780/md5.o
                0x00021888                wc_InitMd5

.rodata._DRV_PHY_NegResultPhasesTbl%1002
                0x000218a0       0x14
 .rodata._DRV_PHY_NegResultPhasesTbl
                0x000218a0       0x14 build/FreeRTOS/production/_ext/1231519722/drv_ethphy.o

.rodata.DRV_ETHPHY_OBJECT_LAN867x%1003
                0x000218b4       0x14
 .rodata.DRV_ETHPHY_OBJECT_LAN867x
                0x000218b4       0x14 build/FreeRTOS/production/_ext/1231519722/drv_extphy_lan867x.o
                0x000218b4                DRV_ETHPHY_OBJECT_LAN867x

.rodata._DRV_GMAC_LinkStateTbl%1004
                0x000218c8       0x14
 .rodata._DRV_GMAC_LinkStateTbl
                0x000218c8       0x14 build/FreeRTOS/production/_ext/41526634/drv_gmac.o

.text.DRV_PIC32CGMAC_LibGetHighPrioReadyQue%1005
                0x000218dc       0x14
 .text.DRV_PIC32CGMAC_LibGetHighPrioReadyQue
                0x000218dc       0x14 build/FreeRTOS/production/_ext/41526634/drv_gmac_lib_samE5x.o
                0x000218dc                DRV_PIC32CGMAC_LibGetHighPrioReadyQue

.text.Ipv4DeRegisterCallback%1006
                0x000218f0       0x14
 .text.Ipv4DeRegisterCallback
                0x000218f0       0x14 build/FreeRTOS/production/_ext/540595297/ipv4.o

.text.TCPIP_HEAP_Create%1007
                0x00021904       0x14
 .text.TCPIP_HEAP_Create
                0x00021904       0x14 build/FreeRTOS/production/_ext/540595297/tcpip_heap_alloc.o
                0x00021904                TCPIP_HEAP_Create

.text._DHCPOptionWriteEnd%1008
                0x00021918       0x14
 .text._DHCPOptionWriteEnd
                0x00021918       0x14 build/FreeRTOS/production/_ext/540595297/dhcp.o

.text.TCPIP_STACK_NetUpMACAddressGet%1009
                0x0002192c       0x14
 .text.TCPIP_STACK_NetUpMACAddressGet
                0x0002192c       0x14 build/FreeRTOS/production/_ext/540595297/tcpip_manager.o
                0x0002192c                TCPIP_STACK_NetUpMACAddressGet

.text.TCPIP_STACK_HeapHandleGet%1010
                0x00021940       0x14
 .text.TCPIP_STACK_HeapHandleGet
                0x00021940       0x14 build/FreeRTOS/production/_ext/540595297/tcpip_manager.o
                0x00021940                TCPIP_STACK_HeapHandleGet

.text.SERCOM1_USART_ReadFreeBufferCountGet%1011
                0x00021954       0x14
 .text.SERCOM1_USART_ReadFreeBufferCountGet
                0x00021954       0x14 build/FreeRTOS/production/_ext/2092608928/plib_sercom1_usart.o
                0x00021954                SERCOM1_USART_ReadFreeBufferCountGet

.text.SERCOM1_USART_WriteFreeBufferCountGet%1012
                0x00021968       0x14
 .text.SERCOM1_USART_WriteFreeBufferCountGet
                0x00021968       0x14 build/FreeRTOS/production/_ext/2092608928/plib_sercom1_usart.o
                0x00021968                SERCOM1_USART_WriteFreeBufferCountGet

.text.TC0_Timer16bitPeriodSet%1013
                0x0002197c       0x14
 .text.TC0_Timer16bitPeriodSet
                0x0002197c       0x14 build/FreeRTOS/production/_ext/579449528/plib_tc0.o
                0x0002197c                TC0_Timer16bitPeriodSet

.text.TC0_Timer16bitCompareSet%1014
                0x00021990       0x14
 .text.TC0_Timer16bitCompareSet
                0x00021990       0x14 build/FreeRTOS/production/_ext/579449528/plib_tc0.o
                0x00021990                TC0_Timer16bitCompareSet

.rodata.sysConsoleApi%1015
                0x000219a4       0x14
 .rodata.sysConsoleApi
                0x000219a4       0x14 build/FreeRTOS/production/_ext/1005353002/sys_command.o
                0x000219a4                sysConsoleApi

.text.Console_UART_ResourceLock%1016
                0x000219b8       0x14
 .text.Console_UART_ResourceLock
                0x000219b8       0x14 build/FreeRTOS/production/_ext/548640822/sys_console_uart.o

.text.vPortEnableVFP%1017
                0x000219cc       0x14
 .text.vPortEnableVFP
                0x000219cc       0x14 build/FreeRTOS/production/_ext/246609638/port.o

.text.vPortExitCritical%1018
                0x000219e0       0x14
 .text.vPortExitCritical
                0x000219e0       0x14 build/FreeRTOS/production/_ext/246609638/port.o
                0x000219e0                vPortExitCritical

.text.CRYPT_WCCB_Initialize%1019
                0x000219f4       0x14
 .text.CRYPT_WCCB_Initialize
                0x000219f4       0x14 build/FreeRTOS/production/_ext/172253694/crypt_wolfcryptcb.o
                0x000219f4                CRYPT_WCCB_Initialize

.rodata.__func__.8940%1020
                0x00021a08       0x14
 .rodata.__func__.8940
                0x00021a08       0x14 build/FreeRTOS/production/_ext/1434865757/gfx_mono_text.o

.text%1021      0x00021a1c       0x14
 .text          0x00021a1c       0x14 c:/program files/microchip/xc32/v3.01/bin/bin/../../lib/gcc/pic32c/8.3.1/../../../../pic32c/lib/thumb/v7e-m+fp/hard\libc_nano.a(lib_a-strcmp.o)
                0x00021a1c                strcmp

.text.strtol%1022
                0x00021a30       0x14
 .text.strtol   0x00021a30       0x14 c:/program files/microchip/xc32/v3.01/bin/bin/../../lib/gcc/pic32c/8.3.1/../../../../pic32c/lib/thumb/v7e-m+fp/hard\libc_nano.a(lib_a-strtol.o)
                0x00021a30                strtol

.text.CRYPT_MD5_Initialize%1023
                0x00021a44       0x12
 .text.CRYPT_MD5_Initialize
                0x00021a44       0x12 build/FreeRTOS/production/_ext/1609394304/crypto.o
                0x00021a44                CRYPT_MD5_Initialize

.text.TCPIP_TCP_GetIsReady%1024
                0x00021a56       0x12
 .text.TCPIP_TCP_GetIsReady
                0x00021a56       0x12 build/FreeRTOS/production/_ext/540595297/tcp.o
                0x00021a56                TCPIP_TCP_GetIsReady

.text._TCPIP_HEAP_FreeSize%1025
                0x00021a68       0x12
 .text._TCPIP_HEAP_FreeSize
                0x00021a68       0x12 build/FreeRTOS/production/_ext/540595297/tcpip_heap_internal.o

.text.TCPIP_OAHASH_EntryGet%1026
                0x00021a7a       0x12
 .text.TCPIP_OAHASH_EntryGet
                0x00021a7a       0x12 build/FreeRTOS/production/_ext/540595297/oahash.o
                0x00021a7a                TCPIP_OAHASH_EntryGet

.text.OSAL_SEM_Delete%1027
                0x00021a8c       0x12
 .text.OSAL_SEM_Delete
                0x00021a8c       0x12 build/FreeRTOS/production/_ext/891571577/osal_freertos.o
                0x00021a8c                OSAL_SEM_Delete

.text.NVIC_INT_Disable%1028
                0x00021a9e       0x12
 .text.NVIC_INT_Disable
                0x00021a9e       0x12 build/FreeRTOS/production/_ext/1494909205/plib_nvic.o
                0x00021a9e                NVIC_INT_Disable

.text.NVIC_INT_Restore%1029
                0x00021ab0       0x12
 .text.NVIC_INT_Restore
                0x00021ab0       0x12 build/FreeRTOS/production/_ext/1494909205/plib_nvic.o
                0x00021ab0                NVIC_INT_Restore

.text.vApplicationStackOverflowHook%1030
                0x00021ac2       0x12
 .text.vApplicationStackOverflowHook
                0x00021ac2       0x12 build/FreeRTOS/production/_ext/161576091/freertos_hooks.o
                0x00021ac2                vApplicationStackOverflowHook

.text.vApplicationMallocFailedHook%1031
                0x00021ad4       0x12
 .text.vApplicationMallocFailedHook
                0x00021ad4       0x12 build/FreeRTOS/production/_ext/161576091/freertos_hooks.o
                0x00021ad4                vApplicationMallocFailedHook

.rodata%1032    0x00021ae6       0x12
 .rodata        0x00021ae6       0x12 c:/program files/microchip/xc32/v3.01/bin/bin/../../lib/gcc/pic32c/8.3.1/../../../../pic32c/lib/thumb/v7e-m+fp/hard\libc_nano.a(lib_a-nano-vfprintf_float.o)

.text.__i2b%1033
                0x00021af8       0x12
 .text.__i2b    0x00021af8       0x12 c:/program files/microchip/xc32/v3.01/bin/bin/../../lib/gcc/pic32c/8.3.1/../../../../pic32c/lib/thumb/v7e-m+fp/hard\libc_nano.a(lib_a-mprec.o)
                0x00021af8                __i2b

.rodata%1034    0x00021b0a       0x22
 .rodata        0x00021b0a       0x11 c:/program files/microchip/xc32/v3.01/bin/bin/../../lib/gcc/pic32c/8.3.1/../../../../pic32c/lib/thumb/v7e-m+fp/hard\libc_nano.a(lib_a-nano-vfprintf.o)
 .rodata        0x00021b1b       0x11 c:/program files/microchip/xc32/v3.01/bin/bin/../../lib/gcc/pic32c/8.3.1/../../../../pic32c/lib/thumb/v7e-m+fp/hard\libc_nano.a(lib_a-nano-svfprintf.o)

.text.CRYPT_RNG_Initialize%1036
                0x00021b2c       0x10
 .text.CRYPT_RNG_Initialize
                0x00021b2c       0x10 build/FreeRTOS/production/_ext/1609394304/crypto.o
                0x00021b2c                CRYPT_RNG_Initialize

.rodata._DRV_PHY_SetupPhasesTbl%1037
                0x00021b3c       0x10
 .rodata._DRV_PHY_SetupPhasesTbl
                0x00021b3c       0x10 build/FreeRTOS/production/_ext/1231519722/drv_ethphy.o

.text.DRV_PIC32CGMAC_LibSetInterruptSrc%1038
                0x00021b4c       0x10
 .text.DRV_PIC32CGMAC_LibSetInterruptSrc
                0x00021b4c       0x10 build/FreeRTOS/production/_ext/41526634/drv_gmac_lib_samE5x.o
                0x00021b4c                DRV_PIC32CGMAC_LibSetInterruptSrc

.text.TCPIP_TCP_SocketNetGet%1039
                0x00021b5c       0x10
 .text.TCPIP_TCP_SocketNetGet
                0x00021b5c       0x10 build/FreeRTOS/production/_ext/540595297/tcp.o
                0x00021b5c                TCPIP_TCP_SocketNetGet

.rodata.heapTypeStr.14744%1040
                0x00021b6c       0x10
 .rodata.heapTypeStr.14744
                0x00021b6c       0x10 build/FreeRTOS/production/_ext/540595297/tcpip_commands.o

.text.TCPIP_DNS_GetIPv4Addresses%1041
                0x00021b7c       0x10
 .text.TCPIP_DNS_GetIPv4Addresses
                0x00021b7c       0x10 build/FreeRTOS/production/_ext/540595297/dns.o
                0x00021b7c                TCPIP_DNS_GetIPv4Addresses

.text.TCPIP_DNS_GetIPv6Addresses%1042
                0x00021b8c       0x10
 .text.TCPIP_DNS_GetIPv6Addresses
                0x00021b8c       0x10 build/FreeRTOS/production/_ext/540595297/dns.o
                0x00021b8c                TCPIP_DNS_GetIPv6Addresses

.text.TCPIP_Notification_Deinitialize%1043
                0x00021b9c       0x10
 .text.TCPIP_Notification_Deinitialize
                0x00021b9c       0x10 build/FreeRTOS/production/_ext/540595297/tcpip_notify.o
                0x00021b9c                TCPIP_Notification_Deinitialize

.text.TCPIP_UDP_SocketNetGet%1044
                0x00021bac       0x10
 .text.TCPIP_UDP_SocketNetGet
                0x00021bac       0x10 build/FreeRTOS/production/_ext/540595297/udp.o
                0x00021bac                TCPIP_UDP_SocketNetGet

.text.NVMCTRL_Initialize%1045
                0x00021bbc       0x10
 .text.NVMCTRL_Initialize
                0x00021bbc       0x10 build/FreeRTOS/production/_ext/320424729/plib_nvmctrl.o
                0x00021bbc                NVMCTRL_Initialize

.text.IsCommandReady%1046
                0x00021bcc       0x10
 .text.IsCommandReady
                0x00021bcc       0x10 build/FreeRTOS/production/_ext/1005353002/sys_command.o

.text.Console_UART_Status%1047
                0x00021bdc       0x10
 .text.Console_UART_Status
                0x00021bdc       0x10 build/FreeRTOS/production/_ext/548640822/sys_console_uart.o
                0x00021bdc                Console_UART_Status

.text.sy_time_h2_adapter_callback%1048
                0x00021bec       0x10
 .text.sy_time_h2_adapter_callback
                0x00021bec       0x10 build/FreeRTOS/production/_ext/2072568807/sys_time_h2_adapter.o
                0x00021bec                sy_time_h2_adapter_callback

.text._APP_Tasks%1049
                0x00021bfc       0x10
 .text._APP_Tasks
                0x00021bfc       0x10 build/FreeRTOS/production/_ext/161576091/tasks.o
                0x00021bfc                _APP_Tasks

.text._SYS_CMD_Tasks%1050
                0x00021c0c       0x10
 .text._SYS_CMD_Tasks
                0x00021c0c       0x10 build/FreeRTOS/production/_ext/161576091/tasks.o
                0x00021c0c                _SYS_CMD_Tasks

.rodata.tcpipDHCPInitData%1051
                0x00021c1c       0x10
 .rodata.tcpipDHCPInitData
                0x00021c1c       0x10 build/FreeRTOS/production/_ext/161576091/initialization.o
                0x00021c1c                tcpipDHCPInitData

.rodata.tcpipIPv4InitData%1052
                0x00021c2c       0x10
 .rodata.tcpipIPv4InitData
                0x00021c2c       0x10 build/FreeRTOS/production/_ext/161576091/initialization.o
                0x00021c2c                tcpipIPv4InitData

.text.vTaskSuspendAll%1053
                0x00021c3c       0x10
 .text.vTaskSuspendAll
                0x00021c3c       0x10 build/FreeRTOS/production/_ext/404212886/FreeRTOS_tasks.o
                0x00021c3c                vTaskSuspendAll

.text.gfx_mono_framebuffer_get_byte%1054
                0x00021c4c       0x10
 .text.gfx_mono_framebuffer_get_byte
                0x00021c4c       0x10 build/FreeRTOS/production/_ext/1434865757/gfx_mono_framebuffer.o
                0x00021c4c                gfx_mono_framebuffer_get_byte

.text.calloc%1055
                0x00021c5c       0x10
 .text.calloc   0x00021c5c       0x10 c:/program files/microchip/xc32/v3.01/bin/bin/../../lib/gcc/pic32c/8.3.1/../../../../pic32c/lib/thumb/v7e-m+fp/hard\libc_nano.a(lib_a-calloc.o)
                0x00021c5c                calloc

.text.malloc%1056
                0x00021c6c       0x10
 .text.malloc   0x00021c6c       0x10 c:/program files/microchip/xc32/v3.01/bin/bin/../../lib/gcc/pic32c/8.3.1/../../../../pic32c/lib/thumb/v7e-m+fp/hard\libc_nano.a(lib_a-malloc.o)
                0x00021c6c                malloc

.text.free%1057
                0x00021c7c       0x10
 .text.free     0x00021c7c       0x10 c:/program files/microchip/xc32/v3.01/bin/bin/../../lib/gcc/pic32c/8.3.1/../../../../pic32c/lib/thumb/v7e-m+fp/hard\libc_nano.a(lib_a-malloc.o)
                0x00021c7c                free

.text.memset%1058
                0x00021c8c       0x10
 .text.memset   0x00021c8c       0x10 c:/program files/microchip/xc32/v3.01/bin/bin/../../lib/gcc/pic32c/8.3.1/../../../../pic32c/lib/thumb/v7e-m+fp/hard\libc_nano.a(lib_a-memset.o)
                0x00021c8c                memset

.text.strcpy%1059
                0x00021c9c       0x10
 .text.strcpy   0x00021c9c       0x10 c:/program files/microchip/xc32/v3.01/bin/bin/../../lib/gcc/pic32c/8.3.1/../../../../pic32c/lib/thumb/v7e-m+fp/hard\libc_nano.a(lib_a-strcpy.o)
                0x00021c9c                strcpy

.text%1060      0x00021cac       0x10
 .text          0x00021cac       0x10 c:/program files/microchip/xc32/v3.01/bin/bin/../../lib/gcc/pic32c/8.3.1/../../../../pic32c/lib/thumb/v7e-m+fp/hard\libc_nano.a(lib_a-strlen.o)
                0x00021cac                strlen

.text.raise%1061
                0x00021cbc       0x10
 .text.raise    0x00021cbc       0x10 c:/program files/microchip/xc32/v3.01/bin/bin/../../lib/gcc/pic32c/8.3.1/../../../../pic32c/lib/thumb/v7e-m+fp/hard\libc_nano.a(lib_a-signal.o)
                0x00021cbc                raise

.text._malloc_usable_size_r%1062
                0x00021ccc       0x10
 .text._malloc_usable_size_r
                0x00021ccc       0x10 c:/program files/microchip/xc32/v3.01/bin/bin/../../lib/gcc/pic32c/8.3.1/../../../../pic32c/lib/thumb/v7e-m+fp/hard\libc_nano.a(lib_a-nano-msizer.o)
                0x00021ccc                _malloc_usable_size_r

.rodata%1063    0x00021cdc        0xf
 .rodata        0x00021cdc        0xf c:/program files/microchip/xc32/v3.01/bin/bin/../../lib/gcc/pic32c/8.3.1/../../../../pic32c/lib/thumb/v7e-m+fp/hard\libc_nano.a(lib_a-dtoa.o)

.text.DRV_PIC32CGMAC_LibSetPriorityToQueueNum%1064
                0x00021cec        0xe
 .text.DRV_PIC32CGMAC_LibSetPriorityToQueueNum
                0x00021cec        0xe build/FreeRTOS/production/_ext/41526634/drv_gmac_lib_samE5x.o
                0x00021cec                DRV_PIC32CGMAC_LibSetPriorityToQueueNum

.text.btohexa_low%1065
                0x00021cfa        0xe
 .text.btohexa_low
                0x00021cfa        0xe build/FreeRTOS/production/_ext/540595297/helpers.o
                0x00021cfa                btohexa_low

.text.TCPIP_Helper_ChecksumFold%1066
                0x00021d08        0xe
 .text.TCPIP_Helper_ChecksumFold
                0x00021d08        0xe build/FreeRTOS/production/_ext/540595297/tcpip_helpers.o
                0x00021d08                TCPIP_Helper_ChecksumFold

.text.TCPIP_STACK_NetIndexGet%1067
                0x00021d16        0xe
 .text.TCPIP_STACK_NetIndexGet
                0x00021d16        0xe build/FreeRTOS/production/_ext/540595297/tcpip_manager.o
                0x00021d16                TCPIP_STACK_NetIndexGet

.text.TCPIP_STACK_NetIxGet%1068
                0x00021d24        0xe
 .text.TCPIP_STACK_NetIxGet
                0x00021d24        0xe build/FreeRTOS/production/_ext/540595297/tcpip_manager.o
                0x00021d24                TCPIP_STACK_NetIxGet

.text._TCPIPStackSignalHandlerDeregister%1069
                0x00021d32        0xe
 .text._TCPIPStackSignalHandlerDeregister
                0x00021d32        0xe build/FreeRTOS/production/_ext/540595297/tcpip_manager.o
                0x00021d32                _TCPIPStackSignalHandlerDeregister

.text.main%1070
                0x00021d40        0xe
 .text.main     0x00021d40        0xe build/FreeRTOS/production/_ext/1360937237/main.o
                0x00021d40                main

.text.abort%1071
                0x00021d4e        0xe
 .text.abort    0x00021d4e        0xe c:/program files/microchip/xc32/v3.01/bin/bin/../../lib/gcc/pic32c/8.3.1/../../../../pic32c/lib/thumb/v7e-m+fp/hard\libc_nano.a(lib_a-abort.o)
                0x00021d4e                abort

.rodata._DRV_PHY_LinkStatPhasesTbl%1072
                0x00017bf4        0xc
 .rodata._DRV_PHY_LinkStatPhasesTbl
                0x00017bf4        0xc build/FreeRTOS/production/_ext/1231519722/drv_ethphy.o

.rodata._DRV_PHY_NegRestartPhasesTbl%1073
                0x00021d5c        0xc
 .rodata._DRV_PHY_NegRestartPhasesTbl
                0x00021d5c        0xc build/FreeRTOS/production/_ext/1231519722/drv_ethphy.o

.rodata._DRV_PHY_ResetPhasesTbl%1074
                0x00021d68        0xc
 .rodata._DRV_PHY_ResetPhasesTbl
                0x00021d68        0xc build/FreeRTOS/production/_ext/1231519722/drv_ethphy.o

.text._DRV_GMAC_GetTxOctetLow%1075
                0x00021d74        0xc
 .text._DRV_GMAC_GetTxOctetLow
                0x00021d74        0xc build/FreeRTOS/production/_ext/41526634/drv_gmac.o

.text._DRV_GMAC_GetTxOctetHigh%1076
                0x00021d80        0xc
 .text._DRV_GMAC_GetTxOctetHigh
                0x00021d80        0xc build/FreeRTOS/production/_ext/41526634/drv_gmac.o

.text._DRV_GMAC_GetTxFrameCount%1077
                0x00021d8c        0xc
 .text._DRV_GMAC_GetTxFrameCount
                0x00021d8c        0xc build/FreeRTOS/production/_ext/41526634/drv_gmac.o

.text._DRV_GMAC_GetTxBCastFrameCount%1078
                0x00021d98        0xc
 .text._DRV_GMAC_GetTxBCastFrameCount
                0x00021d98        0xc build/FreeRTOS/production/_ext/41526634/drv_gmac.o

.text._DRV_GMAC_GetTxMCastFrameCount%1079
                0x00021da4        0xc
 .text._DRV_GMAC_GetTxMCastFrameCount
                0x00021da4        0xc build/FreeRTOS/production/_ext/41526634/drv_gmac.o

.text._DRV_GMAC_GetTxPauseFrameCount%1080
                0x00021db0        0xc
 .text._DRV_GMAC_GetTxPauseFrameCount
                0x00021db0        0xc build/FreeRTOS/production/_ext/41526634/drv_gmac.o

.text._DRV_GMAC_GetTx64ByteFrameCount%1081
                0x00021dbc        0xc
 .text._DRV_GMAC_GetTx64ByteFrameCount
                0x00021dbc        0xc build/FreeRTOS/production/_ext/41526634/drv_gmac.o

.text._DRV_GMAC_GetTx127ByteFrameCount%1082
                0x00021dc8        0xc
 .text._DRV_GMAC_GetTx127ByteFrameCount
                0x00021dc8        0xc build/FreeRTOS/production/_ext/41526634/drv_gmac.o

.text._DRV_GMAC_GetTx255ByteFrameCount%1083
                0x00021dd4        0xc
 .text._DRV_GMAC_GetTx255ByteFrameCount
                0x00021dd4        0xc build/FreeRTOS/production/_ext/41526634/drv_gmac.o

.text._DRV_GMAC_GetTx511ByteFrameCount%1084
                0x00021de0        0xc
 .text._DRV_GMAC_GetTx511ByteFrameCount
                0x00021de0        0xc build/FreeRTOS/production/_ext/41526634/drv_gmac.o

.text._DRV_GMAC_GetTx1023ByteFrameCount%1085
                0x00021dec        0xc
 .text._DRV_GMAC_GetTx1023ByteFrameCount
                0x00021dec        0xc build/FreeRTOS/production/_ext/41526634/drv_gmac.o

.text._DRV_GMAC_GetTx1518ByteFrameCount%1086
                0x00021df8        0xc
 .text._DRV_GMAC_GetTx1518ByteFrameCount
                0x00021df8        0xc build/FreeRTOS/production/_ext/41526634/drv_gmac.o

.text._DRV_GMAC_GetTxGT1518ByteFrameCount%1087
                0x00021e04        0xc
 .text._DRV_GMAC_GetTxGT1518ByteFrameCount
                0x00021e04        0xc build/FreeRTOS/production/_ext/41526634/drv_gmac.o

.text._DRV_GMAC_GetTxUnderRunFrameCount%1088
                0x00021e10        0xc
 .text._DRV_GMAC_GetTxUnderRunFrameCount
                0x00021e10        0xc build/FreeRTOS/production/_ext/41526634/drv_gmac.o

.text._DRV_GMAC_GetTxSingleCollFrameCount%1089
                0x00021e1c        0xc
 .text._DRV_GMAC_GetTxSingleCollFrameCount
                0x00021e1c        0xc build/FreeRTOS/production/_ext/41526634/drv_gmac.o

.text._DRV_GMAC_GetTxMultiCollFrameCount%1090
                0x00021e28        0xc
 .text._DRV_GMAC_GetTxMultiCollFrameCount
                0x00021e28        0xc build/FreeRTOS/production/_ext/41526634/drv_gmac.o

.text._DRV_GMAC_GetTxExcessCollFrameCount%1091
                0x00021e34        0xc
 .text._DRV_GMAC_GetTxExcessCollFrameCount
                0x00021e34        0xc build/FreeRTOS/production/_ext/41526634/drv_gmac.o

.text._DRV_GMAC_GetTxLateCollFrameCount%1092
                0x00021e40        0xc
 .text._DRV_GMAC_GetTxLateCollFrameCount
                0x00021e40        0xc build/FreeRTOS/production/_ext/41526634/drv_gmac.o

.text._DRV_GMAC_GetTxDeferFrameCount%1093
                0x00021e4c        0xc
 .text._DRV_GMAC_GetTxDeferFrameCount
                0x00021e4c        0xc build/FreeRTOS/production/_ext/41526634/drv_gmac.o

.text._DRV_GMAC_GetTxCSErrorFrameCount%1094
                0x00021e58        0xc
 .text._DRV_GMAC_GetTxCSErrorFrameCount
                0x00021e58        0xc build/FreeRTOS/production/_ext/41526634/drv_gmac.o

.text._DRV_GMAC_GetRxOctetLow%1095
                0x00021e64        0xc
 .text._DRV_GMAC_GetRxOctetLow
                0x00021e64        0xc build/FreeRTOS/production/_ext/41526634/drv_gmac.o

.text._DRV_GMAC_GetRxOctetHigh%1096
                0x00021e70        0xc
 .text._DRV_GMAC_GetRxOctetHigh
                0x00021e70        0xc build/FreeRTOS/production/_ext/41526634/drv_gmac.o

.text._DRV_GMAC_GetRxFrameCount%1097
                0x00021e7c        0xc
 .text._DRV_GMAC_GetRxFrameCount
                0x00021e7c        0xc build/FreeRTOS/production/_ext/41526634/drv_gmac.o

.text._DRV_GMAC_GetRxBCastFrameCount%1098
                0x00021e88        0xc
 .text._DRV_GMAC_GetRxBCastFrameCount
                0x00021e88        0xc build/FreeRTOS/production/_ext/41526634/drv_gmac.o

.text._DRV_GMAC_GetRxMCastFrameCount%1099
                0x00021e94        0xc
 .text._DRV_GMAC_GetRxMCastFrameCount
                0x00021e94        0xc build/FreeRTOS/production/_ext/41526634/drv_gmac.o

.text._DRV_GMAC_GetRxPauseFrameCount%1100
                0x00021ea0        0xc
 .text._DRV_GMAC_GetRxPauseFrameCount
                0x00021ea0        0xc build/FreeRTOS/production/_ext/41526634/drv_gmac.o

.text._DRV_GMAC_GetRx64ByteFrameCount%1101
                0x00021eac        0xc
 .text._DRV_GMAC_GetRx64ByteFrameCount
                0x00021eac        0xc build/FreeRTOS/production/_ext/41526634/drv_gmac.o

.text._DRV_GMAC_GetRx127ByteFrameCount%1102
                0x00021eb8        0xc
 .text._DRV_GMAC_GetRx127ByteFrameCount
                0x00021eb8        0xc build/FreeRTOS/production/_ext/41526634/drv_gmac.o

.text._DRV_GMAC_GetRx255ByteFrameCount%1103
                0x00021ec4        0xc
 .text._DRV_GMAC_GetRx255ByteFrameCount
                0x00021ec4        0xc build/FreeRTOS/production/_ext/41526634/drv_gmac.o

.text._DRV_GMAC_GetRx511ByteFrameCount%1104
                0x00021ed0        0xc
 .text._DRV_GMAC_GetRx511ByteFrameCount
                0x00021ed0        0xc build/FreeRTOS/production/_ext/41526634/drv_gmac.o

.text._DRV_GMAC_GetRx1023ByteFrameCount%1105
                0x00021edc        0xc
 .text._DRV_GMAC_GetRx1023ByteFrameCount
                0x00021edc        0xc build/FreeRTOS/production/_ext/41526634/drv_gmac.o

.text._DRV_GMAC_GetRx1518ByteFrameCount%1106
                0x00021ee8        0xc
 .text._DRV_GMAC_GetRx1518ByteFrameCount
                0x00021ee8        0xc build/FreeRTOS/production/_ext/41526634/drv_gmac.o

.text._DRV_GMAC_GetRxGT1518ByteFrameCount%1107
                0x00021ef4        0xc
 .text._DRV_GMAC_GetRxGT1518ByteFrameCount
                0x00021ef4        0xc build/FreeRTOS/production/_ext/41526634/drv_gmac.o

.text._DRV_GMAC_GetRxUnderSizeFrameCount%1108
                0x00021f00        0xc
 .text._DRV_GMAC_GetRxUnderSizeFrameCount
                0x00021f00        0xc build/FreeRTOS/production/_ext/41526634/drv_gmac.o

.text._DRV_GMAC_GetRxOverSizeFrameCount%1109
                0x00021f0c        0xc
 .text._DRV_GMAC_GetRxOverSizeFrameCount
                0x00021f0c        0xc build/FreeRTOS/production/_ext/41526634/drv_gmac.o

.text._DRV_GMAC_GetRxJabberFrameCount%1110
                0x00021f18        0xc
 .text._DRV_GMAC_GetRxJabberFrameCount
                0x00021f18        0xc build/FreeRTOS/production/_ext/41526634/drv_gmac.o

.text._DRV_GMAC_GetRxFCSErrorFrameCount%1111
                0x00021f24        0xc
 .text._DRV_GMAC_GetRxFCSErrorFrameCount
                0x00021f24        0xc build/FreeRTOS/production/_ext/41526634/drv_gmac.o

.text._DRV_GMAC_GetRxLFErrorFrameCount%1112
                0x00021f30        0xc
 .text._DRV_GMAC_GetRxLFErrorFrameCount
                0x00021f30        0xc build/FreeRTOS/production/_ext/41526634/drv_gmac.o

.text._DRV_GMAC_GetRxSymErrorFrameCount%1113
                0x00021f3c        0xc
 .text._DRV_GMAC_GetRxSymErrorFrameCount
                0x00021f3c        0xc build/FreeRTOS/production/_ext/41526634/drv_gmac.o

.text._DRV_GMAC_GetRxAlignErrorFrameCount%1114
                0x00021f48        0xc
 .text._DRV_GMAC_GetRxAlignErrorFrameCount
                0x00021f48        0xc build/FreeRTOS/production/_ext/41526634/drv_gmac.o

.text._DRV_GMAC_GetRxResErrorFrameCount%1115
                0x00021f54        0xc
 .text._DRV_GMAC_GetRxResErrorFrameCount
                0x00021f54        0xc build/FreeRTOS/production/_ext/41526634/drv_gmac.o

.text._DRV_GMAC_GetRxOverRunFrameCount%1116
                0x00021f60        0xc
 .text._DRV_GMAC_GetRxOverRunFrameCount
                0x00021f60        0xc build/FreeRTOS/production/_ext/41526634/drv_gmac.o

.text._DRV_GMAC_GetRxIPHdrCSErrorFrameCount%1117
                0x00021f6c        0xc
 .text._DRV_GMAC_GetRxIPHdrCSErrorFrameCount
                0x00021f6c        0xc build/FreeRTOS/production/_ext/41526634/drv_gmac.o

.text._DRV_GMAC_GetRxTCPCSErrorFrameCount%1118
                0x00021f78        0xc
 .text._DRV_GMAC_GetRxTCPCSErrorFrameCount
                0x00021f78        0xc build/FreeRTOS/production/_ext/41526634/drv_gmac.o

.text._DRV_GMAC_GetRxUDPCSErrorFrameCount%1119
                0x00021f84        0xc
 .text._DRV_GMAC_GetRxUDPCSErrorFrameCount
                0x00021f84        0xc build/FreeRTOS/production/_ext/41526634/drv_gmac.o

.text.DRV_PIC32CGMAC_LibReadInterruptStatus%1120
                0x00021f90        0xc
 .text.DRV_PIC32CGMAC_LibReadInterruptStatus
                0x00021f90        0xc build/FreeRTOS/production/_ext/41526634/drv_gmac_lib_samE5x.o
                0x00021f90                DRV_PIC32CGMAC_LibReadInterruptStatus

.text.DRV_PIC32CGMAC_LibEnableInterrupt%1121
                0x00021f9c        0xc
 .text.DRV_PIC32CGMAC_LibEnableInterrupt
                0x00021f9c        0xc build/FreeRTOS/production/_ext/41526634/drv_gmac_lib_samE5x.o
                0x00021f9c                DRV_PIC32CGMAC_LibEnableInterrupt

.text.DRV_PIC32CGMAC_LibDisableInterrupt%1122
                0x00021fa8        0xc
 .text.DRV_PIC32CGMAC_LibDisableInterrupt
                0x00021fa8        0xc build/FreeRTOS/production/_ext/41526634/drv_gmac_lib_samE5x.o
                0x00021fa8                DRV_PIC32CGMAC_LibDisableInterrupt

.text.btohexa_high%1123
                0x00021fb4        0xc
 .text.btohexa_high
                0x00021fb4        0xc build/FreeRTOS/production/_ext/540595297/helpers.o
                0x00021fb4                btohexa_high

.text.TCPIP_ARP_HashKeyCompare%1124
                0x00021fc0        0xc
 .text.TCPIP_ARP_HashKeyCompare
                0x00021fc0        0xc build/FreeRTOS/production/_ext/540595297/arp.o
                0x00021fc0                TCPIP_ARP_HashKeyCompare

.text.TCPIP_IPV4_PacketTransmit%1125
                0x00021fcc        0xc
 .text.TCPIP_IPV4_PacketTransmit
                0x00021fcc        0xc build/FreeRTOS/production/_ext/540595297/ipv4.o
                0x00021fcc                TCPIP_IPV4_PacketTransmit

.text._TCPIP_HEAP_Size%1126
                0x00021fd8        0xc
 .text._TCPIP_HEAP_Size
                0x00021fd8        0xc build/FreeRTOS/production/_ext/540595297/tcpip_heap_internal.o

.text._TCPIP_HEAP_HighWatermark%1127
                0x00021fe4        0xc
 .text._TCPIP_HEAP_HighWatermark
                0x00021fe4        0xc build/FreeRTOS/production/_ext/540595297/tcpip_heap_internal.o

.text.TCPIP_DNS_OAHASH_KeyCompare%1128
                0x00021ff0        0xc
 .text.TCPIP_DNS_OAHASH_KeyCompare
                0x00021ff0        0xc build/FreeRTOS/production/_ext/540595297/dns.o

.text.TCPIP_DNS_Enable%1129
                0x00021ffc        0xc
 .text.TCPIP_DNS_Enable
                0x00021ffc        0xc build/FreeRTOS/production/_ext/540595297/dns.o
                0x00021ffc                TCPIP_DNS_Enable

.text.TCPIP_STACK_NetDefaultGet%1130
                0x00022008        0xc
 .text.TCPIP_STACK_NetDefaultGet
                0x00022008        0xc build/FreeRTOS/production/_ext/540595297/tcpip_manager.o
                0x00022008                TCPIP_STACK_NetDefaultGet

.text.TCPIP_STACK_NumberOfNetworksGet%1131
                0x00022014        0xc
 .text.TCPIP_STACK_NumberOfNetworksGet
                0x00022014        0xc build/FreeRTOS/production/_ext/540595297/tcpip_manager.o
                0x00022014                TCPIP_STACK_NumberOfNetworksGet

.rodata.TCPIP_STACK_IF_ALIAS_NAME_TBL%1132
                0x00022020        0xc
 .rodata.TCPIP_STACK_IF_ALIAS_NAME_TBL
                0x00022020        0xc build/FreeRTOS/production/_ext/540595297/tcpip_manager.o

.text.TCPIP_PKT_Deinitialize%1133
                0x0002202c        0xc
 .text.TCPIP_PKT_Deinitialize
                0x0002202c        0xc build/FreeRTOS/production/_ext/540595297/tcpip_packet.o
                0x0002202c                TCPIP_PKT_Deinitialize

.text.TC0_TimerCallbackRegister%1134
                0x00022038        0xc
 .text.TC0_TimerCallbackRegister
                0x00022038        0xc build/FreeRTOS/production/_ext/579449528/plib_tc0.o
                0x00022038                TC0_TimerCallbackRegister

.text.SYS_DEBUG_ConsoleInstanceGet%1135
                0x00022044        0xc
 .text.SYS_DEBUG_ConsoleInstanceGet
                0x00022044        0xc build/FreeRTOS/production/_ext/147610190/sys_debug.o
                0x00022044                SYS_DEBUG_ConsoleInstanceGet

.text.SYS_DEBUG_ErrorLevelGet%1136
                0x00022050        0xc
 .text.SYS_DEBUG_ErrorLevelGet
                0x00022050        0xc build/FreeRTOS/production/_ext/147610190/sys_debug.o
                0x00022050                SYS_DEBUG_ErrorLevelGet

.text.SYS_TIME_FrequencyGet%1137
                0x0002205c        0xc
 .text.SYS_TIME_FrequencyGet
                0x0002205c        0xc build/FreeRTOS/production/_ext/832704728/sys_time.o
                0x0002205c                SYS_TIME_FrequencyGet

.rodata.sysConsole0Init%1138
                0x00022068        0xc
 .rodata.sysConsole0Init
                0x00022068        0xc build/FreeRTOS/production/_ext/161576091/initialization.o
                0x00022068                sysConsole0Init

.text.vTaskMissedYield%1139
                0x00022074        0xc
 .text.vTaskMissedYield
                0x00022074        0xc build/FreeRTOS/production/_ext/404212886/FreeRTOS_tasks.o
                0x00022074                vTaskMissedYield

.text.APP_Initialize%1140
                0x00022080        0xc
 .text.APP_Initialize
                0x00022080        0xc build/FreeRTOS/production/_ext/1360937237/app.o
                0x00022080                APP_Initialize

.text.SERCOM0_SPI_Write%1141
                0x0002208c        0xc
 .text.SERCOM0_SPI_Write
                0x0002208c        0xc build/FreeRTOS/production/_ext/1428073114/plib_sercom0_spi_master.o
                0x0002208c                SERCOM0_SPI_Write

.text.gfx_mono_set_framebuffer%1142
                0x00022098        0xc
 .text.gfx_mono_set_framebuffer
                0x00022098        0xc build/FreeRTOS/production/_ext/1434865757/gfx_mono_framebuffer.o
                0x00022098                gfx_mono_set_framebuffer

.text._cleanup_r%1143
                0x000220a4        0xc
 .text._cleanup_r
                0x000220a4        0xc c:/program files/microchip/xc32/v3.01/bin/bin/../../lib/gcc/pic32c/8.3.1/../../../../pic32c/lib/thumb/v7e-m+fp/hard\libc_nano.a(lib_a-findfp.o)
                0x000220a4                _cleanup_r

.text.__locale_mb_cur_max%1144
                0x000220b0        0xc
 .text.__locale_mb_cur_max
                0x000220b0        0xc c:/program files/microchip/xc32/v3.01/bin/bin/../../lib/gcc/pic32c/8.3.1/../../../../pic32c/lib/thumb/v7e-m+fp/hard\libc_nano.a(lib_a-locale.o)
                0x000220b0                __locale_mb_cur_max

.rodata.p05.7453%1145
                0x000220bc        0xc
 .rodata.p05.7453
                0x000220bc        0xc c:/program files/microchip/xc32/v3.01/bin/bin/../../lib/gcc/pic32c/8.3.1/../../../../pic32c/lib/thumb/v7e-m+fp/hard\libc_nano.a(lib_a-mprec.o)

.text.fstat%1146
                0x000220c8        0xc
 .text.fstat    0x000220c8        0xc c:/program files/microchip/xc32/v3.01/bin/bin/../../lib/gcc/pic32c/8.3.1/../../../../pic32c/lib/thumb/v7e-m+fp/hard\libpic32c.a(fstat.o)
                0x000220c8                fstat

.rodata%1147    0x000220d4        0xb
 .rodata        0x000220d4        0xb c:/program files/microchip/xc32/v3.01/bin/bin/../../lib/gcc/pic32c/8.3.1/../../../../pic32c/lib/thumb/v7e-m+fp/hard\libc_nano.a(lib_a-locale.o)

.text._DRV_ETHPHY_NegRestartPhaseWrite%1148
                0x000220e0        0xa
 .text._DRV_ETHPHY_NegRestartPhaseWrite
                0x000220e0        0xa build/FreeRTOS/production/_ext/1231519722/drv_ethphy.o

.text._ICMPTxPktAcknowledge%1149
                0x000220ea        0xa
 .text._ICMPTxPktAcknowledge
                0x000220ea        0xa build/FreeRTOS/production/_ext/540595297/icmp.o

.text._Command_ZcllOnOff%1150
                0x000220f4        0xa
 .text._Command_ZcllOnOff
                0x000220f4        0xa build/FreeRTOS/production/_ext/540595297/tcpip_commands.o

.text._Command_DHCPSOnOff%1151
                0x000220fe        0xa
 .text._Command_DHCPSOnOff
                0x000220fe        0xa build/FreeRTOS/production/_ext/540595297/tcpip_commands.o

.text.TCPIP_DNS_Resolve%1152
                0x00022108        0xa
 .text.TCPIP_DNS_Resolve
                0x00022108        0xa build/FreeRTOS/production/_ext/540595297/dns.o
                0x00022108                TCPIP_DNS_Resolve

.text.TCPIP_DNS_IsNameResolved%1153
                0x00022112        0xa
 .text.TCPIP_DNS_IsNameResolved
                0x00022112        0xa build/FreeRTOS/production/_ext/540595297/dns.o
                0x00022112                TCPIP_DNS_IsNameResolved

.text.TCPIP_Helper_SingleListInitialize%1154
                0x0002211c        0xa
 .text.TCPIP_Helper_SingleListInitialize
                0x0002211c        0xa build/FreeRTOS/production/_ext/540595297/tcpip_helpers.o
                0x0002211c                TCPIP_Helper_SingleListInitialize

.text.TCPIP_STACK_NetNameGet%1155
                0x00022126        0xa
 .text.TCPIP_STACK_NetNameGet
                0x00022126        0xa build/FreeRTOS/production/_ext/540595297/tcpip_manager.o
                0x00022126                TCPIP_STACK_NetNameGet

.text._TCPIPStackAddressServiceIsRunning%1156
                0x00022130        0xa
 .text._TCPIPStackAddressServiceIsRunning
                0x00022130        0xa build/FreeRTOS/production/_ext/540595297/tcpip_manager.o
                0x00022130                _TCPIPStackAddressServiceIsRunning

.text.TCPIP_UDP_ServerOpen%1157
                0x0002213a        0xa
 .text.TCPIP_UDP_ServerOpen
                0x0002213a        0xa build/FreeRTOS/production/_ext/540595297/udp.o
                0x0002213a                TCPIP_UDP_ServerOpen

.text.TCPIP_UDP_ClientOpen%1158
                0x00022144        0xa
 .text.TCPIP_UDP_ClientOpen
                0x00022144        0xa build/FreeRTOS/production/_ext/540595297/udp.o
                0x00022144                TCPIP_UDP_ClientOpen

.text.DRV_EXTPHY_SMIClockGet%1159
                0x0001b318        0x8
 .text.DRV_EXTPHY_SMIClockGet
                0x0001b318        0x8 build/FreeRTOS/production/_ext/1231519722/drv_extphy_lan867x.o

.text.TCPIP_HEAP_MallocOutline%1160
                0x000205c8        0x8
 .text.TCPIP_HEAP_MallocOutline
                0x000205c8        0x8 build/FreeRTOS/production/_ext/540595297/tcpip_heap_alloc.o
                0x000205c8                TCPIP_HEAP_MallocOutline

.text.TCPIP_HEAP_CallocOutline%1161
                0x0002214e        0x8
 .text.TCPIP_HEAP_CallocOutline
                0x0002214e        0x8 build/FreeRTOS/production/_ext/540595297/tcpip_heap_alloc.o
                0x0002214e                TCPIP_HEAP_CallocOutline

.text.TCPIP_HEAP_FreeOutline%1162
                0x00022156        0x8
 .text.TCPIP_HEAP_FreeOutline
                0x00022156        0x8 build/FreeRTOS/production/_ext/540595297/tcpip_heap_alloc.o
                0x00022156                TCPIP_HEAP_FreeOutline

.text.TCPIP_STACK_GatewayAddressSet%1163
                0x0002215e        0x8
 .text.TCPIP_STACK_GatewayAddressSet
                0x0002215e        0x8 build/FreeRTOS/production/_ext/540595297/tcpip_manager.o
                0x0002215e                TCPIP_STACK_GatewayAddressSet

.text.TCPIP_STACK_PrimaryDNSAddressSet%1164
                0x00022166        0x8
 .text.TCPIP_STACK_PrimaryDNSAddressSet
                0x00022166        0x8 build/FreeRTOS/production/_ext/540595297/tcpip_manager.o
                0x00022166                TCPIP_STACK_PrimaryDNSAddressSet

.text.TCPIP_STACK_SecondaryDNSAddressSet%1165
                0x0002216e        0x8
 .text.TCPIP_STACK_SecondaryDNSAddressSet
                0x0002216e        0x8 build/FreeRTOS/production/_ext/540595297/tcpip_manager.o
                0x0002216e                TCPIP_STACK_SecondaryDNSAddressSet

.text.TCPIP_STACK_NetAddressMac%1166
                0x00022176        0x8
 .text.TCPIP_STACK_NetAddressMac
                0x00022176        0x8 build/FreeRTOS/production/_ext/540595297/tcpip_manager.o
                0x00022176                TCPIP_STACK_NetAddressMac

.text.TCPIP_STACK_NetGetType%1167
                0x0002217e        0x8
 .text.TCPIP_STACK_NetGetType
                0x0002217e        0x8 build/FreeRTOS/production/_ext/540595297/tcpip_manager.o
                0x0002217e                TCPIP_STACK_NetGetType

.text.TCPIP_Notification_Initialize%1168
                0x00022186        0x8
 .text.TCPIP_Notification_Initialize
                0x00022186        0x8 build/FreeRTOS/production/_ext/540595297/tcpip_notify.o
                0x00022186                TCPIP_Notification_Initialize

.text.TCPIP_UDP_TxPutIsReady%1169
                0x0002218e        0x8
 .text.TCPIP_UDP_TxPutIsReady
                0x0002218e        0x8 build/FreeRTOS/production/_ext/540595297/udp.o
                0x0002218e                TCPIP_UDP_TxPutIsReady

.text.OSAL_Malloc%1170
                0x00022196        0x8
 .text.OSAL_Malloc
                0x00022196        0x8 build/FreeRTOS/production/_ext/891571577/osal_freertos.o
                0x00022196                OSAL_Malloc

.text.SERCOM1_USART_WriteCountGet%1171
                0x0002219e        0x8
 .text.SERCOM1_USART_WriteCountGet
                0x0002219e        0x8 build/FreeRTOS/production/_ext/2092608928/plib_sercom1_usart.o
                0x0002219e                SERCOM1_USART_WriteCountGet

.text.TC0_TimerFrequencyGet%1172
                0x000221a8        0x8
 .text.TC0_TimerFrequencyGet
                0x000221a8        0x8 build/FreeRTOS/production/_ext/579449528/plib_tc0.o
                0x000221a8                TC0_TimerFrequencyGet

.text.SYS_INT_Disable%1173
                0x000221b0        0x8
 .text.SYS_INT_Disable
                0x000221b0        0x8 build/FreeRTOS/production/_ext/1690414130/sys_int.o
                0x000221b0                SYS_INT_Disable

.text.SYS_INT_Restore%1174
                0x000221b8        0x8
 .text.SYS_INT_Restore
                0x000221b8        0x8 build/FreeRTOS/production/_ext/1690414130/sys_int.o
                0x000221b8                SYS_INT_Restore

.text.SYS_TIME_CounterGet%1175
                0x000221c0        0x8
 .text.SYS_TIME_CounterGet
                0x000221c0        0x8 build/FreeRTOS/production/_ext/832704728/sys_time.o
                0x000221c0                SYS_TIME_CounterGet

.rodata.drvMiimInitData%1176
                0x000221c8        0x8
 .rodata.drvMiimInitData
                0x000221c8        0x8 build/FreeRTOS/production/_ext/161576091/initialization.o

.rodata.sysTimeInitData%1177
                0x000221d0        0x8
 .rodata.sysTimeInitData
                0x000221d0        0x8 build/FreeRTOS/production/_ext/161576091/initialization.o
                0x000221d0                sysTimeInitData

.rodata.tcpipTCPInitData%1178
                0x000221d8        0x8
 .rodata.tcpipTCPInitData
                0x000221d8        0x8 build/FreeRTOS/production/_ext/161576091/initialization.o
                0x000221d8                tcpipTCPInitData

.rodata.tcpipUDPInitData%1179
                0x000221e0        0x8
 .rodata.tcpipUDPInitData
                0x000221e0        0x8 build/FreeRTOS/production/_ext/161576091/initialization.o
                0x000221e0                tcpipUDPInitData

.text.vQueueDelete%1180
                0x000221e8        0x8
 .text.vQueueDelete
                0x000221e8        0x8 build/FreeRTOS/production/_ext/404212886/queue.o
                0x000221e8                vQueueDelete

.rodata%1181    0x000221f0        0x8
 .rodata        0x000221f0        0x8 build/FreeRTOS/production/_ext/404212886/FreeRTOS_tasks.o

.text.gfx_mono_ssd1306_get_byte%1182
                0x000221f8        0x8
 .text.gfx_mono_ssd1306_get_byte
                0x000221f8        0x8 build/FreeRTOS/production/_ext/1434865757/gfx_mono_ug_2832hsweg04.o
                0x000221f8                gfx_mono_ssd1306_get_byte

.text.atoi%1183
                0x00022200        0x8
 .text.atoi     0x00022200        0x8 c:/program files/microchip/xc32/v3.01/bin/bin/../../lib/gcc/pic32c/8.3.1/../../../../pic32c/lib/thumb/v7e-m+fp/hard\libc_nano.a(lib_a-atoi.o)
                0x00022200                atoi

.text._localeconv_r%1184
                0x00022208        0x8
 .text._localeconv_r
                0x00022208        0x8 c:/program files/microchip/xc32/v3.01/bin/bin/../../lib/gcc/pic32c/8.3.1/../../../../pic32c/lib/thumb/v7e-m+fp/hard\libc_nano.a(lib_a-localeconv.o)
                0x00022208                _localeconv_r

.text.__sclose%1185
                0x00022210        0x8
 .text.__sclose
                0x00022210        0x8 c:/program files/microchip/xc32/v3.01/bin/bin/../../lib/gcc/pic32c/8.3.1/../../../../pic32c/lib/thumb/v7e-m+fp/hard\libc_nano.a(lib_a-stdio.o)
                0x00022210                __sclose

.text.close%1186
                0x00022218        0x8
 .text.close    0x00022218        0x8 c:/program files/microchip/xc32/v3.01/bin/bin/../../lib/gcc/pic32c/8.3.1/../../../../pic32c/lib/thumb/v7e-m+fp/hard\libpic32c.a(close.o)
                0x00022218                close

.text.TCPIP_ARP_HashKeyCopy%1187
                0x00022220        0x6
 .text.TCPIP_ARP_HashKeyCopy
                0x00022220        0x6 build/FreeRTOS/production/_ext/540595297/arp.o
                0x00022220                TCPIP_ARP_HashKeyCopy

.text.TCPIP_STACK_NetBIOSName%1188
                0x00022226        0x6
 .text.TCPIP_STACK_NetBIOSName
                0x00022226        0x6 build/FreeRTOS/production/_ext/540595297/tcpip_manager.o
                0x00022226                TCPIP_STACK_NetBIOSName

.text.TCPIP_PKT_GapDcptOffset%1189
                0x0002222c        0x6
 .text.TCPIP_PKT_GapDcptOffset
                0x0002222c        0x6 build/FreeRTOS/production/_ext/540595297/tcpip_packet.o
                0x0002222c                TCPIP_PKT_GapDcptOffset

.text.vListInitialiseItem%1190
                0x00022232        0x6
 .text.vListInitialiseItem
                0x00022232        0x6 build/FreeRTOS/production/_ext/404212886/list.o
                0x00022232                vListInitialiseItem

.text.CRYPT_WCCB_Callback%1191
                0x00022238        0x6
 .text.CRYPT_WCCB_Callback
                0x00022238        0x6 build/FreeRTOS/production/_ext/172253694/crypt_wolfcryptcb.o
                0x00022238                CRYPT_WCCB_Callback

.text.DRV_EXTPHY_MDIXConfigure%1192
                0x00004c44        0x4
 .text.DRV_EXTPHY_MDIXConfigure
                0x00004c44        0x4 build/FreeRTOS/production/_ext/1231519722/drv_extphy_lan867x.o

.text.DRV_GMAC_PowerMode%1193
                0x000201dc        0x4
 .text.DRV_GMAC_PowerMode
                0x000201dc        0x4 build/FreeRTOS/production/_ext/41526634/drv_gmac.o
                0x000201dc                DRV_GMAC_PowerMode

.text.DRV_PIC32CGMAC_LibRxQueFilterInit%1194
                0x0002223e        0x4
 .text.DRV_PIC32CGMAC_LibRxQueFilterInit
                0x0002223e        0x4 build/FreeRTOS/production/_ext/41526634/drv_gmac_lib_samE5x.o
                0x0002223e                DRV_PIC32CGMAC_LibRxQueFilterInit

.text.DRV_PIC32CGMAC_LibGetPriorityFromQueueNum%1195
                0x00022242        0x4
 .text.DRV_PIC32CGMAC_LibGetPriorityFromQueueNum
                0x00022242        0x4 build/FreeRTOS/production/_ext/41526634/drv_gmac_lib_samE5x.o
                0x00022242                DRV_PIC32CGMAC_LibGetPriorityFromQueueNum

.text.TCPIP_IPV4_IsFragmentationEnabled%1196
                0x00022246        0x4
 .text.TCPIP_IPV4_IsFragmentationEnabled
                0x00022246        0x4 build/FreeRTOS/production/_ext/540595297/ipv4.o
                0x00022246                TCPIP_IPV4_IsFragmentationEnabled

.text._DHCPOptionProcessEnd%1197
                0x0002224a        0x4
 .text._DHCPOptionProcessEnd
                0x0002224a        0x4 build/FreeRTOS/production/_ext/540595297/dhcp.o

.rodata._DHCPRequestParamsTbl%1198
                0x00022250        0x4
 .rodata._DHCPRequestParamsTbl
                0x00022250        0x4 build/FreeRTOS/production/_ext/540595297/dhcp.o

.rodata.dhcpMagicCookie%1199
                0x00022254        0x4
 .rodata.dhcpMagicCookie
                0x00022254        0x4 build/FreeRTOS/production/_ext/540595297/dhcp.o

.text.TCPIP_PKT_GapDcptSize%1200
                0x00022258        0x4
 .text.TCPIP_PKT_GapDcptSize
                0x00022258        0x4 build/FreeRTOS/production/_ext/540595297/tcpip_packet.o
                0x00022258                TCPIP_PKT_GapDcptSize

.text._mon_getc%1201
                0x0002225c        0x4
 .text._mon_getc
                0x0002225c        0x4 build/FreeRTOS/production/_ext/1872641887/xc32_monitor.o
                0x0002225c                _mon_getc

.text.Console_UART_Flush%1202
                0x00022260        0x4
 .text.Console_UART_Flush
                0x00022260        0x4 build/FreeRTOS/production/_ext/548640822/sys_console_uart.o
                0x00022260                Console_UART_Flush

.rodata.debugInit%1203
                0x00022264        0x4
 .rodata.debugInit
                0x00022264        0x4 build/FreeRTOS/production/_ext/161576091/initialization.o
                0x00022264                debugInit

.rodata.sysConsole0UARTInitData%1204
                0x00022268        0x4
 .rodata.sysConsole0UARTInitData
                0x00022268        0x4 build/FreeRTOS/production/_ext/161576091/initialization.o
                0x00022268                sysConsole0UARTInitData

.text%1205      0x0002226c        0x4
 .text          0x0002226c        0x4 c:/program files/microchip/xc32/v3.01/bin/bin/../../lib/gcc/pic32c/8.3.1/thumb/v7e-m+fp/hard\libgcc.a(_dvmd_tls.o)
                0x0002226c                __aeabi_idiv0
                0x0002226c                __aeabi_ldiv0

.rodata._global_impure_ptr%1206
                0x00022270        0x4
 .rodata._global_impure_ptr
                0x00022270        0x4 c:/program files/microchip/xc32/v3.01/bin/bin/../../lib/gcc/pic32c/8.3.1/../../../../pic32c/lib/thumb/v7e-m+fp/hard\libc_nano.a(lib_a-impure.o)
                0x00022270                _global_impure_ptr

.text._getpid_r%1207
                0x00022274        0x4
 .text._getpid_r
                0x00022274        0x4 c:/program files/microchip/xc32/v3.01/bin/bin/../../lib/gcc/pic32c/8.3.1/../../../../pic32c/lib/thumb/v7e-m+fp/hard\libc_nano.a(lib_a-signalr.o)
                0x00022274                _getpid_r

.text._close%1208
                0x00022278        0x4
 .text._close   0x00022278        0x4 c:/program files/microchip/xc32/v3.01/bin/bin/../../lib/gcc/pic32c/8.3.1/../../../../pic32c/lib/thumb/v7e-m+fp/hard\libpic32c.a(_close.o)
                0x00022278                _close

.text._fstat%1209
                0x0002227c        0x4
 .text._fstat   0x0002227c        0x4 c:/program files/microchip/xc32/v3.01/bin/bin/../../lib/gcc/pic32c/8.3.1/../../../../pic32c/lib/thumb/v7e-m+fp/hard\libpic32c.a(_fstat.o)
                0x0002227c                _fstat

.text._getpid%1210
                0x00022280        0x4
 .text._getpid  0x00022280        0x4 c:/program files/microchip/xc32/v3.01/bin/bin/../../lib/gcc/pic32c/8.3.1/../../../../pic32c/lib/thumb/v7e-m+fp/hard\libpic32c.a(_getpid.o)
                0x00022280                _getpid

.text._isatty%1211
                0x00022284        0x4
 .text._isatty  0x00022284        0x4 c:/program files/microchip/xc32/v3.01/bin/bin/../../lib/gcc/pic32c/8.3.1/../../../../pic32c/lib/thumb/v7e-m+fp/hard\libpic32c.a(_isatty.o)
                0x00022284                _isatty

.text._kill%1212
                0x00022288        0x4
 .text._kill    0x00022288        0x4 c:/program files/microchip/xc32/v3.01/bin/bin/../../lib/gcc/pic32c/8.3.1/../../../../pic32c/lib/thumb/v7e-m+fp/hard\libpic32c.a(_kill.o)
                0x00022288                _kill

.text._lseek%1213
                0x0002228c        0x4
 .text._lseek   0x0002228c        0x4 c:/program files/microchip/xc32/v3.01/bin/bin/../../lib/gcc/pic32c/8.3.1/../../../../pic32c/lib/thumb/v7e-m+fp/hard\libpic32c.a(_lseek.o)
                0x0002228c                _lseek

.text._read%1214
                0x00022290        0x4
 .text._read    0x00022290        0x4 c:/program files/microchip/xc32/v3.01/bin/bin/../../lib/gcc/pic32c/8.3.1/../../../../pic32c/lib/thumb/v7e-m+fp/hard\libpic32c.a(_read.o)
                0x00022290                _read

.text._write%1215
                0x00022294        0x4
 .text._write   0x00022294        0x4 c:/program files/microchip/xc32/v3.01/bin/bin/../../lib/gcc/pic32c/8.3.1/../../../../pic32c/lib/thumb/v7e-m+fp/hard\libpic32c.a(_write.o)
                0x00022294                _write

.text.getpid%1216
                0x00022298        0x4
 .text.getpid   0x00022298        0x4 c:/program files/microchip/xc32/v3.01/bin/bin/../../lib/gcc/pic32c/8.3.1/../../../../pic32c/lib/thumb/v7e-m+fp/hard\libpic32c.a(getpid.o)
                0x00022298                getpid

.text.isatty%1217
                0x0002229c        0x4
 .text.isatty   0x0002229c        0x4 c:/program files/microchip/xc32/v3.01/bin/bin/../../lib/gcc/pic32c/8.3.1/../../../../pic32c/lib/thumb/v7e-m+fp/hard\libpic32c.a(isatty.o)
                0x0002229c                isatty

.text.kill%1218
                0x000222a0        0x4
 .text.kill     0x000222a0        0x4 c:/program files/microchip/xc32/v3.01/bin/bin/../../lib/gcc/pic32c/8.3.1/../../../../pic32c/lib/thumb/v7e-m+fp/hard\libpic32c.a(kill.o)
                0x000222a0                kill

.text.lseek%1219
                0x000222a4        0x4
 .text.lseek    0x000222a4        0x4 c:/program files/microchip/xc32/v3.01/bin/bin/../../lib/gcc/pic32c/8.3.1/../../../../pic32c/lib/thumb/v7e-m+fp/hard\libpic32c.a(lseek.o)
                0x000222a4                lseek

.text._DRV_ETHPHY_ClientOpNone%1220
                0x00010616        0x2
 .text._DRV_ETHPHY_ClientOpNone
                0x00010616        0x2 build/FreeRTOS/production/_ext/1231519722/drv_ethphy.o

.text.DRV_GMAC_Reinitialize%1221
                0x00010f3e        0x2
 .text.DRV_GMAC_Reinitialize
                0x00010f3e        0x2 build/FreeRTOS/production/_ext/41526634/drv_gmac.o
                0x00010f3e                DRV_GMAC_Reinitialize

.text.DRV_MIIM_Reinitialize%1222
                0x000120de        0x2
 .text.DRV_MIIM_Reinitialize
                0x000120de        0x2 build/FreeRTOS/production/_ext/1149484450/drv_miim.o
                0x000120de                DRV_MIIM_Reinitialize

.text._TCPIP_HEAP_BufferMapNonCached%1223
                0x00012a7e        0x2
 .text._TCPIP_HEAP_BufferMapNonCached
                0x00012a7e        0x2 build/FreeRTOS/production/_ext/540595297/tcpip_heap_alloc.o
                0x00012a7e                _TCPIP_HEAP_BufferMapNonCached

.text.EVSYS_Initialize%1224
                0x00014496        0x2
 .text.EVSYS_Initialize
                0x00014496        0x2 build/FreeRTOS/production/_ext/894153619/plib_evsys.o
                0x00014496                EVSYS_Initialize

.text._mon_putc%1225
                0x00014ff2        0x2
 .text._mon_putc
                0x00014ff2        0x2 build/FreeRTOS/production/_ext/1872641887/xc32_monitor.o
                0x00014ff2                _mon_putc

.text.Console_UART_Tasks%1226
                0x00015386        0x2
 .text.Console_UART_Tasks
                0x00015386        0x2 build/FreeRTOS/production/_ext/548640822/sys_console_uart.o
                0x00015386                Console_UART_Tasks

.text.Dummy_Handler%1227
                0x0001588a        0x2
 .text.Dummy_Handler
                0x0001588a        0x2 build/FreeRTOS/production/_ext/161576091/interrupts.o
                0x0001588a                EIC_EXTINT_9_Handler
                0x0001588a                TCC0_MC5_Handler
                0x0001588a                USB_SOF_HSOF_Handler
                0x0001588a                TCC4_OTHER_Handler
                0x0001588a                TCC2_MC2_Handler
                0x0001588a                EVSYS_0_Handler
                0x0001588a                TRNG_Handler
                0x0001588a                TC2_Handler
                0x0001588a                USB_TRCPT0_Handler
                0x0001588a                DAC_OTHER_Handler
                0x0001588a                AC_Handler
                0x0001588a                DAC_EMPTY_0_Handler
                0x0001588a                DMAC_OTHER_Handler
                0x0001588a                EIC_EXTINT_5_Handler
                0x0001588a                SERCOM3_1_Handler
                0x0001588a                SERCOM4_OTHER_Handler
                0x0001588a                SERCOM3_2_Handler
                0x0001588a                EIC_EXTINT_6_Handler
                0x0001588a                TC7_Handler
                0x0001588a                TCC4_MC0_Handler
                0x0001588a                EVSYS_3_Handler
                0x0001588a                QSPI_Handler
                0x0001588a                TCC2_MC0_Handler
                0x0001588a                PDEC_OTHER_Handler
                0x0001588a                TCC3_MC0_Handler
                0x0001588a                PDEC_MC1_Handler
                0x0001588a                TCC2_MC1_Handler
                0x0001588a                OSCCTRL_XOSC1_Handler
                0x0001588a                PDEC_MC0_Handler
                0x0001588a                EIC_EXTINT_4_Handler
                0x0001588a                EIC_EXTINT_7_Handler
                0x0001588a                EVSYS_OTHER_Handler
                0x0001588a                RTC_Handler
                0x0001588a                SERCOM4_0_Handler
                0x0001588a                TCC1_MC0_Handler
                0x0001588a                TCC2_OTHER_Handler
                0x0001588a                EIC_EXTINT_11_Handler
                0x0001588a                SUPC_BODDET_Handler
                0x0001588a                EIC_EXTINT_14_Handler
                0x0001588a                OSC32KCTRL_Handler
                0x0001588a                SERCOM6_2_Handler
                0x0001588a                EVSYS_1_Handler
                0x0001588a                TC6_Handler
                0x0001588a                TCC4_MC1_Handler
                0x0001588a                DMAC_0_Handler
                0x0001588a                SUPC_OTHER_Handler
                0x0001588a                WDT_Handler
                0x0001588a                CAN0_Handler
                0x0001588a                EIC_EXTINT_15_Handler
                0x0001588a                SERCOM6_0_Handler
                0x0001588a                EIC_EXTINT_1_Handler
                0x0001588a                TCC3_MC1_Handler
                0x0001588a                SERCOM5_0_Handler
                0x0001588a                TC4_Handler
                0x0001588a                TC1_Handler
                0x0001588a                TCC1_MC1_Handler
                0x0001588a                EIC_EXTINT_0_Handler
                0x0001588a                TCC1_OTHER_Handler
                0x0001588a                PAC_Handler
                0x0001588a                SERCOM4_1_Handler
                0x0001588a                TC3_Handler
                0x0001588a                Dummy_Handler
                0x0001588a                DAC_RESRDY_0_Handler
                0x0001588a                SERCOM5_1_Handler
                0x0001588a                DMAC_2_Handler
                0x0001588a                TCC0_MC4_Handler
                0x0001588a                USB_TRCPT1_Handler
                0x0001588a                TCC0_MC3_Handler
                0x0001588a                EIC_EXTINT_12_Handler
                0x0001588a                OSCCTRL_DPLL0_Handler
                0x0001588a                SERCOM6_OTHER_Handler
                0x0001588a                SERCOM7_1_Handler
                0x0001588a                SERCOM5_OTHER_Handler
                0x0001588a                PM_Handler
                0x0001588a                OSCCTRL_DFLL_Handler
                0x0001588a                SERCOM7_0_Handler
                0x0001588a                DAC_RESRDY_1_Handler
                0x0001588a                DMAC_1_Handler
                0x0001588a                USB_OTHER_Handler
                0x0001588a                SDHC1_Handler
                0x0001588a                SERCOM7_2_Handler
                0x0001588a                CAN1_Handler
                0x0001588a                TCC0_OTHER_Handler
                0x0001588a                EIC_EXTINT_10_Handler
                0x0001588a                TCC1_MC3_Handler
                0x0001588a                OSCCTRL_XOSC0_Handler
                0x0001588a                SERCOM6_1_Handler
                0x0001588a                TCC0_MC0_Handler
                0x0001588a                EIC_EXTINT_2_Handler
                0x0001588a                SDHC0_Handler
                0x0001588a                I2S_Handler
                0x0001588a                PCC_Handler
                0x0001588a                TCC3_OTHER_Handler
                0x0001588a                EIC_EXTINT_13_Handler
                0x0001588a                PUKCC_Handler
                0x0001588a                SERCOM2_1_Handler
                0x0001588a                SERCOM3_0_Handler
                0x0001588a                SERCOM4_2_Handler
                0x0001588a                TCC1_MC2_Handler
                0x0001588a                ADC1_RESRDY_Handler
                0x0001588a                NVMCTRL_1_Handler
                0x0001588a                SERCOM5_2_Handler
                0x0001588a                SERCOM2_2_Handler
                0x0001588a                DAC_EMPTY_1_Handler
                0x0001588a                ADC1_OTHER_Handler
                0x0001588a                OSCCTRL_DPLL1_Handler
                0x0001588a                EIC_EXTINT_3_Handler
                0x0001588a                SERCOM3_OTHER_Handler
                0x0001588a                EIC_EXTINT_8_Handler
                0x0001588a                NVMCTRL_0_Handler
                0x0001588a                ADC0_RESRDY_Handler
                0x0001588a                ADC0_OTHER_Handler
                0x0001588a                MCLK_Handler
                0x0001588a                SERCOM7_OTHER_Handler
                0x0001588a                EVSYS_2_Handler
                0x0001588a                SERCOM2_OTHER_Handler
                0x0001588a                FREQM_Handler
                0x0001588a                TCC0_MC1_Handler
                0x0001588a                DMAC_3_Handler
                0x0001588a                RAMECC_Handler
                0x0001588a                TC5_Handler
                0x0001588a                SERCOM2_0_Handler
                0x0001588a                AES_Handler
                0x0001588a                ICM_Handler
                0x0001588a                TCC0_MC2_Handler

.text.NonMaskableInt_Handler%1228
                0x000167c6        0x2
 .text.NonMaskableInt_Handler
                0x000167c6        0x2 build/FreeRTOS/production/_ext/161576091/exceptions.o
                0x000167c6                NonMaskableInt_Handler

.text.HardFault_Handler%1229
                0x00016c16        0x2
 .text.HardFault_Handler
                0x00016c16        0x2 build/FreeRTOS/production/_ext/161576091/exceptions.o
                0x00016c16                HardFault_Handler

.text.DebugMonitor_Handler%1230
                0x000172ee        0x2
 .text.DebugMonitor_Handler
                0x000172ee        0x2 build/FreeRTOS/production/_ext/161576091/exceptions.o
                0x000172ee                DebugMonitor_Handler

.text.MemoryManagement_Handler%1231
                0x00017786        0x2
 .text.MemoryManagement_Handler
                0x00017786        0x2 build/FreeRTOS/production/_ext/161576091/exceptions.o
                0x00017786                MemoryManagement_Handler

.text.BusFault_Handler%1232
                0x00017a12        0x2
 .text.BusFault_Handler
                0x00017a12        0x2 build/FreeRTOS/production/_ext/161576091/exceptions.o
                0x00017a12                BusFault_Handler

.text.UsageFault_Handler%1233
                0x000180e6        0x2
 .text.UsageFault_Handler
                0x000180e6        0x2 build/FreeRTOS/production/_ext/161576091/exceptions.o
                0x000180e6                UsageFault_Handler

.text.Dummy_App_Func%1234
                0x00019afe        0x2
 .text.Dummy_App_Func
                0x00019afe        0x2 build/FreeRTOS/production/_ext/161576091/startup_xc32.o
                0x00019afe                _on_reset
                0x00019afe                _on_bootstrap
                0x00019afe                __xc32_on_reset
                0x00019afe                Dummy_App_Func
                0x00019afe                __xc32_on_bootstrap

.text._exit%1235
                0x0001ac4a        0x2
 .text._exit    0x0001ac4a        0x2 build/FreeRTOS/production/_ext/161576091/libc_syscalls.o
                0x0001ac4a                _exit

.text.vPortFree%1236
                0x0001b4ae        0x2
 .text.vPortFree
                0x0001b4ae        0x2 build/FreeRTOS/production/_ext/1665200909/heap_1.o
                0x0001b4ae                vPortFree

.text.wc_Sha256Free%1237
                0x0001c022        0x2
 .text.wc_Sha256Free
                0x0001c022        0x2 build/FreeRTOS/production/_ext/1664057780/sha256.o
                0x0001c022                wc_Sha256Free

.text.__malloc_lock%1238
                0x0001c50a        0x2
 .text.__malloc_lock
                0x0001c50a        0x2 c:/program files/microchip/xc32/v3.01/bin/bin/../../lib/gcc/pic32c/8.3.1/../../../../pic32c/lib/thumb/v7e-m+fp/hard\libc_nano.a(lib_a-mlock.o)
                0x0001c50a                __malloc_lock

.text.__malloc_unlock%1239
                0x0001e152        0x2
 .text.__malloc_unlock
                0x0001e152        0x2 c:/program files/microchip/xc32/v3.01/bin/bin/../../lib/gcc/pic32c/8.3.1/../../../../pic32c/lib/thumb/v7e-m+fp/hard\libc_nano.a(lib_a-mlock.o)
                0x0001e152                __malloc_unlock
